C7E1  20 ED F4  JSR $F4ED                       A:00 X:FF Y:9B P:A5 SP:FF
F4ED  A5 18     LDA $18 = 5B                    A:00 X:FF Y:9B P:A5 SP:FD
F4EF  29 02     AND #$02                        A:5B X:FF Y:9B P:25 SP:FD
F4F1  85 00     STA $00 = 02                    A:02 X:FF Y:9B P:25 SP:FD
F4F3  A5 19     LDA $19 = FD                    A:02 X:FF Y:9B P:25 SP:FD
F4F5  29 02     AND #$02                        A:FD X:FF Y:9B P:A5 SP:FD
F4F7  45 00     EOR $00 = 02                    A:00 X:FF Y:9B P:27 SP:FD
F4F9  18        CLC                             A:02 X:FF Y:9B P:25 SP:FD
F4FA  F0 01     BEQ $F4FD                       A:02 X:FF Y:9B P:24 SP:FD
F4FC  38        SEC                             A:02 X:FF Y:9B P:24 SP:FD
F4FD  66 18     ROR $18 = 5B                    A:02 X:FF Y:9B P:25 SP:FD
F4FF  66 19     ROR $19 = FD                    A:02 X:FF Y:9B P:A5 SP:FD
F501  66 1A     ROR $1A = 4A                    A:02 X:FF Y:9B P:A5 SP:FD
F503  66 1B     ROR $1B = B0                    A:02 X:FF Y:9B P:A4 SP:FD
F505  66 1C     ROR $1C = 25                    A:02 X:FF Y:9B P:24 SP:FD
F507  66 1D     ROR $1D = 45                    A:02 X:FF Y:9B P:25 SP:FD
F509  66 1E     ROR $1E = 0F                    A:02 X:FF Y:9B P:A5 SP:FD
F50B  66 1F     ROR $1F = 85                    A:02 X:FF Y:9B P:A5 SP:FD
F50D  60        RTS                             A:02 X:FF Y:9B P:A5 SP:FD
C7E4  4C E1 C7  JMP $C7E1                       A:02 X:FF Y:9B P:A5 SP:FF
C7E1  20 ED F4  JSR $F4ED                       A:02 X:FF Y:9B P:A5 SP:FF
F4ED  A5 18     LDA $18 = AD                    A:02 X:FF Y:9B P:A5 SP:FD
F4EF  29 02     AND #$02                        A:AD X:FF Y:9B P:A5 SP:FD
F4F1  85 00     STA $00 = 02                    A:00 X:FF Y:9B P:27 SP:FD
F4F3  A5 19     LDA $19 = FE                    A:00 X:FF Y:9B P:27 SP:FD
F4F5  29 02     AND #$02                        A:FE X:FF Y:9B P:A5 SP:FD
F4F7  45 00     EOR $00 = 00                    A:02 X:FF Y:9B P:25 SP:FD
F4F9  18        CLC                             A:02 X:FF Y:9B P:25 SP:FD
F4FA  F0 01     BEQ $F4FD                       A:02 X:FF Y:9B P:24 SP:FD
F4FC  38        SEC                             A:02 X:FF Y:9B P:24 SP:FD
F4FD  66 18     ROR $18 = AD                    A:02 X:FF Y:9B P:25 SP:FD
F4FF  66 19     ROR $19 = FE                    A:02 X:FF Y:9B P:A5 SP:FD
F501  66 1A     ROR $1A = A5                    A:02 X:FF Y:9B P:A4 SP:FD
F503  66 1B     ROR $1B = 58                    A:02 X:FF Y:9B P:25 SP:FD
F505  66 1C     ROR $1C = 12                    A:02 X:FF Y:9B P:A4 SP:FD
F507  66 1D     ROR $1D = A2                    A:02 X:FF Y:9B P:24 SP:FD
F509  66 1E     ROR $1E = 87                    A:02 X:FF Y:9B P:24 SP:FD
F50B  66 1F     ROR $1F = C2                    A:02 X:FF Y:9B P:25 SP:FD
F50D  60        RTS                             A:02 X:FF Y:9B P:A4 SP:FD
C7E4  4C E1 C7  JMP $C7E1                       A:02 X:FF Y:9B P:A4 SP:FF
C7E1  20 ED F4  JSR $F4ED                       A:02 X:FF Y:9B P:A4 SP:FF
F4ED  A5 18     LDA $18 = D6                    A:02 X:FF Y:9B P:A4 SP:FD
F4EF  29 02     AND #$02                        A:D6 X:FF Y:9B P:A4 SP:FD
F4F1  85 00     STA $00 = 00                    A:02 X:FF Y:9B P:24 SP:FD
F4F3  A5 19     LDA $19 = FF                    A:02 X:FF Y:9B P:24 SP:FD
F4F5  29 02     AND #$02                        A:FF X:FF Y:9B P:A4 SP:FD
F4F7  45 00     EOR $00 = 02                    A:02 X:FF Y:9B P:24 SP:FD
F4F9  18        CLC                             A:00 X:FF Y:9B P:26 SP:FD
F4FA  F0 01     BEQ $F4FD                       A:00 X:FF Y:9B P:26 SP:FD
F4FD  66 18     ROR $18 = D6                    A:00 X:FF Y:9B P:26 SP:FD
F4FF  66 19     ROR $19 = FF                    A:00 X:FF Y:9B P:24 SP:FD
F501  66 1A     ROR $1A = 52                    A:00 X:FF Y:9B P:25 SP:FD
F503  66 1B     ROR $1B = AC                    A:00 X:FF Y:9B P:A4 SP:FD
F505  66 1C     ROR $1C = 09                    A:00 X:FF Y:9B P:24 SP:FD
F507  66 1D     ROR $1D = 51                    A:00 X:FF Y:9B P:25 SP:FD
F509  66 1E     ROR $1E = 43                    A:00 X:FF Y:9B P:A5 SP:FD
F50B  66 1F     ROR $1F = E1                    A:00 X:FF Y:9B P:A5 SP:FD
F50D  60        RTS                             A:00 X:FF Y:9B P:A5 SP:FD
C7E4  4C E1 C7  JMP $C7E1                       A:00 X:FF Y:9B P:A5 SP:FF
C7E1  20 ED F4  JSR $F4ED                       A:00 X:FF Y:9B P:A5 SP:FF
F4ED  A5 18     LDA $18 = 6B                    A:00 X:FF Y:9B P:A5 SP:FD
F4EF  29 02     AND #$02                        A:6B X:FF Y:9B P:25 SP:FD
F4F1  85 00     STA $00 = 02                    A:02 X:FF Y:9B P:25 SP:FD
F4F3  A5 19     LDA $19 = 7F                    A:02 X:FF Y:9B P:25 SP:FD
F4F5  29 02     AND #$02                        A:7F X:FF Y:9B P:25 SP:FD
F4F7  45 00     EOR $00 = 02                    A:02 X:FF Y:9B P:25 SP:FD
F4F9  18        CLC                             A:00 X:FF Y:9B P:27 SP:FD
F4FA  F0 01     BEQ $F4FD                       A:00 X:FF Y:9B P:26 SP:FD
F4FD  66 18     ROR $18 = 6B                    A:00 X:FF Y:9B P:26 SP:FD
F4FF  66 19     ROR $19 = 7F                    A:00 X:FF Y:9B P:25 SP:FD
F501  66 1A     ROR $1A = A9                    A:00 X:FF Y:9B P:A5 SP:FD
F503  66 1B     ROR $1B = 56                    A:00 X:FF Y:9B P:A5 SP:FD
F505  66 1C     ROR $1C = 04                    A:00 X:FF Y:9B P:A4 SP:FD
F507  66 1D     ROR $1D = A8                    A:00 X:FF Y:9B P:24 SP:FD
F509  66 1E     ROR $1E = A1                    A:00 X:FF Y:9B P:24 SP:FD
F50B  66 1F     ROR $1F = F0                    A:00 X:FF Y:9B P:25 SP:FD
F50D  60        RTS                             A:00 X:FF Y:9B P:A4 SP:FD
C7E4  4C E1 C7  JMP $C7E1                       A:00 X:FF Y:9B P:A4 SP:FF
C7E1  20 ED F4  JSR $F4ED                       A:00 X:FF Y:9B P:A4 SP:FF
F4ED  A5 18     LDA $18 = 35                    A:00 X:FF Y:9B P:A4 SP:FD
F4EF  29 02     AND #$02                        A:35 X:FF Y:9B P:24 SP:FD
F4F1  85 00     STA $00 = 02                    A:00 X:FF Y:9B P:26 SP:FD
F4F3  A5 19     LDA $19 = BF                    A:00 X:FF Y:9B P:26 SP:FD
F4F5  29 02     AND #$02                        A:BF X:FF Y:9B P:A4 SP:FD
F4F7  45 00     EOR $00 = 00                    A:02 X:FF Y:9B P:24 SP:FD
F4F9  18        CLC                             A:02 X:FF Y:9B P:24 SP:FD
F4FA  F0 01     BEQ $F4FD                       A:02 X:FF Y:9B P:24 SP:FD
F4FC  38        SEC                             A:02 X:FF Y:9B P:24 SP:FD
F4FD  66 18     ROR $18 = 35                    A:02 X:FF Y:9B P:25 SP:FD
F4FF  66 19     ROR $19 = BF                    A:02 X:FF Y:9B P:A5 SP:FD
F501  66 1A     ROR $1A = D4                    A:02 X:FF Y:9B P:A5 SP:FD
F503  66 1B     ROR $1B = AB                    A:02 X:FF Y:9B P:A4 SP:FD
F505  66 1C     ROR $1C = 02                    A:02 X:FF Y:9B P:25 SP:FD
F507  66 1D     ROR $1D = 54                    A:02 X:FF Y:9B P:A4 SP:FD
F509  66 1E     ROR $1E = 50                    A:02 X:FF Y:9B P:24 SP:FD
F50B  66 1F     ROR $1F = F8                    A:02 X:FF Y:9B P:24 SP:FD
F50D  60        RTS                             A:02 X:FF Y:9B P:24 SP:FD
C7E4  4C E1 C7  JMP $C7E1                       A:02 X:FF Y:9B P:24 SP:FF
C7E1  20 ED F4  JSR $F4ED                       A:02 X:FF Y:9B P:24 SP:FF
F4ED  A5 18     LDA $18 = 9A                    A:02 X:FF Y:9B P:24 SP:FD
F4EF  29 02     AND #$02                        A:9A X:FF Y:9B P:A4 SP:FD
F4F1  85 00     STA $00 = 00                    A:02 X:FF Y:9B P:24 SP:FD
F4F3  A5 19     LDA $19 = DF                    A:02 X:FF Y:9B P:24 SP:FD
F4F5  29 02     AND #$02                        A:DF X:FF Y:9B P:A4 SP:FD
F4F7  45 00     EOR $00 = 02                    A:02 X:FF Y:9B P:24 SP:FD
F4F9  18        CLC                             A:00 X:FF Y:9B P:26 SP:FD
F4FA  F0 01     BEQ $F4FD                       A:00 X:FF Y:9B P:26 SP:FD
F4FD  66 18     ROR $18 = 9A                    A:00 X:FF Y:9B P:26 SP:FD
F4FF  66 19     ROR $19 = DF                    A:00 X:FF Y:9B P:24 SP:FD
F501  66 1A     ROR $1A = EA                    A:00 X:FF Y:9B P:25 SP:FD
F503  66 1B     ROR $1B = 55                    A:00 X:FF Y:9B P:A4 SP:FD
F505  66 1C     ROR $1C = 81                    A:00 X:FF Y:9B P:25 SP:FD
F507  66 1D     ROR $1D = 2A                    A:00 X:FF Y:9B P:A5 SP:FD
F509  66 1E     ROR $1E = 28                    A:00 X:FF Y:9B P:A4 SP:FD
F50B  66 1F     ROR $1F = 7C                    A:00 X:FF Y:9B P:24 SP:FD
F50D  60        RTS                             A:00 X:FF Y:9B P:24 SP:FD
C7E4  4C E1 C7  JMP $C7E1                       A:00 X:FF Y:9B P:24 SP:FF
C7E1  20 ED F4  JSR $F4ED                       A:00 X:FF Y:9B P:24 SP:FF
F4ED  A5 18     LDA $18 = 4D                    A:00 X:FF Y:9B P:24 SP:FD
F4EF  29 02     AND #$02                        A:4D X:FF Y:9B P:24 SP:FD
F4F1  85 00     STA $00 = 02                    A:00 X:FF Y:9B P:26 SP:FD
F4F3  A5 19     LDA $19 = 6F                    A:00 X:FF Y:9B P:26 SP:FD
F4F5  29 02     AND #$02                        A:6F X:FF Y:9B P:24 SP:FD
F4F7  45 00     EOR $00 = 00                    A:02 X:FF Y:9B P:24 SP:FD
F4F9  18        CLC                             A:02 X:FF Y:9B P:24 SP:FD
F4FA  F0 01     BEQ $F4FD                       A:02 X:FF Y:9B P:24 SP:FD
F4FC  38        SEC                             A:02 X:FF Y:9B P:24 SP:FD
F4FD  66 18     ROR $18 = 4D                    A:02 X:FF Y:9B P:25 SP:FD
F4FF  66 19     ROR $19 = 6F                    A:02 X:FF Y:9B P:A5 SP:FD
F501  66 1A     ROR $1A = F5                    A:02 X:FF Y:9B P:A5 SP:FD
F503  66 1B     ROR $1B = 2A                    A:02 X:FF Y:9B P:A5 SP:FD
F505  66 1C     ROR $1C = C0                    A:02 X:FF Y:9B P:A4 SP:FD
F507  66 1D     ROR $1D = 95                    A:02 X:FF Y:9B P:24 SP:FD
F509  66 1E     ROR $1E = 14                    A:02 X:FF Y:9B P:25 SP:FD
F50B  66 1F     ROR $1F = 3E                    A:02 X:FF Y:9B P:A4 SP:FD
F50D  60        RTS                             A:02 X:FF Y:9B P:24 SP:FD
C7E4  4C E1 C7  JMP $C7E1                       A:02 X:FF Y:9B P:24 SP:FF
C7E1  20 ED F4  JSR $F4ED                       A:02 X:FF Y:9B P:24 SP:FF
F4ED  A5 18     LDA $18 = A6                    A:02 X:FF Y:9B P:24 SP:FD
F4EF  29 02     AND #$02                        A:A6 X:FF Y:9B P:A4 SP:FD
F4F1  85 00     STA $00 = 00                    A:02 X:FF Y:9B P:24 SP:FD
F4F3  A5 19     LDA $19 = B7                    A:02 X:FF Y:9B P:24 SP:FD
F4F5  29 02     AND #$02                        A:B7 X:FF Y:9B P:A4 SP:FD
F4F7  45 00     EOR $00 = 02                    A:02 X:FF Y:9B P:24 SP:FD
F4F9  18        CLC                             A:00 X:FF Y:9B P:26 SP:FD
F4FA  F0 01     BEQ $F4FD                       A:00 X:FF Y:9B P:26 SP:FD
F4FD  66 18     ROR $18 = A6                    A:00 X:FF Y:9B P:26 SP:FD
F4FF  66 19     ROR $19 = B7                    A:00 X:FF Y:9B P:24 SP:FD
F501  66 1A     ROR $1A = FA                    A:00 X:FF Y:9B P:25 SP:FD
F503  66 1B     ROR $1B = 95                    A:00 X:FF Y:9B P:A4 SP:FD
F505  66 1C     ROR $1C = 60                    A:00 X:FF Y:9B P:25 SP:FD
F507  66 1D     ROR $1D = 4A                    A:00 X:FF Y:9B P:A4 SP:FD
F509  66 1E     ROR $1E = 8A                    A:00 X:FF Y:9B P:24 SP:FD
F50B  66 1F     ROR $1F = 1F                    A:00 X:FF Y:9B P:24 SP:FD
F50D  60        RTS                             A:00 X:FF Y:9B P:25 SP:FD
C7E4  4C E1 C7  JMP $C7E1                       A:00 X:FF Y:9B P:25 SP:FF
C85F  48        PHA                             A:00 X:FF Y:9B P:25 SP:FC
C860  A5 10     LDA $10 = 90                    A:00 X:FF Y:9B P:25 SP:FB
C862  29 7F     AND #$7F                        A:90 X:FF Y:9B P:A5 SP:FB
C864  8D 00 20  STA $2000 = 90                  A:10 X:FF Y:9B P:25 SP:FB
C867  85 10     STA $10 = 90                    A:10 X:FF Y:9B P:25 SP:FB
C869  A9 00     LDA #$00                        A:10 X:FF Y:9B P:25 SP:FB
C86B  8D 03 20  STA $2003 = 00                  A:00 X:FF Y:9B P:27 SP:FB
C86E  A9 02     LDA #$02                        A:00 X:FF Y:9B P:27 SP:FB
C870  8D 14 40  STA $4014 = 00                  A:02 X:FF Y:9B P:25 SP:FB
C873  A9 31     LDA #$31                        A:02 X:FF Y:9B P:25 SP:FB
C875  85 00     STA $00 = 02                    A:31 X:FF Y:9B P:25 SP:FB
C877  A9 03     LDA #$03                        A:31 X:FF Y:9B P:25 SP:FB
C879  85 01     STA $01 = 03                    A:03 X:FF Y:9B P:25 SP:FB
C87B  20 28 F2  JSR $F228                       A:03 X:FF Y:9B P:25 SP:FB
F228  AE 02 20  LDX $2002 = 80                  A:03 X:FF Y:9B P:25 SP:F9
F22B  A0 00     LDY #$00                        A:03 X:80 Y:9B P:A5 SP:F9
F22D  B1 00     LDA ($00),Y = 0331 @ 0331 = 00  A:03 X:80 Y:00 P:27 SP:F9
F22F  D0 BB     BNE $F1EC                       A:00 X:80 Y:00 P:27 SP:F9
F231  A5 12     LDA $12 = 00                    A:00 X:80 Y:00 P:27 SP:F9
F233  8D 05 20  STA $2005 = 00                  A:00 X:80 Y:00 P:27 SP:F9
F236  A5 13     LDA $13 = 00                    A:00 X:80 Y:00 P:27 SP:F9
F238  8D 05 20  STA $2005 = 00                  A:00 X:80 Y:00 P:27 SP:F9
F23B  60        RTS                             A:00 X:80 Y:00 P:27 SP:F9
C87E  A9 00     LDA #$00                        A:00 X:80 Y:00 P:27 SP:FB
C880  8D 30 03  STA $0330 = 00                  A:00 X:80 Y:00 P:27 SP:FB
C883  8D 31 03  STA $0331 = 00                  A:00 X:80 Y:00 P:27 SP:FB
C886  20 0E F5  JSR $F50E                       A:00 X:80 Y:00 P:27 SP:FB
F50E  A9 01     LDA #$01                        A:00 X:80 Y:00 P:27 SP:F9
F510  8D 16 40  STA $4016 = 00                  A:01 X:80 Y:00 P:25 SP:F9
F513  A2 00     LDX #$00                        A:01 X:80 Y:00 P:25 SP:F9
F515  A9 00     LDA #$00                        A:01 X:00 Y:00 P:27 SP:F9
F517  8D 16 40  STA $4016 = 01                  A:00 X:00 Y:00 P:27 SP:F9
F51A  20 22 F5  JSR $F522                       A:00 X:00 Y:00 P:27 SP:F9
F522  A0 08     LDY #$08                        A:00 X:00 Y:00 P:27 SP:F7
F524  48        PHA                             A:00 X:00 Y:08 P:25 SP:F7
F525  BD 16 40  LDA $4016,X @ 4016 = 00         A:00 X:00 Y:08 P:25 SP:F6
F528  85 00     STA $00 = 31                    A:00 X:00 Y:08 P:27 SP:F6
F52A  4A        LSR A                           A:00 X:00 Y:08 P:27 SP:F6
F52B  05 00     ORA $00 = 00                    A:00 X:00 Y:08 P:26 SP:F6
F52D  4A        LSR A                           A:00 X:00 Y:08 P:26 SP:F6
F52E  68        PLA                             A:00 X:00 Y:08 P:26 SP:F6
F52F  2A        ROL A                           A:00 X:00 Y:08 P:26 SP:F7
F530  88        DEY                             A:00 X:00 Y:08 P:26 SP:F7
F531  D0 F1     BNE $F524                       A:00 X:00 Y:07 P:24 SP:F7
F524  48        PHA                             A:00 X:00 Y:07 P:24 SP:F7
F525  BD 16 40  LDA $4016,X @ 4016 = 00         A:00 X:00 Y:07 P:24 SP:F6
F528  85 00     STA $00 = 00                    A:00 X:00 Y:07 P:26 SP:F6
F52A  4A        LSR A                           A:00 X:00 Y:07 P:26 SP:F6
F52B  05 00     ORA $00 = 00                    A:00 X:00 Y:07 P:26 SP:F6
F52D  4A        LSR A                           A:00 X:00 Y:07 P:26 SP:F6
F52E  68        PLA                             A:00 X:00 Y:07 P:26 SP:F6
F52F  2A        ROL A                           A:00 X:00 Y:07 P:26 SP:F7
F530  88        DEY                             A:00 X:00 Y:07 P:26 SP:F7
F531  D0 F1     BNE $F524                       A:00 X:00 Y:06 P:24 SP:F7
F524  48        PHA                             A:00 X:00 Y:06 P:24 SP:F7
F525  BD 16 40  LDA $4016,X @ 4016 = 00         A:00 X:00 Y:06 P:24 SP:F6
F528  85 00     STA $00 = 00                    A:00 X:00 Y:06 P:26 SP:F6
F52A  4A        LSR A                           A:00 X:00 Y:06 P:26 SP:F6
F52B  05 00     ORA $00 = 00                    A:00 X:00 Y:06 P:26 SP:F6
F52D  4A        LSR A                           A:00 X:00 Y:06 P:26 SP:F6
F52E  68        PLA                             A:00 X:00 Y:06 P:26 SP:F6
F52F  2A        ROL A                           A:00 X:00 Y:06 P:26 SP:F7
F530  88        DEY                             A:00 X:00 Y:06 P:26 SP:F7
F531  D0 F1     BNE $F524                       A:00 X:00 Y:05 P:24 SP:F7
F524  48        PHA                             A:00 X:00 Y:05 P:24 SP:F7
F525  BD 16 40  LDA $4016,X @ 4016 = 00         A:00 X:00 Y:05 P:24 SP:F6
F528  85 00     STA $00 = 00                    A:00 X:00 Y:05 P:26 SP:F6
F52A  4A        LSR A                           A:00 X:00 Y:05 P:26 SP:F6
F52B  05 00     ORA $00 = 00                    A:00 X:00 Y:05 P:26 SP:F6
F52D  4A        LSR A                           A:00 X:00 Y:05 P:26 SP:F6
F52E  68        PLA                             A:00 X:00 Y:05 P:26 SP:F6
F52F  2A        ROL A                           A:00 X:00 Y:05 P:26 SP:F7
F530  88        DEY                             A:00 X:00 Y:05 P:26 SP:F7
F531  D0 F1     BNE $F524                       A:00 X:00 Y:04 P:24 SP:F7
F524  48        PHA                             A:00 X:00 Y:04 P:24 SP:F7
F525  BD 16 40  LDA $4016,X @ 4016 = 00         A:00 X:00 Y:04 P:24 SP:F6
F528  85 00     STA $00 = 00                    A:00 X:00 Y:04 P:26 SP:F6
F52A  4A        LSR A                           A:00 X:00 Y:04 P:26 SP:F6
F52B  05 00     ORA $00 = 00                    A:00 X:00 Y:04 P:26 SP:F6
F52D  4A        LSR A                           A:00 X:00 Y:04 P:26 SP:F6
F52E  68        PLA                             A:00 X:00 Y:04 P:26 SP:F6
F52F  2A        ROL A                           A:00 X:00 Y:04 P:26 SP:F7
F530  88        DEY                             A:00 X:00 Y:04 P:26 SP:F7
F531  D0 F1     BNE $F524                       A:00 X:00 Y:03 P:24 SP:F7
F524  48        PHA                             A:00 X:00 Y:03 P:24 SP:F7
F525  BD 16 40  LDA $4016,X @ 4016 = 00         A:00 X:00 Y:03 P:24 SP:F6
F528  85 00     STA $00 = 00                    A:00 X:00 Y:03 P:26 SP:F6
F52A  4A        LSR A                           A:00 X:00 Y:03 P:26 SP:F6
F52B  05 00     ORA $00 = 00                    A:00 X:00 Y:03 P:26 SP:F6
F52D  4A        LSR A                           A:00 X:00 Y:03 P:26 SP:F6
F52E  68        PLA                             A:00 X:00 Y:03 P:26 SP:F6
F52F  2A        ROL A                           A:00 X:00 Y:03 P:26 SP:F7
F530  88        DEY                             A:00 X:00 Y:03 P:26 SP:F7
F531  D0 F1     BNE $F524                       A:00 X:00 Y:02 P:24 SP:F7
F524  48        PHA                             A:00 X:00 Y:02 P:24 SP:F7
F525  BD 16 40  LDA $4016,X @ 4016 = 00         A:00 X:00 Y:02 P:24 SP:F6
F528  85 00     STA $00 = 00                    A:00 X:00 Y:02 P:26 SP:F6
F52A  4A        LSR A                           A:00 X:00 Y:02 P:26 SP:F6
F52B  05 00     ORA $00 = 00                    A:00 X:00 Y:02 P:26 SP:F6
F52D  4A        LSR A                           A:00 X:00 Y:02 P:26 SP:F6
F52E  68        PLA                             A:00 X:00 Y:02 P:26 SP:F6
F52F  2A        ROL A                           A:00 X:00 Y:02 P:26 SP:F7
F530  88        DEY                             A:00 X:00 Y:02 P:26 SP:F7
F531  D0 F1     BNE $F524                       A:00 X:00 Y:01 P:24 SP:F7
F524  48        PHA                             A:00 X:00 Y:01 P:24 SP:F7
F525  BD 16 40  LDA $4016,X @ 4016 = 00         A:00 X:00 Y:01 P:24 SP:F6
F528  85 00     STA $00 = 00                    A:00 X:00 Y:01 P:26 SP:F6
F52A  4A        LSR A                           A:00 X:00 Y:01 P:26 SP:F6
F52B  05 00     ORA $00 = 00                    A:00 X:00 Y:01 P:26 SP:F6
F52D  4A        LSR A                           A:00 X:00 Y:01 P:26 SP:F6
F52E  68        PLA                             A:00 X:00 Y:01 P:26 SP:F6
F52F  2A        ROL A                           A:00 X:00 Y:01 P:26 SP:F7
F530  88        DEY                             A:00 X:00 Y:01 P:26 SP:F7
F531  D0 F1     BNE $F524                       A:00 X:00 Y:00 P:26 SP:F7
F533  86 00     STX $00 = 00                    A:00 X:00 Y:00 P:26 SP:F7
F535  06 00     ASL $00 = 00                    A:00 X:00 Y:00 P:26 SP:F7
F537  A6 00     LDX $00 = 00                    A:00 X:00 Y:00 P:26 SP:F7
F539  B4 14     LDY $14,X @ 14 = 00             A:00 X:00 Y:00 P:26 SP:F7
F53B  84 00     STY $00 = 00                    A:00 X:00 Y:00 P:26 SP:F7
F53D  95 14     STA $14,X @ 14 = 00             A:00 X:00 Y:00 P:26 SP:F7
F53F  29 FF     AND #$FF                        A:00 X:00 Y:00 P:26 SP:F7
F541  10 06     BPL $F549                       A:00 X:00 Y:00 P:26 SP:F7
F549  B4 15     LDY $15,X @ 15 = 00             A:00 X:00 Y:00 P:26 SP:F7
F54B  95 15     STA $15,X @ 15 = 00             A:00 X:00 Y:00 P:26 SP:F7
F54D  98        TYA                             A:00 X:00 Y:00 P:26 SP:F7
F54E  29 0F     AND #$0F                        A:00 X:00 Y:00 P:26 SP:F7
F550  35 15     AND $15,X @ 15 = 00             A:00 X:00 Y:00 P:26 SP:F7
F552  F0 06     BEQ $F55A                       A:00 X:00 Y:00 P:26 SP:F7
F55A  60        RTS                             A:00 X:00 Y:00 P:26 SP:F7
F51D  E8        INX                             A:00 X:00 Y:00 P:26 SP:F9
F51E  20 22 F5  JSR $F522                       A:00 X:01 Y:00 P:24 SP:F9
F522  A0 08     LDY #$08                        A:00 X:01 Y:00 P:24 SP:F7
F524  48        PHA                             A:00 X:01 Y:08 P:24 SP:F7
F525  BD 16 40  LDA $4016,X @ 4017 = C0         A:00 X:01 Y:08 P:24 SP:F6
F528  85 00     STA $00 = 00                    A:C0 X:01 Y:08 P:A4 SP:F6
F52A  4A        LSR A                           A:C0 X:01 Y:08 P:A4 SP:F6
F52B  05 00     ORA $00 = C0                    A:60 X:01 Y:08 P:24 SP:F6
F52D  4A        LSR A                           A:E0 X:01 Y:08 P:A4 SP:F6
F52E  68        PLA                             A:70 X:01 Y:08 P:24 SP:F6
F52F  2A        ROL A                           A:00 X:01 Y:08 P:26 SP:F7
F530  88        DEY                             A:00 X:01 Y:08 P:26 SP:F7
F531  D0 F1     BNE $F524                       A:00 X:01 Y:07 P:24 SP:F7
F524  48        PHA                             A:00 X:01 Y:07 P:24 SP:F7
F525  BD 16 40  LDA $4016,X @ 4017 = C0         A:00 X:01 Y:07 P:24 SP:F6
F528  85 00     STA $00 = C0                    A:C0 X:01 Y:07 P:A4 SP:F6
F52A  4A        LSR A                           A:C0 X:01 Y:07 P:A4 SP:F6
F52B  05 00     ORA $00 = C0                    A:60 X:01 Y:07 P:24 SP:F6
F52D  4A        LSR A                           A:E0 X:01 Y:07 P:A4 SP:F6
F52E  68        PLA                             A:70 X:01 Y:07 P:24 SP:F6
F52F  2A        ROL A                           A:00 X:01 Y:07 P:26 SP:F7
F530  88        DEY                             A:00 X:01 Y:07 P:26 SP:F7
F531  D0 F1     BNE $F524                       A:00 X:01 Y:06 P:24 SP:F7
F524  48        PHA                             A:00 X:01 Y:06 P:24 SP:F7
F525  BD 16 40  LDA $4016,X @ 4017 = C0         A:00 X:01 Y:06 P:24 SP:F6
F528  85 00     STA $00 = C0                    A:C0 X:01 Y:06 P:A4 SP:F6
F52A  4A        LSR A                           A:C0 X:01 Y:06 P:A4 SP:F6
F52B  05 00     ORA $00 = C0                    A:60 X:01 Y:06 P:24 SP:F6
F52D  4A        LSR A                           A:E0 X:01 Y:06 P:A4 SP:F6
F52E  68        PLA                             A:70 X:01 Y:06 P:24 SP:F6
F52F  2A        ROL A                           A:00 X:01 Y:06 P:26 SP:F7
F530  88        DEY                             A:00 X:01 Y:06 P:26 SP:F7
F531  D0 F1     BNE $F524                       A:00 X:01 Y:05 P:24 SP:F7
F524  48        PHA                             A:00 X:01 Y:05 P:24 SP:F7
F525  BD 16 40  LDA $4016,X @ 4017 = C0         A:00 X:01 Y:05 P:24 SP:F6
F528  85 00     STA $00 = C0                    A:C0 X:01 Y:05 P:A4 SP:F6
F52A  4A        LSR A                           A:C0 X:01 Y:05 P:A4 SP:F6
F52B  05 00     ORA $00 = C0                    A:60 X:01 Y:05 P:24 SP:F6
F52D  4A        LSR A                           A:E0 X:01 Y:05 P:A4 SP:F6
F52E  68        PLA                             A:70 X:01 Y:05 P:24 SP:F6
F52F  2A        ROL A                           A:00 X:01 Y:05 P:26 SP:F7
F530  88        DEY                             A:00 X:01 Y:05 P:26 SP:F7
F531  D0 F1     BNE $F524                       A:00 X:01 Y:04 P:24 SP:F7
F524  48        PHA                             A:00 X:01 Y:04 P:24 SP:F7
F525  BD 16 40  LDA $4016,X @ 4017 = C0         A:00 X:01 Y:04 P:24 SP:F6
F528  85 00     STA $00 = C0                    A:C0 X:01 Y:04 P:A4 SP:F6
F52A  4A        LSR A                           A:C0 X:01 Y:04 P:A4 SP:F6
F52B  05 00     ORA $00 = C0                    A:60 X:01 Y:04 P:24 SP:F6
F52D  4A        LSR A                           A:E0 X:01 Y:04 P:A4 SP:F6
F52E  68        PLA                             A:70 X:01 Y:04 P:24 SP:F6
F52F  2A        ROL A                           A:00 X:01 Y:04 P:26 SP:F7
F530  88        DEY                             A:00 X:01 Y:04 P:26 SP:F7
F531  D0 F1     BNE $F524                       A:00 X:01 Y:03 P:24 SP:F7
F524  48        PHA                             A:00 X:01 Y:03 P:24 SP:F7
F525  BD 16 40  LDA $4016,X @ 4017 = C0         A:00 X:01 Y:03 P:24 SP:F6
F528  85 00     STA $00 = C0                    A:C0 X:01 Y:03 P:A4 SP:F6
F52A  4A        LSR A                           A:C0 X:01 Y:03 P:A4 SP:F6
F52B  05 00     ORA $00 = C0                    A:60 X:01 Y:03 P:24 SP:F6
F52D  4A        LSR A                           A:E0 X:01 Y:03 P:A4 SP:F6
F52E  68        PLA                             A:70 X:01 Y:03 P:24 SP:F6
F52F  2A        ROL A                           A:00 X:01 Y:03 P:26 SP:F7
F530  88        DEY                             A:00 X:01 Y:03 P:26 SP:F7
F531  D0 F1     BNE $F524                       A:00 X:01 Y:02 P:24 SP:F7
F524  48        PHA                             A:00 X:01 Y:02 P:24 SP:F7
F525  BD 16 40  LDA $4016,X @ 4017 = C0         A:00 X:01 Y:02 P:24 SP:F6
F528  85 00     STA $00 = C0                    A:C0 X:01 Y:02 P:A4 SP:F6
F52A  4A        LSR A                           A:C0 X:01 Y:02 P:A4 SP:F6
F52B  05 00     ORA $00 = C0                    A:60 X:01 Y:02 P:24 SP:F6
F52D  4A        LSR A                           A:E0 X:01 Y:02 P:A4 SP:F6
F52E  68        PLA                             A:70 X:01 Y:02 P:24 SP:F6
F52F  2A        ROL A                           A:00 X:01 Y:02 P:26 SP:F7
F530  88        DEY                             A:00 X:01 Y:02 P:26 SP:F7
F531  D0 F1     BNE $F524                       A:00 X:01 Y:01 P:24 SP:F7
F524  48        PHA                             A:00 X:01 Y:01 P:24 SP:F7
F525  BD 16 40  LDA $4016,X @ 4017 = C0         A:00 X:01 Y:01 P:24 SP:F6
F528  85 00     STA $00 = C0                    A:C0 X:01 Y:01 P:A4 SP:F6
F52A  4A        LSR A                           A:C0 X:01 Y:01 P:A4 SP:F6
F52B  05 00     ORA $00 = C0                    A:60 X:01 Y:01 P:24 SP:F6
F52D  4A        LSR A                           A:E0 X:01 Y:01 P:A4 SP:F6
F52E  68        PLA                             A:70 X:01 Y:01 P:24 SP:F6
F52F  2A        ROL A                           A:00 X:01 Y:01 P:26 SP:F7
F530  88        DEY                             A:00 X:01 Y:01 P:26 SP:F7
F531  D0 F1     BNE $F524                       A:00 X:01 Y:00 P:26 SP:F7
F533  86 00     STX $00 = C0                    A:00 X:01 Y:00 P:26 SP:F7
F535  06 00     ASL $00 = 01                    A:00 X:01 Y:00 P:26 SP:F7
F537  A6 00     LDX $00 = 02                    A:00 X:01 Y:00 P:24 SP:F7
F539  B4 14     LDY $14,X @ 16 = 00             A:00 X:02 Y:00 P:24 SP:F7
F53B  84 00     STY $00 = 02                    A:00 X:02 Y:00 P:26 SP:F7
F53D  95 14     STA $14,X @ 16 = 00             A:00 X:02 Y:00 P:26 SP:F7
F53F  29 FF     AND #$FF                        A:00 X:02 Y:00 P:26 SP:F7
F541  10 06     BPL $F549                       A:00 X:02 Y:00 P:26 SP:F7
F549  B4 15     LDY $15,X @ 17 = 00             A:00 X:02 Y:00 P:26 SP:F7
F54B  95 15     STA $15,X @ 17 = 00             A:00 X:02 Y:00 P:26 SP:F7
F54D  98        TYA                             A:00 X:02 Y:00 P:26 SP:F7
F54E  29 0F     AND #$0F                        A:00 X:02 Y:00 P:26 SP:F7
F550  35 15     AND $15,X @ 17 = 00             A:00 X:02 Y:00 P:26 SP:F7
F552  F0 06     BEQ $F55A                       A:00 X:02 Y:00 P:26 SP:F7
F55A  60        RTS                             A:00 X:02 Y:00 P:26 SP:F7
F521  60        RTS                             A:00 X:02 Y:00 P:26 SP:F9
C889  A5 11     LDA $11 = 06                    A:00 X:02 Y:00 P:26 SP:FB
C88B  49 18     EOR #$18                        A:06 X:02 Y:00 P:24 SP:FB
C88D  8D 01 20  STA $2001 = 1E                  A:1E X:02 Y:00 P:24 SP:FB
C890  20 48 FA  JSR $FA48                       A:1E X:02 Y:00 P:24 SP:FB
FA48  A9 C0     LDA #$C0                        A:1E X:02 Y:00 P:24 SP:F9
FA4A  8D 17 40  STA $4017 = C0                  A:C0 X:02 Y:00 P:A4 SP:F9
FA4D  20 F2 FB  JSR $FBF2                       A:C0 X:02 Y:00 P:A4 SP:F9
FBF2  A4 FF     LDY $FF = 00                    A:C0 X:02 Y:00 P:A4 SP:F7
FBF4  A5 F0     LDA $F0 = 00                    A:C0 X:02 Y:00 P:26 SP:F7
FBF6  4A        LSR A                           A:00 X:02 Y:00 P:26 SP:F7
FBF7  B0 90     BCS $FB89                       A:00 X:02 Y:00 P:26 SP:F7
FBF9  46 FF     LSR $FF = 00                    A:00 X:02 Y:00 P:26 SP:F7
FBFB  B0 81     BCS $FB7E                       A:00 X:02 Y:00 P:26 SP:F7
FBFD  A6 FA     LDX $FA = 46                    A:00 X:02 Y:00 P:26 SP:F7
FBFF  D0 4A     BNE $FC4B                       A:00 X:46 Y:00 P:24 SP:F7
FC4B  A9 00     LDA #$00                        A:00 X:46 Y:00 P:24 SP:F7
FC4D  85 F0     STA $F0 = 00                    A:00 X:46 Y:00 P:26 SP:F7
FC4F  F0 C5     BEQ $FC16                       A:00 X:46 Y:00 P:26 SP:F7
FC16  4C 90 FC  JMP $FC90                       A:00 X:46 Y:00 P:26 SP:F7
FC90  A5 F3     LDA $F3 = 06                    A:00 X:46 Y:00 P:26 SP:F7
FC92  D0 09     BNE $FC9D                       A:06 X:46 Y:00 P:24 SP:F7
FC9D  A5 FC     LDA $FC = 00                    A:06 X:46 Y:00 P:24 SP:F7
FC9F  D0 6A     BNE $FD0B                       A:00 X:46 Y:00 P:26 SP:F7
FCA1  A5 F9     LDA $F9 = 25                    A:00 X:46 Y:00 P:26 SP:F7
FCA3  D0 66     BNE $FD0B                       A:25 X:46 Y:00 P:24 SP:F7
FD0B  A6 FA     LDX $FA = 46                    A:25 X:46 Y:00 P:24 SP:F7
FD0D  D0 49     BNE $FD58                       A:25 X:46 Y:00 P:24 SP:F7
FD58  A5 FD     LDA $FD = 00                    A:25 X:46 Y:00 P:24 SP:F7
FD5A  D0 06     BNE $FD62                       A:00 X:46 Y:00 P:26 SP:F7
FD5C  AD 02 01  LDA $0102 = 01                  A:00 X:46 Y:00 P:26 SP:F7
FD5F  D0 3A     BNE $FD9B                       A:01 X:46 Y:00 P:24 SP:F7
FD9B  A4 FA     LDY $FA = 46                    A:01 X:46 Y:00 P:24 SP:F7
FD9D  F0 39     BEQ $FDD8                       A:01 X:46 Y:46 P:24 SP:F7
FD9F  CE 96 06  DEC $0696 = 1A                  A:01 X:46 Y:46 P:24 SP:F7
FDA2  D0 34     BNE $FDD8                       A:01 X:46 Y:46 P:24 SP:F7
FDD8  A5 FB     LDA $FB = 07                    A:01 X:46 Y:46 P:24 SP:F7
FDDA  F0 55     BEQ $FE31                       A:07 X:46 Y:46 P:24 SP:F7
FDDC  CE 95 06  DEC $0695 = 0D                  A:07 X:46 Y:46 P:24 SP:F7
FDDF  D0 50     BNE $FE31                       A:07 X:46 Y:46 P:24 SP:F7
FE31  A4 F9     LDY $F9 = 25                    A:07 X:46 Y:46 P:24 SP:F7
FE33  F0 23     BEQ $FE58                       A:07 X:46 Y:25 P:24 SP:F7
FE35  CE 98 06  DEC $0698 = 1A                  A:07 X:46 Y:25 P:24 SP:F7
FE38  D0 1E     BNE $FE58                       A:07 X:46 Y:25 P:24 SP:F7
FE58  60        RTS                             A:07 X:46 Y:25 P:24 SP:F7
FA50  A2 00     LDX #$00                        A:07 X:46 Y:25 P:24 SP:F9
FA52  86 FF     STX $FF = 00                    A:07 X:00 Y:25 P:26 SP:F9
FA54  86 FE     STX $FE = 00                    A:07 X:00 Y:25 P:26 SP:F9
FA56  86 FD     STX $FD = 00                    A:07 X:00 Y:25 P:26 SP:F9
FA58  AD F0 06  LDA $06F0 = 9E                  A:07 X:00 Y:25 P:26 SP:F9
FA5B  C9 90     CMP #$90                        A:9E X:00 Y:25 P:A4 SP:F9
FA5D  B0 05     BCS $FA64                       A:9E X:00 Y:25 P:25 SP:F9
FA64  C9 D8     CMP #$D8                        A:9E X:00 Y:25 P:25 SP:F9
FA66  90 03     BCC $FA6B                       A:9E X:00 Y:25 P:A4 SP:F9
FA6B  A8        TAY                             A:9E X:00 Y:25 P:A4 SP:F9
FA6C  4A        LSR A                           A:9E X:00 Y:9E P:A4 SP:F9
FA6D  4A        LSR A                           A:4F X:00 Y:9E P:24 SP:F9
FA6E  4A        LSR A                           A:27 X:00 Y:9E P:25 SP:F9
FA6F  4A        LSR A                           A:13 X:00 Y:9E P:25 SP:F9
FA70  4A        LSR A                           A:09 X:00 Y:9E P:25 SP:F9
FA71  4A        LSR A                           A:04 X:00 Y:9E P:25 SP:F9
FA72  85 00     STA $00 = 00                    A:02 X:00 Y:9E P:24 SP:F9
FA74  98        TYA                             A:02 X:00 Y:9E P:24 SP:F9
FA75  AE F1 06  LDX $06F1 = 00                  A:9E X:00 Y:9E P:A4 SP:F9
FA78  D0 05     BNE $FA7F                       A:9E X:00 Y:9E P:26 SP:F9
FA7A  38        SEC                             A:9E X:00 Y:9E P:26 SP:F9
FA7B  65 00     ADC $00 = 02                    A:9E X:00 Y:9E P:27 SP:F9
FA7D  D0 03     BNE $FA82                       A:A1 X:00 Y:9E P:E4 SP:F9
FA82  8D F0 06  STA $06F0 = 9E                  A:A1 X:00 Y:9E P:E4 SP:F9
FA85  60        RTS                             A:A1 X:00 Y:9E P:E4 SP:F9
C893  A5 4E     LDA $4E = 01                    A:A1 X:00 Y:9E P:E4 SP:FB
C895  D0 2A     BNE $C8C1                       A:01 X:00 Y:9E P:64 SP:FB
C8C1  A5 55     LDA $55 = 01                    A:01 X:00 Y:9E P:64 SP:FB
C8C3  D0 06     BNE $C8CB                       A:01 X:00 Y:9E P:64 SP:FB
C8CB  20 F3 C8  JSR $C8F3                       A:01 X:00 Y:9E P:64 SP:FB
C8F3  AD 02 01  LDA $0102 = 01                  A:01 X:00 Y:9E P:64 SP:F9
C8F6  D0 06     BNE $C8FE                       A:01 X:00 Y:9E P:64 SP:F9
C8FE  AD 18 05  LDA $0518 = 04                  A:01 X:00 Y:9E P:64 SP:F9
C901  D0 11     BNE $C914                       A:04 X:00 Y:9E P:64 SP:F9
C914  AD 10 05  LDA $0510 = 38                  A:04 X:00 Y:9E P:64 SP:F9
C917  D0 27     BNE $C940                       A:38 X:00 Y:9E P:64 SP:F9
C940  A5 15     LDA $15 = 00                    A:38 X:00 Y:9E P:64 SP:F9
C942  29 20     AND #$20                        A:00 X:00 Y:9E P:66 SP:F9
C944  D0 17     BNE $C95D                       A:00 X:00 Y:9E P:66 SP:F9
C946  A5 15     LDA $15 = 00                    A:00 X:00 Y:9E P:66 SP:F9
C948  29 10     AND #$10                        A:00 X:00 Y:9E P:66 SP:F9
C94A  D0 3E     BNE $C98A                       A:00 X:00 Y:9E P:66 SP:F9
C94C  A9 00     LDA #$00                        A:00 X:00 Y:9E P:66 SP:F9
C94E  8D 12 05  STA $0512 = 00                  A:00 X:00 Y:9E P:66 SP:F9
C951  A5 44     LDA $44 = 16                    A:00 X:00 Y:9E P:66 SP:F9
C953  D0 07     BNE $C95C                       A:16 X:00 Y:9E P:64 SP:F9
C95C  60        RTS                             A:16 X:00 Y:9E P:64 SP:F9
C8CE  20 AC F4  JSR $F4AC                       A:16 X:00 Y:9E P:64 SP:FB
F4AC  A2 09     LDX #$09                        A:16 X:00 Y:9E P:64 SP:F9
F4AE  C6 34     DEC $34 = 04                    A:16 X:09 Y:9E P:64 SP:F9
F4B0  10 06     BPL $F4B8                       A:16 X:09 Y:9E P:64 SP:F9
F4B8  B5 35     LDA $35,X @ 3E = 00             A:16 X:09 Y:9E P:64 SP:F9
F4BA  F0 02     BEQ $F4BE                       A:00 X:09 Y:9E P:66 SP:F9
F4BE  CA        DEX                             A:00 X:09 Y:9E P:66 SP:F9
F4BF  10 F7     BPL $F4B8                       A:00 X:08 Y:9E P:64 SP:F9
F4B8  B5 35     LDA $35,X @ 3D = 00             A:00 X:08 Y:9E P:64 SP:F9
F4BA  F0 02     BEQ $F4BE                       A:00 X:08 Y:9E P:66 SP:F9
F4BE  CA        DEX                             A:00 X:08 Y:9E P:66 SP:F9
F4BF  10 F7     BPL $F4B8                       A:00 X:07 Y:9E P:64 SP:F9
F4B8  B5 35     LDA $35,X @ 3C = 00             A:00 X:07 Y:9E P:64 SP:F9
F4BA  F0 02     BEQ $F4BE                       A:00 X:07 Y:9E P:66 SP:F9
F4BE  CA        DEX                             A:00 X:07 Y:9E P:66 SP:F9
F4BF  10 F7     BPL $F4B8                       A:00 X:06 Y:9E P:64 SP:F9
F4B8  B5 35     LDA $35,X @ 3B = 00             A:00 X:06 Y:9E P:64 SP:F9
F4BA  F0 02     BEQ $F4BE                       A:00 X:06 Y:9E P:66 SP:F9
F4BE  CA        DEX                             A:00 X:06 Y:9E P:66 SP:F9
F4BF  10 F7     BPL $F4B8                       A:00 X:05 Y:9E P:64 SP:F9
F4B8  B5 35     LDA $35,X @ 3A = 00             A:00 X:05 Y:9E P:64 SP:F9
F4BA  F0 02     BEQ $F4BE                       A:00 X:05 Y:9E P:66 SP:F9
F4BE  CA        DEX                             A:00 X:05 Y:9E P:66 SP:F9
F4BF  10 F7     BPL $F4B8                       A:00 X:04 Y:9E P:64 SP:F9
F4B8  B5 35     LDA $35,X @ 39 = 00             A:00 X:04 Y:9E P:64 SP:F9
F4BA  F0 02     BEQ $F4BE                       A:00 X:04 Y:9E P:66 SP:F9
F4BE  CA        DEX                             A:00 X:04 Y:9E P:66 SP:F9
F4BF  10 F7     BPL $F4B8                       A:00 X:03 Y:9E P:64 SP:F9
F4B8  B5 35     LDA $35,X @ 38 = 00             A:00 X:03 Y:9E P:64 SP:F9
F4BA  F0 02     BEQ $F4BE                       A:00 X:03 Y:9E P:66 SP:F9
F4BE  CA        DEX                             A:00 X:03 Y:9E P:66 SP:F9
F4BF  10 F7     BPL $F4B8                       A:00 X:02 Y:9E P:64 SP:F9
F4B8  B5 35     LDA $35,X @ 37 = 00             A:00 X:02 Y:9E P:64 SP:F9
F4BA  F0 02     BEQ $F4BE                       A:00 X:02 Y:9E P:66 SP:F9
F4BE  CA        DEX                             A:00 X:02 Y:9E P:66 SP:F9
F4BF  10 F7     BPL $F4B8                       A:00 X:01 Y:9E P:64 SP:F9
F4B8  B5 35     LDA $35,X @ 36 = 00             A:00 X:01 Y:9E P:64 SP:F9
F4BA  F0 02     BEQ $F4BE                       A:00 X:01 Y:9E P:66 SP:F9
F4BE  CA        DEX                             A:00 X:01 Y:9E P:66 SP:F9
F4BF  10 F7     BPL $F4B8                       A:00 X:00 Y:9E P:66 SP:F9
F4B8  B5 35     LDA $35,X @ 35 = 00             A:00 X:00 Y:9E P:66 SP:F9
F4BA  F0 02     BEQ $F4BE                       A:00 X:00 Y:9E P:66 SP:F9
F4BE  CA        DEX                             A:00 X:00 Y:9E P:66 SP:F9
F4BF  10 F7     BPL $F4B8                       A:00 X:FF Y:9E P:E4 SP:F9
F4C1  60        RTS                             A:00 X:FF Y:9E P:E4 SP:F9
C8D1  4C D7 C8  JMP $C8D7                       A:00 X:FF Y:9E P:E4 SP:FB
C8D7  AD 05 05  LDA $0505 = 00                  A:00 X:FF Y:9E P:E4 SP:FB
C8DA  C9 01     CMP #$01                        A:00 X:FF Y:9E P:66 SP:FB
C8DC  D0 0A     BNE $C8E8                       A:00 X:FF Y:9E P:E4 SP:FB
C8E8  A5 10     LDA $10 = 10                    A:00 X:FF Y:9E P:E4 SP:FB
C8EA  49 80     EOR #$80                        A:10 X:FF Y:9E P:64 SP:FB
C8EC  8D 00 20  STA $2000 = 10                  A:90 X:FF Y:9E P:E4 SP:FB
C8EF  85 10     STA $10 = 10                    A:90 X:FF Y:9E P:E4 SP:FB
C8F1  68        PLA                             A:90 X:FF Y:9E P:E4 SP:FB
C8F2  40        RTI                             A:00 X:FF Y:9E P:66 SP:FC
C7E1  20 ED F4  JSR $F4ED                       A:00 X:FF Y:9E P:25 SP:FF
F4ED  A5 18     LDA $18 = 53                    A:00 X:FF Y:9E P:25 SP:FD
F4EF  29 02     AND #$02                        A:53 X:FF Y:9E P:25 SP:FD
F4F1  85 00     STA $00 = 02                    A:02 X:FF Y:9E P:25 SP:FD
F4F3  A5 19     LDA $19 = 5B                    A:02 X:FF Y:9E P:25 SP:FD
F4F5  29 02     AND #$02                        A:5B X:FF Y:9E P:25 SP:FD
F4F7  45 00     EOR $00 = 02                    A:02 X:FF Y:9E P:25 SP:FD
F4F9  18        CLC                             A:00 X:FF Y:9E P:27 SP:FD
F4FA  F0 01     BEQ $F4FD                       A:00 X:FF Y:9E P:26 SP:FD
F4FD  66 18     ROR $18 = 53                    A:00 X:FF Y:9E P:26 SP:FD
F4FF  66 19     ROR $19 = 5B                    A:00 X:FF Y:9E P:25 SP:FD
F501  66 1A     ROR $1A = FD                    A:00 X:FF Y:9E P:A5 SP:FD
F503  66 1B     ROR $1B = 4A                    A:00 X:FF Y:9E P:A5 SP:FD
F505  66 1C     ROR $1C = B0                    A:00 X:FF Y:9E P:A4 SP:FD
F507  66 1D     ROR $1D = 25                    A:00 X:FF Y:9E P:24 SP:FD
F509  66 1E     ROR $1E = 45                    A:00 X:FF Y:9E P:25 SP:FD
F50B  66 1F     ROR $1F = 0F                    A:00 X:FF Y:9E P:A5 SP:FD
F50D  60        RTS                             A:00 X:FF Y:9E P:A5 SP:FD
C7E4  4C E1 C7  JMP $C7E1                       A:00 X:FF Y:9E P:A5 SP:FF
C7E1  20 ED F4  JSR $F4ED                       A:00 X:FF Y:9E P:A5 SP:FF
F4ED  A5 18     LDA $18 = 29                    A:00 X:FF Y:9E P:A5 SP:FD
F4EF  29 02     AND #$02                        A:29 X:FF Y:9E P:25 SP:FD
F4F1  85 00     STA $00 = 02                    A:00 X:FF Y:9E P:27 SP:FD
F4F3  A5 19     LDA $19 = AD                    A:00 X:FF Y:9E P:27 SP:FD
F4F5  29 02     AND #$02                        A:AD X:FF Y:9E P:A5 SP:FD
F4F7  45 00     EOR $00 = 00                    A:00 X:FF Y:9E P:27 SP:FD
F4F9  18        CLC                             A:00 X:FF Y:9E P:27 SP:FD
F4FA  F0 01     BEQ $F4FD                       A:00 X:FF Y:9E P:26 SP:FD
F4FD  66 18     ROR $18 = 29                    A:00 X:FF Y:9E P:26 SP:FD
F4FF  66 19     ROR $19 = AD                    A:00 X:FF Y:9E P:25 SP:FD
F501  66 1A     ROR $1A = FE                    A:00 X:FF Y:9E P:A5 SP:FD
F503  66 1B     ROR $1B = A5                    A:00 X:FF Y:9E P:A4 SP:FD
F505  66 1C     ROR $1C = 58                    A:00 X:FF Y:9E P:25 SP:FD
F507  66 1D     ROR $1D = 12                    A:00 X:FF Y:9E P:A4 SP:FD
F509  66 1E     ROR $1E = A2                    A:00 X:FF Y:9E P:24 SP:FD
F50B  66 1F     ROR $1F = 87                    A:00 X:FF Y:9E P:24 SP:FD
F50D  60        RTS                             A:00 X:FF Y:9E P:25 SP:FD
C7E4  4C E1 C7  JMP $C7E1                       A:00 X:FF Y:9E P:25 SP:FF
C7E1  20 ED F4  JSR $F4ED                       A:00 X:FF Y:9E P:25 SP:FF
F4ED  A5 18     LDA $18 = 14                    A:00 X:FF Y:9E P:25 SP:FD
F4EF  29 02     AND #$02                        A:14 X:FF Y:9E P:25 SP:FD
F4F1  85 00     STA $00 = 00                    A:00 X:FF Y:9E P:27 SP:FD
F4F3  A5 19     LDA $19 = D6                    A:00 X:FF Y:9E P:27 SP:FD
F4F5  29 02     AND #$02                        A:D6 X:FF Y:9E P:A5 SP:FD
F4F7  45 00     EOR $00 = 00                    A:02 X:FF Y:9E P:25 SP:FD
F4F9  18        CLC                             A:02 X:FF Y:9E P:25 SP:FD
F4FA  F0 01     BEQ $F4FD                       A:02 X:FF Y:9E P:24 SP:FD
F4FC  38        SEC                             A:02 X:FF Y:9E P:24 SP:FD
F4FD  66 18     ROR $18 = 14                    A:02 X:FF Y:9E P:25 SP:FD
F4FF  66 19     ROR $19 = D6                    A:02 X:FF Y:9E P:A4 SP:FD
F501  66 1A     ROR $1A = FF                    A:02 X:FF Y:9E P:24 SP:FD
F503  66 1B     ROR $1B = 52                    A:02 X:FF Y:9E P:25 SP:FD
F505  66 1C     ROR $1C = AC                    A:02 X:FF Y:9E P:A4 SP:FD
F507  66 1D     ROR $1D = 09                    A:02 X:FF Y:9E P:24 SP:FD
F509  66 1E     ROR $1E = 51                    A:02 X:FF Y:9E P:25 SP:FD
F50B  66 1F     ROR $1F = 43                    A:02 X:FF Y:9E P:A5 SP:FD
F50D  60        RTS                             A:02 X:FF Y:9E P:A5 SP:FD
C7E4  4C E1 C7  JMP $C7E1                       A:02 X:FF Y:9E P:A5 SP:FF
C7E1  20 ED F4  JSR $F4ED                       A:02 X:FF Y:9E P:A5 SP:FF
F4ED  A5 18     LDA $18 = 8A                    A:02 X:FF Y:9E P:A5 SP:FD
F4EF  29 02     AND #$02                        A:8A X:FF Y:9E P:A5 SP:FD
F4F1  85 00     STA $00 = 00                    A:02 X:FF Y:9E P:25 SP:FD
F4F3  A5 19     LDA $19 = 6B                    A:02 X:FF Y:9E P:25 SP:FD
F4F5  29 02     AND #$02                        A:6B X:FF Y:9E P:25 SP:FD
F4F7  45 00     EOR $00 = 02                    A:02 X:FF Y:9E P:25 SP:FD
F4F9  18        CLC                             A:00 X:FF Y:9E P:27 SP:FD
F4FA  F0 01     BEQ $F4FD                       A:00 X:FF Y:9E P:26 SP:FD
F4FD  66 18     ROR $18 = 8A                    A:00 X:FF Y:9E P:26 SP:FD
F4FF  66 19     ROR $19 = 6B                    A:00 X:FF Y:9E P:24 SP:FD
F501  66 1A     ROR $1A = 7F                    A:00 X:FF Y:9E P:25 SP:FD
F503  66 1B     ROR $1B = A9                    A:00 X:FF Y:9E P:A5 SP:FD
F505  66 1C     ROR $1C = 56                    A:00 X:FF Y:9E P:A5 SP:FD
F507  66 1D     ROR $1D = 04                    A:00 X:FF Y:9E P:A4 SP:FD
F509  66 1E     ROR $1E = A8                    A:00 X:FF Y:9E P:24 SP:FD
F50B  66 1F     ROR $1F = A1                    A:00 X:FF Y:9E P:24 SP:FD
F50D  60        RTS                             A:00 X:FF Y:9E P:25 SP:FD
C7E4  4C E1 C7  JMP $C7E1                       A:00 X:FF Y:9E P:25 SP:FF
C7E1  20 ED F4  JSR $F4ED                       A:00 X:FF Y:9E P:25 SP:FF
F4ED  A5 18     LDA $18 = 45                    A:00 X:FF Y:9E P:25 SP:FD
F4EF  29 02     AND #$02                        A:45 X:FF Y:9E P:25 SP:FD
F4F1  85 00     STA $00 = 02                    A:00 X:FF Y:9E P:27 SP:FD
F4F3  A5 19     LDA $19 = 35                    A:00 X:FF Y:9E P:27 SP:FD
F4F5  29 02     AND #$02                        A:35 X:FF Y:9E P:25 SP:FD
F4F7  45 00     EOR $00 = 00                    A:00 X:FF Y:9E P:27 SP:FD
F4F9  18        CLC                             A:00 X:FF Y:9E P:27 SP:FD
F4FA  F0 01     BEQ $F4FD                       A:00 X:FF Y:9E P:26 SP:FD
F4FD  66 18     ROR $18 = 45                    A:00 X:FF Y:9E P:26 SP:FD
F4FF  66 19     ROR $19 = 35                    A:00 X:FF Y:9E P:25 SP:FD
F501  66 1A     ROR $1A = BF                    A:00 X:FF Y:9E P:A5 SP:FD
F503  66 1B     ROR $1B = D4                    A:00 X:FF Y:9E P:A5 SP:FD
F505  66 1C     ROR $1C = AB                    A:00 X:FF Y:9E P:A4 SP:FD
F507  66 1D     ROR $1D = 02                    A:00 X:FF Y:9E P:25 SP:FD
F509  66 1E     ROR $1E = 54                    A:00 X:FF Y:9E P:A4 SP:FD
F50B  66 1F     ROR $1F = 50                    A:00 X:FF Y:9E P:24 SP:FD
F50D  60        RTS                             A:00 X:FF Y:9E P:24 SP:FD
C7E4  4C E1 C7  JMP $C7E1                       A:00 X:FF Y:9E P:24 SP:FF
C7E1  20 ED F4  JSR $F4ED                       A:00 X:FF Y:9E P:24 SP:FF
F4ED  A5 18     LDA $18 = 22                    A:00 X:FF Y:9E P:24 SP:FD
F4EF  29 02     AND #$02                        A:22 X:FF Y:9E P:24 SP:FD
F4F1  85 00     STA $00 = 00                    A:02 X:FF Y:9E P:24 SP:FD
F4F3  A5 19     LDA $19 = 9A                    A:02 X:FF Y:9E P:24 SP:FD
F4F5  29 02     AND #$02                        A:9A X:FF Y:9E P:A4 SP:FD
F4F7  45 00     EOR $00 = 02                    A:02 X:FF Y:9E P:24 SP:FD
F4F9  18        CLC                             A:00 X:FF Y:9E P:26 SP:FD
F4FA  F0 01     BEQ $F4FD                       A:00 X:FF Y:9E P:26 SP:FD
F4FD  66 18     ROR $18 = 22                    A:00 X:FF Y:9E P:26 SP:FD
F4FF  66 19     ROR $19 = 9A                    A:00 X:FF Y:9E P:24 SP:FD
F501  66 1A     ROR $1A = DF                    A:00 X:FF Y:9E P:24 SP:FD
F503  66 1B     ROR $1B = EA                    A:00 X:FF Y:9E P:25 SP:FD
F505  66 1C     ROR $1C = 55                    A:00 X:FF Y:9E P:A4 SP:FD
F507  66 1D     ROR $1D = 81                    A:00 X:FF Y:9E P:25 SP:FD
F509  66 1E     ROR $1E = 2A                    A:00 X:FF Y:9E P:A5 SP:FD
F50B  66 1F     ROR $1F = 28                    A:00 X:FF Y:9E P:A4 SP:FD
F50D  60        RTS                             A:00 X:FF Y:9E P:24 SP:FD
C7E4  4C E1 C7  JMP $C7E1                       A:00 X:FF Y:9E P:24 SP:FF
C7E1  20 ED F4  JSR $F4ED                       A:00 X:FF Y:9E P:24 SP:FF
F4ED  A5 18     LDA $18 = 11                    A:00 X:FF Y:9E P:24 SP:FD
F4EF  29 02     AND #$02                        A:11 X:FF Y:9E P:24 SP:FD
F4F1  85 00     STA $00 = 02                    A:00 X:FF Y:9E P:26 SP:FD
F4F3  A5 19     LDA $19 = 4D                    A:00 X:FF Y:9E P:26 SP:FD
F4F5  29 02     AND #$02                        A:4D X:FF Y:9E P:24 SP:FD
F4F7  45 00     EOR $00 = 00                    A:00 X:FF Y:9E P:26 SP:FD
F4F9  18        CLC                             A:00 X:FF Y:9E P:26 SP:FD
F4FA  F0 01     BEQ $F4FD                       A:00 X:FF Y:9E P:26 SP:FD
F4FD  66 18     ROR $18 = 11                    A:00 X:FF Y:9E P:26 SP:FD
F4FF  66 19     ROR $19 = 4D                    A:00 X:FF Y:9E P:25 SP:FD
F501  66 1A     ROR $1A = 6F                    A:00 X:FF Y:9E P:A5 SP:FD
F503  66 1B     ROR $1B = F5                    A:00 X:FF Y:9E P:A5 SP:FD
F505  66 1C     ROR $1C = 2A                    A:00 X:FF Y:9E P:A5 SP:FD
F507  66 1D     ROR $1D = C0                    A:00 X:FF Y:9E P:A4 SP:FD
F509  66 1E     ROR $1E = 95                    A:00 X:FF Y:9E P:24 SP:FD
F50B  66 1F     ROR $1F = 14                    A:00 X:FF Y:9E P:25 SP:FD
F50D  60        RTS                             A:00 X:FF Y:9E P:A4 SP:FD
C7E4  4C E1 C7  JMP $C7E1                       A:00 X:FF Y:9E P:A4 SP:FF
C7E1  20 ED F4  JSR $F4ED                       A:00 X:FF Y:9E P:A4 SP:FF
F4ED  A5 18     LDA $18 = 08                    A:00 X:FF Y:9E P:A4 SP:FD
F4EF  29 02     AND #$02                        A:08 X:FF Y:9E P:24 SP:FD
F4F1  85 00     STA $00 = 00                    A:00 X:FF Y:9E P:26 SP:FD
F4F3  A5 19     LDA $19 = A6                    A:00 X:FF Y:9E P:26 SP:FD
F4F5  29 02     AND #$02                        A:A6 X:FF Y:9E P:A4 SP:FD
F4F7  45 00     EOR $00 = 00                    A:02 X:FF Y:9E P:24 SP:FD
F4F9  18        CLC                             A:02 X:FF Y:9E P:24 SP:FD
F4FA  F0 01     BEQ $F4FD                       A:02 X:FF Y:9E P:24 SP:FD
F4FC  38        SEC                             A:02 X:FF Y:9E P:24 SP:FD
F4FD  66 18     ROR $18 = 08                    A:02 X:FF Y:9E P:25 SP:FD
F4FF  66 19     ROR $19 = A6                    A:02 X:FF Y:9E P:A4 SP:FD
F501  66 1A     ROR $1A = B7                    A:02 X:FF Y:9E P:24 SP:FD
F503  66 1B     ROR $1B = FA                    A:02 X:FF Y:9E P:25 SP:FD
F505  66 1C     ROR $1C = 95                    A:02 X:FF Y:9E P:A4 SP:FD
F507  66 1D     ROR $1D = 60                    A:02 X:FF Y:9E P:25 SP:FD
F509  66 1E     ROR $1E = 4A                    A:02 X:FF Y:9E P:A4 SP:FD
F50B  66 1F     ROR $1F = 8A                    A:02 X:FF Y:9E P:24 SP:FD
F50D  60        RTS                             A:02 X:FF Y:9E P:24 SP:FD
C7E4  4C E1 C7  JMP $C7E1                       A:02 X:FF Y:9E P:24 SP:FF
C7E1  20 ED F4  JSR $F4ED                       A:02 X:FF Y:9E P:24 SP:FF
F4ED  A5 18     LDA $18 = 84                    A:02 X:FF Y:9E P:24 SP:FD
F4EF  29 02     AND #$02                        A:84 X:FF Y:9E P:A4 SP:FD
F4F1  85 00     STA $00 = 00                    A:00 X:FF Y:9E P:26 SP:FD
F4F3  A5 19     LDA $19 = 53                    A:00 X:FF Y:9E P:26 SP:FD
F4F5  29 02     AND #$02                        A:53 X:FF Y:9E P:24 SP:FD
F4F7  45 00     EOR $00 = 00                    A:02 X:FF Y:9E P:24 SP:FD
F4F9  18        CLC                             A:02 X:FF Y:9E P:24 SP:FD
F4FA  F0 01     BEQ $F4FD                       A:02 X:FF Y:9E P:24 SP:FD
F4FC  38        SEC                             A:02 X:FF Y:9E P:24 SP:FD
F4FD  66 18     ROR $18 = 84                    A:02 X:FF Y:9E P:25 SP:FD
F4FF  66 19     ROR $19 = 53                    A:02 X:FF Y:9E P:A4 SP:FD
F501  66 1A     ROR $1A = 5B                    A:02 X:FF Y:9E P:25 SP:FD
F503  66 1B     ROR $1B = FD                    A:02 X:FF Y:9E P:A5 SP:FD
F505  66 1C     ROR $1C = 4A                    A:02 X:FF Y:9E P:A5 SP:FD
F507  66 1D     ROR $1D = B0                    A:02 X:FF Y:9E P:A4 SP:FD
F509  66 1E     ROR $1E = 25                    A:02 X:FF Y:9E P:24 SP:FD
F50B  66 1F     ROR $1F = 45                    A:02 X:FF Y:9E P:25 SP:FD
F50D  60        RTS                             A:02 X:FF Y:9E P:A5 SP:FD
C7E4  4C E1 C7  JMP $C7E1                       A:02 X:FF Y:9E P:A5 SP:FF
C7E1  20 ED F4  JSR $F4ED                       A:02 X:FF Y:9E P:A5 SP:FF
F4ED  A5 18     LDA $18 = C2                    A:02 X:FF Y:9E P:A5 SP:FD
F4EF  29 02     AND #$02                        A:C2 X:FF Y:9E P:A5 SP:FD
F4F1  85 00     STA $00 = 00                    A:02 X:FF Y:9E P:25 SP:FD
F4F3  A5 19     LDA $19 = 29                    A:02 X:FF Y:9E P:25 SP:FD
F4F5  29 02     AND #$02                        A:29 X:FF Y:9E P:25 SP:FD
F4F7  45 00     EOR $00 = 02                    A:00 X:FF Y:9E P:27 SP:FD
F4F9  18        CLC                             A:02 X:FF Y:9E P:25 SP:FD
F4FA  F0 01     BEQ $F4FD                       A:02 X:FF Y:9E P:24 SP:FD
F4FC  38        SEC                             A:02 X:FF Y:9E P:24 SP:FD
F4FD  66 18     ROR $18 = C2                    A:02 X:FF Y:9E P:25 SP:FD
F4FF  66 19     ROR $19 = 29                    A:02 X:FF Y:9E P:A4 SP:FD
F501  66 1A     ROR $1A = AD                    A:02 X:FF Y:9E P:25 SP:FD
F503  66 1B     ROR $1B = FE                    A:02 X:FF Y:9E P:A5 SP:FD
F505  66 1C     ROR $1C = A5                    A:02 X:FF Y:9E P:A4 SP:FD
F507  66 1D     ROR $1D = 58                    A:02 X:FF Y:9E P:25 SP:FD
F509  66 1E     ROR $1E = 12                    A:02 X:FF Y:9E P:A4 SP:FD
F50B  66 1F     ROR $1F = A2                    A:02 X:FF Y:9E P:24 SP:FD
F50D  60        RTS                             A:02 X:FF Y:9E P:24 SP:FD
C7E4  4C E1 C7  JMP $C7E1                       A:02 X:FF Y:9E P:24 SP:FF
C7E1  20 ED F4  JSR $F4ED                       A:02 X:FF Y:9E P:24 SP:FF
F4ED  A5 18     LDA $18 = E1                    A:02 X:FF Y:9E P:24 SP:FD
F4EF  29 02     AND #$02                        A:E1 X:FF Y:9E P:A4 SP:FD
F4F1  85 00     STA $00 = 02                    A:00 X:FF Y:9E P:26 SP:FD
F4F3  A5 19     LDA $19 = 14                    A:00 X:FF Y:9E P:26 SP:FD
F4F5  29 02     AND #$02                        A:14 X:FF Y:9E P:24 SP:FD
F4F7  45 00     EOR $00 = 00                    A:00 X:FF Y:9E P:26 SP:FD
F4F9  18        CLC                             A:00 X:FF Y:9E P:26 SP:FD
F4FA  F0 01     BEQ $F4FD                       A:00 X:FF Y:9E P:26 SP:FD
F4FD  66 18     ROR $18 = E1                    A:00 X:FF Y:9E P:26 SP:FD
F4FF  66 19     ROR $19 = 14                    A:00 X:FF Y:9E P:25 SP:FD
F501  66 1A     ROR $1A = D6                    A:00 X:FF Y:9E P:A4 SP:FD
F503  66 1B     ROR $1B = FF                    A:00 X:FF Y:9E P:24 SP:FD
F505  66 1C     ROR $1C = 52                    A:00 X:FF Y:9E P:25 SP:FD
F507  66 1D     ROR $1D = AC                    A:00 X:FF Y:9E P:A4 SP:FD
F509  66 1E     ROR $1E = 09                    A:00 X:FF Y:9E P:24 SP:FD
F50B  66 1F     ROR $1F = 51                    A:00 X:FF Y:9E P:25 SP:FD
F50D  60        RTS                             A:00 X:FF Y:9E P:A5 SP:FD
C7E4  4C E1 C7  JMP $C7E1                       A:00 X:FF Y:9E P:A5 SP:FF
C7E1  20 ED F4  JSR $F4ED                       A:00 X:FF Y:9E P:A5 SP:FF
F4ED  A5 18     LDA $18 = 70                    A:00 X:FF Y:9E P:A5 SP:FD
F4EF  29 02     AND #$02                        A:70 X:FF Y:9E P:25 SP:FD
F4F1  85 00     STA $00 = 00                    A:00 X:FF Y:9E P:27 SP:FD
F4F3  A5 19     LDA $19 = 8A                    A:00 X:FF Y:9E P:27 SP:FD
F4F5  29 02     AND #$02                        A:8A X:FF Y:9E P:A5 SP:FD
F4F7  45 00     EOR $00 = 00                    A:02 X:FF Y:9E P:25 SP:FD
F4F9  18        CLC                             A:02 X:FF Y:9E P:25 SP:FD
F4FA  F0 01     BEQ $F4FD                       A:02 X:FF Y:9E P:24 SP:FD
F4FC  38        SEC                             A:02 X:FF Y:9E P:24 SP:FD
F4FD  66 18     ROR $18 = 70                    A:02 X:FF Y:9E P:25 SP:FD
F4FF  66 19     ROR $19 = 8A                    A:02 X:FF Y:9E P:A4 SP:FD
F501  66 1A     ROR $1A = 6B                    A:02 X:FF Y:9E P:24 SP:FD
F503  66 1B     ROR $1B = 7F                    A:02 X:FF Y:9E P:25 SP:FD
F505  66 1C     ROR $1C = A9                    A:02 X:FF Y:9E P:A5 SP:FD
F507  66 1D     ROR $1D = 56                    A:02 X:FF Y:9E P:A5 SP:FD
F509  66 1E     ROR $1E = 04                    A:02 X:FF Y:9E P:A4 SP:FD
F50B  66 1F     ROR $1F = A8                    A:02 X:FF Y:9E P:24 SP:FD
F50D  60        RTS                             A:02 X:FF Y:9E P:24 SP:FD
C7E4  4C E1 C7  JMP $C7E1                       A:02 X:FF Y:9E P:24 SP:FF
C7E1  20 ED F4  JSR $F4ED                       A:02 X:FF Y:9E P:24 SP:FF
F4ED  A5 18     LDA $18 = B8                    A:02 X:FF Y:9E P:24 SP:FD
F4EF  29 02     AND #$02                        A:B8 X:FF Y:9E P:A4 SP:FD
F4F1  85 00     STA $00 = 00                    A:00 X:FF Y:9E P:26 SP:FD
F4F3  A5 19     LDA $19 = 45                    A:00 X:FF Y:9E P:26 SP:FD
F4F5  29 02     AND #$02                        A:45 X:FF Y:9E P:24 SP:FD
F4F7  45 00     EOR $00 = 00                    A:00 X:FF Y:9E P:26 SP:FD
F4F9  18        CLC                             A:00 X:FF Y:9E P:26 SP:FD
F4FA  F0 01     BEQ $F4FD                       A:00 X:FF Y:9E P:26 SP:FD
F4FD  66 18     ROR $18 = B8                    A:00 X:FF Y:9E P:26 SP:FD
F4FF  66 19     ROR $19 = 45                    A:00 X:FF Y:9E P:24 SP:FD
F501  66 1A     ROR $1A = 35                    A:00 X:FF Y:9E P:25 SP:FD
F503  66 1B     ROR $1B = BF                    A:00 X:FF Y:9E P:A5 SP:FD
F505  66 1C     ROR $1C = D4                    A:00 X:FF Y:9E P:A5 SP:FD
F507  66 1D     ROR $1D = AB                    A:00 X:FF Y:9E P:A4 SP:FD
F509  66 1E     ROR $1E = 02                    A:00 X:FF Y:9E P:25 SP:FD
F50B  66 1F     ROR $1F = 54                    A:00 X:FF Y:9E P:A4 SP:FD
F50D  60        RTS                             A:00 X:FF Y:9E P:24 SP:FD
C7E4  4C E1 C7  JMP $C7E1                       A:00 X:FF Y:9E P:24 SP:FF
C7E1  20 ED F4  JSR $F4ED                       A:00 X:FF Y:9E P:24 SP:FF
F4ED  A5 18     LDA $18 = 5C                    A:00 X:FF Y:9E P:24 SP:FD
F4EF  29 02     AND #$02                        A:5C X:FF Y:9E P:24 SP:FD
F4F1  85 00     STA $00 = 00                    A:00 X:FF Y:9E P:26 SP:FD
F4F3  A5 19     LDA $19 = 22                    A:00 X:FF Y:9E P:26 SP:FD
F4F5  29 02     AND #$02                        A:22 X:FF Y:9E P:24 SP:FD
F4F7  45 00     EOR $00 = 00                    A:02 X:FF Y:9E P:24 SP:FD
F4F9  18        CLC                             A:02 X:FF Y:9E P:24 SP:FD
F4FA  F0 01     BEQ $F4FD                       A:02 X:FF Y:9E P:24 SP:FD
F4FC  38        SEC                             A:02 X:FF Y:9E P:24 SP:FD
F4FD  66 18     ROR $18 = 5C                    A:02 X:FF Y:9E P:25 SP:FD
F4FF  66 19     ROR $19 = 22                    A:02 X:FF Y:9E P:A4 SP:FD
F501  66 1A     ROR $1A = 9A                    A:02 X:FF Y:9E P:24 SP:FD
F503  66 1B     ROR $1B = DF                    A:02 X:FF Y:9E P:24 SP:FD
F505  66 1C     ROR $1C = EA                    A:02 X:FF Y:9E P:25 SP:FD
F507  66 1D     ROR $1D = 55                    A:02 X:FF Y:9E P:A4 SP:FD
F509  66 1E     ROR $1E = 81                    A:02 X:FF Y:9E P:25 SP:FD
F50B  66 1F     ROR $1F = 2A                    A:02 X:FF Y:9E P:A5 SP:FD
F50D  60        RTS                             A:02 X:FF Y:9E P:A4 SP:FD
C7E4  4C E1 C7  JMP $C7E1                       A:02 X:FF Y:9E P:A4 SP:FF
C7E1  20 ED F4  JSR $F4ED                       A:02 X:FF Y:9E P:A4 SP:FF
F4ED  A5 18     LDA $18 = AE                    A:02 X:FF Y:9E P:A4 SP:FD
F4EF  29 02     AND #$02                        A:AE X:FF Y:9E P:A4 SP:FD
F4F1  85 00     STA $00 = 00                    A:02 X:FF Y:9E P:24 SP:FD
F4F3  A5 19     LDA $19 = 11                    A:02 X:FF Y:9E P:24 SP:FD
F4F5  29 02     AND #$02                        A:11 X:FF Y:9E P:24 SP:FD
F4F7  45 00     EOR $00 = 02                    A:00 X:FF Y:9E P:26 SP:FD
F4F9  18        CLC                             A:02 X:FF Y:9E P:24 SP:FD
F4FA  F0 01     BEQ $F4FD                       A:02 X:FF Y:9E P:24 SP:FD
F4FC  38        SEC                             A:02 X:FF Y:9E P:24 SP:FD
F4FD  66 18     ROR $18 = AE                    A:02 X:FF Y:9E P:25 SP:FD
F4FF  66 19     ROR $19 = 11                    A:02 X:FF Y:9E P:A4 SP:FD
F501  66 1A     ROR $1A = 4D                    A:02 X:FF Y:9E P:25 SP:FD
F503  66 1B     ROR $1B = 6F                    A:02 X:FF Y:9E P:A5 SP:FD
F505  66 1C     ROR $1C = F5                    A:02 X:FF Y:9E P:A5 SP:FD
F507  66 1D     ROR $1D = 2A                    A:02 X:FF Y:9E P:A5 SP:FD
F509  66 1E     ROR $1E = C0                    A:02 X:FF Y:9E P:A4 SP:FD
F50B  66 1F     ROR $1F = 95                    A:02 X:FF Y:9E P:24 SP:FD
F50D  60        RTS                             A:02 X:FF Y:9E P:25 SP:FD
C7E4  4C E1 C7  JMP $C7E1                       A:02 X:FF Y:9E P:25 SP:FF
C7E1  20 ED F4  JSR $F4ED                       A:02 X:FF Y:9E P:25 SP:FF
F4ED  A5 18     LDA $18 = D7                    A:02 X:FF Y:9E P:25 SP:FD
F4EF  29 02     AND #$02                        A:D7 X:FF Y:9E P:A5 SP:FD
F4F1  85 00     STA $00 = 02                    A:02 X:FF Y:9E P:25 SP:FD
F4F3  A5 19     LDA $19 = 08                    A:02 X:FF Y:9E P:25 SP:FD
F4F5  29 02     AND #$02                        A:08 X:FF Y:9E P:25 SP:FD
F4F7  45 00     EOR $00 = 02                    A:00 X:FF Y:9E P:27 SP:FD
F4F9  18        CLC                             A:02 X:FF Y:9E P:25 SP:FD
F4FA  F0 01     BEQ $F4FD                       A:02 X:FF Y:9E P:24 SP:FD
F4FC  38        SEC                             A:02 X:FF Y:9E P:24 SP:FD
F4FD  66 18     ROR $18 = D7                    A:02 X:FF Y:9E P:25 SP:FD
F4FF  66 19     ROR $19 = 08                    A:02 X:FF Y:9E P:A5 SP:FD
F501  66 1A     ROR $1A = A6                    A:02 X:FF Y:9E P:A4 SP:FD
F503  66 1B     ROR $1B = B7                    A:02 X:FF Y:9E P:24 SP:FD
F505  66 1C     ROR $1C = FA                    A:02 X:FF Y:9E P:25 SP:FD
F507  66 1D     ROR $1D = 95                    A:02 X:FF Y:9E P:A4 SP:FD
F509  66 1E     ROR $1E = 60                    A:02 X:FF Y:9E P:25 SP:FD
F50B  66 1F     ROR $1F = 4A                    A:02 X:FF Y:9E P:A4 SP:FD
F50D  60        RTS                             A:02 X:FF Y:9E P:24 SP:FD
C7E4  4C E1 C7  JMP $C7E1                       A:02 X:FF Y:9E P:24 SP:FF
C7E1  20 ED F4  JSR $F4ED                       A:02 X:FF Y:9E P:24 SP:FF
F4ED  A5 18     LDA $18 = EB                    A:02 X:FF Y:9E P:24 SP:FD
F4EF  29 02     AND #$02                        A:EB X:FF Y:9E P:A4 SP:FD
F4F1  85 00     STA $00 = 02                    A:02 X:FF Y:9E P:24 SP:FD
F4F3  A5 19     LDA $19 = 84                    A:02 X:FF Y:9E P:24 SP:FD
F4F5  29 02     AND #$02                        A:84 X:FF Y:9E P:A4 SP:FD
F4F7  45 00     EOR $00 = 02                    A:00 X:FF Y:9E P:26 SP:FD
F4F9  18        CLC                             A:02 X:FF Y:9E P:24 SP:FD
F4FA  F0 01     BEQ $F4FD                       A:02 X:FF Y:9E P:24 SP:FD
F4FC  38        SEC                             A:02 X:FF Y:9E P:24 SP:FD
F4FD  66 18     ROR $18 = EB                    A:02 X:FF Y:9E P:25 SP:FD
F4FF  66 19     ROR $19 = 84                    A:02 X:FF Y:9E P:A5 SP:FD
F501  66 1A     ROR $1A = 53                    A:02 X:FF Y:9E P:A4 SP:FD
F503  66 1B     ROR $1B = 5B                    A:02 X:FF Y:9E P:25 SP:FD
F505  66 1C     ROR $1C = FD                    A:02 X:FF Y:9E P:A5 SP:FD
F507  66 1D     ROR $1D = 4A                    A:02 X:FF Y:9E P:A5 SP:FD
F509  66 1E     ROR $1E = B0                    A:02 X:FF Y:9E P:A4 SP:FD
F50B  66 1F     ROR $1F = 25                    A:02 X:FF Y:9E P:24 SP:FD
F50D  60        RTS                             A:02 X:FF Y:9E P:25 SP:FD
C7E4  4C E1 C7  JMP $C7E1                       A:02 X:FF Y:9E P:25 SP:FF
C7E1  20 ED F4  JSR $F4ED                       A:02 X:FF Y:9E P:25 SP:FF
F4ED  A5 18     LDA $18 = F5                    A:02 X:FF Y:9E P:25 SP:FD
F4EF  29 02     AND #$02                        A:F5 X:FF Y:9E P:A5 SP:FD
F4F1  85 00     STA $00 = 02                    A:00 X:FF Y:9E P:27 SP:FD
F4F3  A5 19     LDA $19 = C2                    A:00 X:FF Y:9E P:27 SP:FD
F4F5  29 02     AND #$02                        A:C2 X:FF Y:9E P:A5 SP:FD
F4F7  45 00     EOR $00 = 00                    A:02 X:FF Y:9E P:25 SP:FD
F4F9  18        CLC                             A:02 X:FF Y:9E P:25 SP:FD
F4FA  F0 01     BEQ $F4FD                       A:02 X:FF Y:9E P:24 SP:FD
F4FC  38        SEC                             A:02 X:FF Y:9E P:24 SP:FD
F4FD  66 18     ROR $18 = F5                    A:02 X:FF Y:9E P:25 SP:FD
F4FF  66 19     ROR $19 = C2                    A:02 X:FF Y:9E P:A5 SP:FD
F501  66 1A     ROR $1A = 29                    A:02 X:FF Y:9E P:A4 SP:FD
F503  66 1B     ROR $1B = AD                    A:02 X:FF Y:9E P:25 SP:FD
F505  66 1C     ROR $1C = FE                    A:02 X:FF Y:9E P:A5 SP:FD
F507  66 1D     ROR $1D = A5                    A:02 X:FF Y:9E P:A4 SP:FD
F509  66 1E     ROR $1E = 58                    A:02 X:FF Y:9E P:25 SP:FD
F50B  66 1F     ROR $1F = 12                    A:02 X:FF Y:9E P:A4 SP:FD
F50D  60        RTS                             A:02 X:FF Y:9E P:24 SP:FD
C7E4  4C E1 C7  JMP $C7E1                       A:02 X:FF Y:9E P:24 SP:FF
C7E1  20 ED F4  JSR $F4ED                       A:02 X:FF Y:9E P:24 SP:FF
F4ED  A5 18     LDA $18 = FA                    A:02 X:FF Y:9E P:24 SP:FD
F4EF  29 02     AND #$02                        A:FA X:FF Y:9E P:A4 SP:FD
F4F1  85 00     STA $00 = 00                    A:02 X:FF Y:9E P:24 SP:FD
F4F3  A5 19     LDA $19 = E1                    A:02 X:FF Y:9E P:24 SP:FD
F4F5  29 02     AND #$02                        A:E1 X:FF Y:9E P:A4 SP:FD
F4F7  45 00     EOR $00 = 02                    A:00 X:FF Y:9E P:26 SP:FD
F4F9  18        CLC                             A:02 X:FF Y:9E P:24 SP:FD
F4FA  F0 01     BEQ $F4FD                       A:02 X:FF Y:9E P:24 SP:FD
F4FC  38        SEC                             A:02 X:FF Y:9E P:24 SP:FD
F4FD  66 18     ROR $18 = FA                    A:02 X:FF Y:9E P:25 SP:FD
F4FF  66 19     ROR $19 = E1                    A:02 X:FF Y:9E P:A4 SP:FD
F501  66 1A     ROR $1A = 14                    A:02 X:FF Y:9E P:25 SP:FD
F503  66 1B     ROR $1B = D6                    A:02 X:FF Y:9E P:A4 SP:FD
F505  66 1C     ROR $1C = FF                    A:02 X:FF Y:9E P:24 SP:FD
F507  66 1D     ROR $1D = 52                    A:02 X:FF Y:9E P:25 SP:FD
F509  66 1E     ROR $1E = AC                    A:02 X:FF Y:9E P:A4 SP:FD
F50B  66 1F     ROR $1F = 09                    A:02 X:FF Y:9E P:24 SP:FD
F50D  60        RTS                             A:02 X:FF Y:9E P:25 SP:FD
C7E4  4C E1 C7  JMP $C7E1                       A:02 X:FF Y:9E P:25 SP:FF
C7E1  20 ED F4  JSR $F4ED                       A:02 X:FF Y:9E P:25 SP:FF
F4ED  A5 18     LDA $18 = FD                    A:02 X:FF Y:9E P:25 SP:FD
F4EF  29 02     AND #$02                        A:FD X:FF Y:9E P:A5 SP:FD
F4F1  85 00     STA $00 = 02                    A:00 X:FF Y:9E P:27 SP:FD
F4F3  A5 19     LDA $19 = 70                    A:00 X:FF Y:9E P:27 SP:FD
F4F5  29 02     AND #$02                        A:70 X:FF Y:9E P:25 SP:FD
F4F7  45 00     EOR $00 = 00                    A:00 X:FF Y:9E P:27 SP:FD
F4F9  18        CLC                             A:00 X:FF Y:9E P:27 SP:FD
F4FA  F0 01     BEQ $F4FD                       A:00 X:FF Y:9E P:26 SP:FD
F4FD  66 18     ROR $18 = FD                    A:00 X:FF Y:9E P:26 SP:FD
F4FF  66 19     ROR $19 = 70                    A:00 X:FF Y:9E P:25 SP:FD
F501  66 1A     ROR $1A = 8A                    A:00 X:FF Y:9E P:A4 SP:FD
F503  66 1B     ROR $1B = 6B                    A:00 X:FF Y:9E P:24 SP:FD
F505  66 1C     ROR $1C = 7F                    A:00 X:FF Y:9E P:25 SP:FD
F507  66 1D     ROR $1D = A9                    A:00 X:FF Y:9E P:A5 SP:FD
F509  66 1E     ROR $1E = 56                    A:00 X:FF Y:9E P:A5 SP:FD
F50B  66 1F     ROR $1F = 04                    A:00 X:FF Y:9E P:A4 SP:FD
F50D  60        RTS                             A:00 X:FF Y:9E P:24 SP:FD
C7E4  4C E1 C7  JMP $C7E1                       A:00 X:FF Y:9E P:24 SP:FF
C7E1  20 ED F4  JSR $F4ED                       A:00 X:FF Y:9E P:24 SP:FF
F4ED  A5 18     LDA $18 = 7E                    A:00 X:FF Y:9E P:24 SP:FD
F4EF  29 02     AND #$02                        A:7E X:FF Y:9E P:24 SP:FD
F4F1  85 00     STA $00 = 00                    A:02 X:FF Y:9E P:24 SP:FD
F4F3  A5 19     LDA $19 = B8                    A:02 X:FF Y:9E P:24 SP:FD
F4F5  29 02     AND #$02                        A:B8 X:FF Y:9E P:A4 SP:FD
F4F7  45 00     EOR $00 = 02                    A:00 X:FF Y:9E P:26 SP:FD
F4F9  18        CLC                             A:02 X:FF Y:9E P:24 SP:FD
F4FA  F0 01     BEQ $F4FD                       A:02 X:FF Y:9E P:24 SP:FD
F4FC  38        SEC                             A:02 X:FF Y:9E P:24 SP:FD
F4FD  66 18     ROR $18 = 7E                    A:02 X:FF Y:9E P:25 SP:FD
F4FF  66 19     ROR $19 = B8                    A:02 X:FF Y:9E P:A4 SP:FD
F501  66 1A     ROR $1A = 45                    A:02 X:FF Y:9E P:24 SP:FD
F503  66 1B     ROR $1B = 35                    A:02 X:FF Y:9E P:25 SP:FD
F505  66 1C     ROR $1C = BF                    A:02 X:FF Y:9E P:A5 SP:FD
F507  66 1D     ROR $1D = D4                    A:02 X:FF Y:9E P:A5 SP:FD
F509  66 1E     ROR $1E = AB                    A:02 X:FF Y:9E P:A4 SP:FD
F50B  66 1F     ROR $1F = 02                    A:02 X:FF Y:9E P:25 SP:FD
F50D  60        RTS                             A:02 X:FF Y:9E P:A4 SP:FD
C7E4  4C E1 C7  JMP $C7E1                       A:02 X:FF Y:9E P:A4 SP:FF
C7E1  20 ED F4  JSR $F4ED                       A:02 X:FF Y:9E P:A4 SP:FF
F4ED  A5 18     LDA $18 = BF                    A:02 X:FF Y:9E P:A4 SP:FD
F4EF  29 02     AND #$02                        A:BF X:FF Y:9E P:A4 SP:FD
F4F1  85 00     STA $00 = 02                    A:02 X:FF Y:9E P:24 SP:FD
F4F3  A5 19     LDA $19 = 5C                    A:02 X:FF Y:9E P:24 SP:FD
F4F5  29 02     AND #$02                        A:5C X:FF Y:9E P:24 SP:FD
F4F7  45 00     EOR $00 = 02                    A:00 X:FF Y:9E P:26 SP:FD
F4F9  18        CLC                             A:02 X:FF Y:9E P:24 SP:FD
F4FA  F0 01     BEQ $F4FD                       A:02 X:FF Y:9E P:24 SP:FD
F4FC  38        SEC                             A:02 X:FF Y:9E P:24 SP:FD
F4FD  66 18     ROR $18 = BF                    A:02 X:FF Y:9E P:25 SP:FD
F4FF  66 19     ROR $19 = 5C                    A:02 X:FF Y:9E P:A5 SP:FD
F501  66 1A     ROR $1A = 22                    A:02 X:FF Y:9E P:A4 SP:FD
F503  66 1B     ROR $1B = 9A                    A:02 X:FF Y:9E P:24 SP:FD
F505  66 1C     ROR $1C = DF                    A:02 X:FF Y:9E P:24 SP:FD
F507  66 1D     ROR $1D = EA                    A:02 X:FF Y:9E P:25 SP:FD
F509  66 1E     ROR $1E = 55                    A:02 X:FF Y:9E P:A4 SP:FD
F50B  66 1F     ROR $1F = 81                    A:02 X:FF Y:9E P:25 SP:FD
F50D  60        RTS                             A:02 X:FF Y:9E P:A5 SP:FD
C7E4  4C E1 C7  JMP $C7E1                       A:02 X:FF Y:9E P:A5 SP:FF
C7E1  20 ED F4  JSR $F4ED                       A:02 X:FF Y:9E P:A5 SP:FF
F4ED  A5 18     LDA $18 = DF                    A:02 X:FF Y:9E P:A5 SP:FD
F4EF  29 02     AND #$02                        A:DF X:FF Y:9E P:A5 SP:FD
F4F1  85 00     STA $00 = 02                    A:02 X:FF Y:9E P:25 SP:FD
F4F3  A5 19     LDA $19 = AE                    A:02 X:FF Y:9E P:25 SP:FD
F4F5  29 02     AND #$02                        A:AE X:FF Y:9E P:A5 SP:FD
F4F7  45 00     EOR $00 = 02                    A:02 X:FF Y:9E P:25 SP:FD
F4F9  18        CLC                             A:00 X:FF Y:9E P:27 SP:FD
F4FA  F0 01     BEQ $F4FD                       A:00 X:FF Y:9E P:26 SP:FD
F4FD  66 18     ROR $18 = DF                    A:00 X:FF Y:9E P:26 SP:FD
F4FF  66 19     ROR $19 = AE                    A:00 X:FF Y:9E P:25 SP:FD
F501  66 1A     ROR $1A = 11                    A:00 X:FF Y:9E P:A4 SP:FD
F503  66 1B     ROR $1B = 4D                    A:00 X:FF Y:9E P:25 SP:FD
F505  66 1C     ROR $1C = 6F                    A:00 X:FF Y:9E P:A5 SP:FD
F507  66 1D     ROR $1D = F5                    A:00 X:FF Y:9E P:A5 SP:FD
F509  66 1E     ROR $1E = 2A                    A:00 X:FF Y:9E P:A5 SP:FD
F50B  66 1F     ROR $1F = C0                    A:00 X:FF Y:9E P:A4 SP:FD
F50D  60        RTS                             A:00 X:FF Y:9E P:24 SP:FD
C7E4  4C E1 C7  JMP $C7E1                       A:00 X:FF Y:9E P:24 SP:FF
C7E1  20 ED F4  JSR $F4ED                       A:00 X:FF Y:9E P:24 SP:FF
F4ED  A5 18     LDA $18 = 6F                    A:00 X:FF Y:9E P:24 SP:FD
F4EF  29 02     AND #$02                        A:6F X:FF Y:9E P:24 SP:FD
F4F1  85 00     STA $00 = 02                    A:02 X:FF Y:9E P:24 SP:FD
F4F3  A5 19     LDA $19 = D7                    A:02 X:FF Y:9E P:24 SP:FD
F4F5  29 02     AND #$02                        A:D7 X:FF Y:9E P:A4 SP:FD
F4F7  45 00     EOR $00 = 02                    A:02 X:FF Y:9E P:24 SP:FD
F4F9  18        CLC                             A:00 X:FF Y:9E P:26 SP:FD
F4FA  F0 01     BEQ $F4FD                       A:00 X:FF Y:9E P:26 SP:FD
F4FD  66 18     ROR $18 = 6F                    A:00 X:FF Y:9E P:26 SP:FD
F4FF  66 19     ROR $19 = D7                    A:00 X:FF Y:9E P:25 SP:FD
F501  66 1A     ROR $1A = 08                    A:00 X:FF Y:9E P:A5 SP:FD
F503  66 1B     ROR $1B = A6                    A:00 X:FF Y:9E P:A4 SP:FD
F505  66 1C     ROR $1C = B7                    A:00 X:FF Y:9E P:24 SP:FD
F507  66 1D     ROR $1D = FA                    A:00 X:FF Y:9E P:25 SP:FD
F509  66 1E     ROR $1E = 95                    A:00 X:FF Y:9E P:A4 SP:FD
F50B  66 1F     ROR $1F = 60                    A:00 X:FF Y:9E P:25 SP:FD
F50D  60        RTS                             A:00 X:FF Y:9E P:A4 SP:FD
C7E4  4C E1 C7  JMP $C7E1                       A:00 X:FF Y:9E P:A4 SP:FF
C7E1  20 ED F4  JSR $F4ED                       A:00 X:FF Y:9E P:A4 SP:FF
F4ED  A5 18     LDA $18 = 37                    A:00 X:FF Y:9E P:A4 SP:FD
F4EF  29 02     AND #$02                        A:37 X:FF Y:9E P:24 SP:FD
F4F1  85 00     STA $00 = 02                    A:02 X:FF Y:9E P:24 SP:FD
F4F3  A5 19     LDA $19 = EB                    A:02 X:FF Y:9E P:24 SP:FD
F4F5  29 02     AND #$02                        A:EB X:FF Y:9E P:A4 SP:FD
F4F7  45 00     EOR $00 = 02                    A:02 X:FF Y:9E P:24 SP:FD
F4F9  18        CLC                             A:00 X:FF Y:9E P:26 SP:FD
F4FA  F0 01     BEQ $F4FD                       A:00 X:FF Y:9E P:26 SP:FD
F4FD  66 18     ROR $18 = 37                    A:00 X:FF Y:9E P:26 SP:FD
F4FF  66 19     ROR $19 = EB                    A:00 X:FF Y:9E P:25 SP:FD
F501  66 1A     ROR $1A = 84                    A:00 X:FF Y:9E P:A5 SP:FD
F503  66 1B     ROR $1B = 53                    A:00 X:FF Y:9E P:A4 SP:FD
F505  66 1C     ROR $1C = 5B                    A:00 X:FF Y:9E P:25 SP:FD
F507  66 1D     ROR $1D = FD                    A:00 X:FF Y:9E P:A5 SP:FD
F509  66 1E     ROR $1E = 4A                    A:00 X:FF Y:9E P:A5 SP:FD
F50B  66 1F     ROR $1F = B0                    A:00 X:FF Y:9E P:A4 SP:FD
F50D  60        RTS                             A:00 X:FF Y:9E P:24 SP:FD
C7E4  4C E1 C7  JMP $C7E1                       A:00 X:FF Y:9E P:24 SP:FF
C7E1  20 ED F4  JSR $F4ED                       A:00 X:FF Y:9E P:24 SP:FF
F4ED  A5 18     LDA $18 = 1B                    A:00 X:FF Y:9E P:24 SP:FD
F4EF  29 02     AND #$02                        A:1B X:FF Y:9E P:24 SP:FD
F4F1  85 00     STA $00 = 02                    A:02 X:FF Y:9E P:24 SP:FD
F4F3  A5 19     LDA $19 = F5                    A:02 X:FF Y:9E P:24 SP:FD
F4F5  29 02     AND #$02                        A:F5 X:FF Y:9E P:A4 SP:FD
F4F7  45 00     EOR $00 = 02                    A:00 X:FF Y:9E P:26 SP:FD
F4F9  18        CLC                             A:02 X:FF Y:9E P:24 SP:FD
F4FA  F0 01     BEQ $F4FD                       A:02 X:FF Y:9E P:24 SP:FD
F4FC  38        SEC                             A:02 X:FF Y:9E P:24 SP:FD
F4FD  66 18     ROR $18 = 1B                    A:02 X:FF Y:9E P:25 SP:FD
F4FF  66 19     ROR $19 = F5                    A:02 X:FF Y:9E P:A5 SP:FD
F501  66 1A     ROR $1A = C2                    A:02 X:FF Y:9E P:A5 SP:FD
F503  66 1B     ROR $1B = 29                    A:02 X:FF Y:9E P:A4 SP:FD
F505  66 1C     ROR $1C = AD                    A:02 X:FF Y:9E P:25 SP:FD
F507  66 1D     ROR $1D = FE                    A:02 X:FF Y:9E P:A5 SP:FD
F509  66 1E     ROR $1E = A5                    A:02 X:FF Y:9E P:A4 SP:FD
F50B  66 1F     ROR $1F = 58                    A:02 X:FF Y:9E P:25 SP:FD
F50D  60        RTS                             A:02 X:FF Y:9E P:A4 SP:FD
C7E4  4C E1 C7  JMP $C7E1                       A:02 X:FF Y:9E P:A4 SP:FF
C7E1  20 ED F4  JSR $F4ED                       A:02 X:FF Y:9E P:A4 SP:FF
F4ED  A5 18     LDA $18 = 8D                    A:02 X:FF Y:9E P:A4 SP:FD
F4EF  29 02     AND #$02                        A:8D X:FF Y:9E P:A4 SP:FD
F4F1  85 00     STA $00 = 02                    A:00 X:FF Y:9E P:26 SP:FD
F4F3  A5 19     LDA $19 = FA                    A:00 X:FF Y:9E P:26 SP:FD
F4F5  29 02     AND #$02                        A:FA X:FF Y:9E P:A4 SP:FD
F4F7  45 00     EOR $00 = 00                    A:02 X:FF Y:9E P:24 SP:FD
F4F9  18        CLC                             A:02 X:FF Y:9E P:24 SP:FD
F4FA  F0 01     BEQ $F4FD                       A:02 X:FF Y:9E P:24 SP:FD
F4FC  38        SEC                             A:02 X:FF Y:9E P:24 SP:FD
F4FD  66 18     ROR $18 = 8D                    A:02 X:FF Y:9E P:25 SP:FD
F4FF  66 19     ROR $19 = FA                    A:02 X:FF Y:9E P:A5 SP:FD
F501  66 1A     ROR $1A = E1                    A:02 X:FF Y:9E P:A4 SP:FD
F503  66 1B     ROR $1B = 14                    A:02 X:FF Y:9E P:25 SP:FD
F505  66 1C     ROR $1C = D6                    A:02 X:FF Y:9E P:A4 SP:FD
F507  66 1D     ROR $1D = FF                    A:02 X:FF Y:9E P:24 SP:FD
F509  66 1E     ROR $1E = 52                    A:02 X:FF Y:9E P:25 SP:FD
F50B  66 1F     ROR $1F = AC                    A:02 X:FF Y:9E P:A4 SP:FD
F50D  60        RTS                             A:02 X:FF Y:9E P:24 SP:FD
C7E4  4C E1 C7  JMP $C7E1                       A:02 X:FF Y:9E P:24 SP:FF
C7E1  20 ED F4  JSR $F4ED                       A:02 X:FF Y:9E P:24 SP:FF
F4ED  A5 18     LDA $18 = C6                    A:02 X:FF Y:9E P:24 SP:FD
F4EF  29 02     AND #$02                        A:C6 X:FF Y:9E P:A4 SP:FD
F4F1  85 00     STA $00 = 00                    A:02 X:FF Y:9E P:24 SP:FD
F4F3  A5 19     LDA $19 = FD                    A:02 X:FF Y:9E P:24 SP:FD
F4F5  29 02     AND #$02                        A:FD X:FF Y:9E P:A4 SP:FD
F4F7  45 00     EOR $00 = 02                    A:00 X:FF Y:9E P:26 SP:FD
F4F9  18        CLC                             A:02 X:FF Y:9E P:24 SP:FD
F4FA  F0 01     BEQ $F4FD                       A:02 X:FF Y:9E P:24 SP:FD
F4FC  38        SEC                             A:02 X:FF Y:9E P:24 SP:FD
F4FD  66 18     ROR $18 = C6                    A:02 X:FF Y:9E P:25 SP:FD
F4FF  66 19     ROR $19 = FD                    A:02 X:FF Y:9E P:A4 SP:FD
F501  66 1A     ROR $1A = 70                    A:02 X:FF Y:9E P:25 SP:FD
F503  66 1B     ROR $1B = 8A                    A:02 X:FF Y:9E P:A4 SP:FD
F505  66 1C     ROR $1C = 6B                    A:02 X:FF Y:9E P:24 SP:FD
F507  66 1D     ROR $1D = 7F                    A:02 X:FF Y:9E P:25 SP:FD
F509  66 1E     ROR $1E = A9                    A:02 X:FF Y:9E P:A5 SP:FD
F50B  66 1F     ROR $1F = 56                    A:02 X:FF Y:9E P:A5 SP:FD
F50D  60        RTS                             A:02 X:FF Y:9E P:A4 SP:FD
C7E4  4C E1 C7  JMP $C7E1                       A:02 X:FF Y:9E P:A4 SP:FF
C7E1  20 ED F4  JSR $F4ED                       A:02 X:FF Y:9E P:A4 SP:FF
F4ED  A5 18     LDA $18 = E3                    A:02 X:FF Y:9E P:A4 SP:FD
F4EF  29 02     AND #$02                        A:E3 X:FF Y:9E P:A4 SP:FD
F4F1  85 00     STA $00 = 02                    A:02 X:FF Y:9E P:24 SP:FD
F4F3  A5 19     LDA $19 = 7E                    A:02 X:FF Y:9E P:24 SP:FD
F4F5  29 02     AND #$02                        A:7E X:FF Y:9E P:24 SP:FD
F4F7  45 00     EOR $00 = 02                    A:02 X:FF Y:9E P:24 SP:FD
F4F9  18        CLC                             A:00 X:FF Y:9E P:26 SP:FD
F4FA  F0 01     BEQ $F4FD                       A:00 X:FF Y:9E P:26 SP:FD
F4FD  66 18     ROR $18 = E3                    A:00 X:FF Y:9E P:26 SP:FD
F4FF  66 19     ROR $19 = 7E                    A:00 X:FF Y:9E P:25 SP:FD
F501  66 1A     ROR $1A = B8                    A:00 X:FF Y:9E P:A4 SP:FD
F503  66 1B     ROR $1B = 45                    A:00 X:FF Y:9E P:24 SP:FD
F505  66 1C     ROR $1C = 35                    A:00 X:FF Y:9E P:25 SP:FD
F507  66 1D     ROR $1D = BF                    A:00 X:FF Y:9E P:A5 SP:FD
F509  66 1E     ROR $1E = D4                    A:00 X:FF Y:9E P:A5 SP:FD
F50B  66 1F     ROR $1F = AB                    A:00 X:FF Y:9E P:A4 SP:FD
F50D  60        RTS                             A:00 X:FF Y:9E P:25 SP:FD
C7E4  4C E1 C7  JMP $C7E1                       A:00 X:FF Y:9E P:25 SP:FF
C7E1  20 ED F4  JSR $F4ED                       A:00 X:FF Y:9E P:25 SP:FF
F4ED  A5 18     LDA $18 = 71                    A:00 X:FF Y:9E P:25 SP:FD
F4EF  29 02     AND #$02                        A:71 X:FF Y:9E P:25 SP:FD
F4F1  85 00     STA $00 = 02                    A:00 X:FF Y:9E P:27 SP:FD
F4F3  A5 19     LDA $19 = BF                    A:00 X:FF Y:9E P:27 SP:FD
F4F5  29 02     AND #$02                        A:BF X:FF Y:9E P:A5 SP:FD
F4F7  45 00     EOR $00 = 00                    A:02 X:FF Y:9E P:25 SP:FD
F4F9  18        CLC                             A:02 X:FF Y:9E P:25 SP:FD
F4FA  F0 01     BEQ $F4FD                       A:02 X:FF Y:9E P:24 SP:FD
F4FC  38        SEC                             A:02 X:FF Y:9E P:24 SP:FD
F4FD  66 18     ROR $18 = 71                    A:02 X:FF Y:9E P:25 SP:FD
F4FF  66 19     ROR $19 = BF                    A:02 X:FF Y:9E P:A5 SP:FD
F501  66 1A     ROR $1A = 5C                    A:02 X:FF Y:9E P:A5 SP:FD
F503  66 1B     ROR $1B = 22                    A:02 X:FF Y:9E P:A4 SP:FD
F505  66 1C     ROR $1C = 9A                    A:02 X:FF Y:9E P:24 SP:FD
F507  66 1D     ROR $1D = DF                    A:02 X:FF Y:9E P:24 SP:FD
F509  66 1E     ROR $1E = EA                    A:02 X:FF Y:9E P:25 SP:FD
F50B  66 1F     ROR $1F = 55                    A:02 X:FF Y:9E P:A4 SP:FD
F50D  60        RTS                             A:02 X:FF Y:9E P:25 SP:FD
C7E4  4C E1 C7  JMP $C7E1                       A:02 X:FF Y:9E P:25 SP:FF
C7E1  20 ED F4  JSR $F4ED                       A:02 X:FF Y:9E P:25 SP:FF
F4ED  A5 18     LDA $18 = B8                    A:02 X:FF Y:9E P:25 SP:FD
F4EF  29 02     AND #$02                        A:B8 X:FF Y:9E P:A5 SP:FD
F4F1  85 00     STA $00 = 00                    A:00 X:FF Y:9E P:27 SP:FD
F4F3  A5 19     LDA $19 = DF                    A:00 X:FF Y:9E P:27 SP:FD
F4F5  29 02     AND #$02                        A:DF X:FF Y:9E P:A5 SP:FD
F4F7  45 00     EOR $00 = 00                    A:02 X:FF Y:9E P:25 SP:FD
F4F9  18        CLC                             A:02 X:FF Y:9E P:25 SP:FD
F4FA  F0 01     BEQ $F4FD                       A:02 X:FF Y:9E P:24 SP:FD
F4FC  38        SEC                             A:02 X:FF Y:9E P:24 SP:FD
F4FD  66 18     ROR $18 = B8                    A:02 X:FF Y:9E P:25 SP:FD
F4FF  66 19     ROR $19 = DF                    A:02 X:FF Y:9E P:A4 SP:FD
F501  66 1A     ROR $1A = AE                    A:02 X:FF Y:9E P:25 SP:FD
F503  66 1B     ROR $1B = 11                    A:02 X:FF Y:9E P:A4 SP:FD
F505  66 1C     ROR $1C = 4D                    A:02 X:FF Y:9E P:25 SP:FD
F507  66 1D     ROR $1D = 6F                    A:02 X:FF Y:9E P:A5 SP:FD
F509  66 1E     ROR $1E = F5                    A:02 X:FF Y:9E P:A5 SP:FD
F50B  66 1F     ROR $1F = 2A                    A:02 X:FF Y:9E P:A5 SP:FD
F50D  60        RTS                             A:02 X:FF Y:9E P:A4 SP:FD
C7E4  4C E1 C7  JMP $C7E1                       A:02 X:FF Y:9E P:A4 SP:FF
C7E1  20 ED F4  JSR $F4ED                       A:02 X:FF Y:9E P:A4 SP:FF
F4ED  A5 18     LDA $18 = DC                    A:02 X:FF Y:9E P:A4 SP:FD
F4EF  29 02     AND #$02                        A:DC X:FF Y:9E P:A4 SP:FD
F4F1  85 00     STA $00 = 00                    A:00 X:FF Y:9E P:26 SP:FD
F4F3  A5 19     LDA $19 = 6F                    A:00 X:FF Y:9E P:26 SP:FD
F4F5  29 02     AND #$02                        A:6F X:FF Y:9E P:24 SP:FD
F4F7  45 00     EOR $00 = 00                    A:02 X:FF Y:9E P:24 SP:FD
F4F9  18        CLC                             A:02 X:FF Y:9E P:24 SP:FD
F4FA  F0 01     BEQ $F4FD                       A:02 X:FF Y:9E P:24 SP:FD
F4FC  38        SEC                             A:02 X:FF Y:9E P:24 SP:FD
F4FD  66 18     ROR $18 = DC                    A:02 X:FF Y:9E P:25 SP:FD
F4FF  66 19     ROR $19 = 6F                    A:02 X:FF Y:9E P:A4 SP:FD
F501  66 1A     ROR $1A = D7                    A:02 X:FF Y:9E P:25 SP:FD
F503  66 1B     ROR $1B = 08                    A:02 X:FF Y:9E P:A5 SP:FD
F505  66 1C     ROR $1C = A6                    A:02 X:FF Y:9E P:A4 SP:FD
F507  66 1D     ROR $1D = B7                    A:02 X:FF Y:9E P:24 SP:FD
F509  66 1E     ROR $1E = FA                    A:02 X:FF Y:9E P:25 SP:FD
F50B  66 1F     ROR $1F = 95                    A:02 X:FF Y:9E P:A4 SP:FD
F50D  60        RTS                             A:02 X:FF Y:9E P:25 SP:FD
C7E4  4C E1 C7  JMP $C7E1                       A:02 X:FF Y:9E P:25 SP:FF
C7E1  20 ED F4  JSR $F4ED                       A:02 X:FF Y:9E P:25 SP:FF
F4ED  A5 18     LDA $18 = EE                    A:02 X:FF Y:9E P:25 SP:FD
F4EF  29 02     AND #$02                        A:EE X:FF Y:9E P:A5 SP:FD
F4F1  85 00     STA $00 = 00                    A:02 X:FF Y:9E P:25 SP:FD
F4F3  A5 19     LDA $19 = 37                    A:02 X:FF Y:9E P:25 SP:FD
F4F5  29 02     AND #$02                        A:37 X:FF Y:9E P:25 SP:FD
F4F7  45 00     EOR $00 = 02                    A:02 X:FF Y:9E P:25 SP:FD
F4F9  18        CLC                             A:00 X:FF Y:9E P:27 SP:FD
F4FA  F0 01     BEQ $F4FD                       A:00 X:FF Y:9E P:26 SP:FD
F4FD  66 18     ROR $18 = EE                    A:00 X:FF Y:9E P:26 SP:FD
F4FF  66 19     ROR $19 = 37                    A:00 X:FF Y:9E P:24 SP:FD
F501  66 1A     ROR $1A = EB                    A:00 X:FF Y:9E P:25 SP:FD
F503  66 1B     ROR $1B = 84                    A:00 X:FF Y:9E P:A5 SP:FD
F505  66 1C     ROR $1C = 53                    A:00 X:FF Y:9E P:A4 SP:FD
F507  66 1D     ROR $1D = 5B                    A:00 X:FF Y:9E P:25 SP:FD
F509  66 1E     ROR $1E = FD                    A:00 X:FF Y:9E P:A5 SP:FD
F50B  66 1F     ROR $1F = 4A                    A:00 X:FF Y:9E P:A5 SP:FD
F50D  60        RTS                             A:00 X:FF Y:9E P:A4 SP:FD
C7E4  4C E1 C7  JMP $C7E1                       A:00 X:FF Y:9E P:A4 SP:FF
C7E1  20 ED F4  JSR $F4ED                       A:00 X:FF Y:9E P:A4 SP:FF
F4ED  A5 18     LDA $18 = 77                    A:00 X:FF Y:9E P:A4 SP:FD
F4EF  29 02     AND #$02                        A:77 X:FF Y:9E P:24 SP:FD
F4F1  85 00     STA $00 = 02                    A:02 X:FF Y:9E P:24 SP:FD
F4F3  A5 19     LDA $19 = 1B                    A:02 X:FF Y:9E P:24 SP:FD
F4F5  29 02     AND #$02                        A:1B X:FF Y:9E P:24 SP:FD
F4F7  45 00     EOR $00 = 02                    A:02 X:FF Y:9E P:24 SP:FD
F4F9  18        CLC                             A:00 X:FF Y:9E P:26 SP:FD
F4FA  F0 01     BEQ $F4FD                       A:00 X:FF Y:9E P:26 SP:FD
F4FD  66 18     ROR $18 = 77                    A:00 X:FF Y:9E P:26 SP:FD
F4FF  66 19     ROR $19 = 1B                    A:00 X:FF Y:9E P:25 SP:FD
F501  66 1A     ROR $1A = F5                    A:00 X:FF Y:9E P:A5 SP:FD
F503  66 1B     ROR $1B = C2                    A:00 X:FF Y:9E P:A5 SP:FD
F505  66 1C     ROR $1C = 29                    A:00 X:FF Y:9E P:A4 SP:FD
F507  66 1D     ROR $1D = AD                    A:00 X:FF Y:9E P:25 SP:FD
F509  66 1E     ROR $1E = FE                    A:00 X:FF Y:9E P:A5 SP:FD
F50B  66 1F     ROR $1F = A5                    A:00 X:FF Y:9E P:A4 SP:FD
F50D  60        RTS                             A:00 X:FF Y:9E P:25 SP:FD
C7E4  4C E1 C7  JMP $C7E1                       A:00 X:FF Y:9E P:25 SP:FF
C7E1  20 ED F4  JSR $F4ED                       A:00 X:FF Y:9E P:25 SP:FF
F4ED  A5 18     LDA $18 = 3B                    A:00 X:FF Y:9E P:25 SP:FD
F4EF  29 02     AND #$02                        A:3B X:FF Y:9E P:25 SP:FD
F4F1  85 00     STA $00 = 02                    A:02 X:FF Y:9E P:25 SP:FD
F4F3  A5 19     LDA $19 = 8D                    A:02 X:FF Y:9E P:25 SP:FD
F4F5  29 02     AND #$02                        A:8D X:FF Y:9E P:A5 SP:FD
F4F7  45 00     EOR $00 = 02                    A:00 X:FF Y:9E P:27 SP:FD
F4F9  18        CLC                             A:02 X:FF Y:9E P:25 SP:FD
F4FA  F0 01     BEQ $F4FD                       A:02 X:FF Y:9E P:24 SP:FD
F4FC  38        SEC                             A:02 X:FF Y:9E P:24 SP:FD
F4FD  66 18     ROR $18 = 3B                    A:02 X:FF Y:9E P:25 SP:FD
F4FF  66 19     ROR $19 = 8D                    A:02 X:FF Y:9E P:A5 SP:FD
F501  66 1A     ROR $1A = FA                    A:02 X:FF Y:9E P:A5 SP:FD
F503  66 1B     ROR $1B = E1                    A:02 X:FF Y:9E P:A4 SP:FD
F505  66 1C     ROR $1C = 14                    A:02 X:FF Y:9E P:25 SP:FD
F507  66 1D     ROR $1D = D6                    A:02 X:FF Y:9E P:A4 SP:FD
F509  66 1E     ROR $1E = FF                    A:02 X:FF Y:9E P:24 SP:FD
F50B  66 1F     ROR $1F = 52                    A:02 X:FF Y:9E P:25 SP:FD
F50D  60        RTS                             A:02 X:FF Y:9E P:A4 SP:FD
C7E4  4C E1 C7  JMP $C7E1                       A:02 X:FF Y:9E P:A4 SP:FF
C7E1  20 ED F4  JSR $F4ED                       A:02 X:FF Y:9E P:A4 SP:FF
F4ED  A5 18     LDA $18 = 9D                    A:02 X:FF Y:9E P:A4 SP:FD
F4EF  29 02     AND #$02                        A:9D X:FF Y:9E P:A4 SP:FD
F4F1  85 00     STA $00 = 02                    A:00 X:FF Y:9E P:26 SP:FD
F4F3  A5 19     LDA $19 = C6                    A:00 X:FF Y:9E P:26 SP:FD
F4F5  29 02     AND #$02                        A:C6 X:FF Y:9E P:A4 SP:FD
F4F7  45 00     EOR $00 = 00                    A:02 X:FF Y:9E P:24 SP:FD
F4F9  18        CLC                             A:02 X:FF Y:9E P:24 SP:FD
F4FA  F0 01     BEQ $F4FD                       A:02 X:FF Y:9E P:24 SP:FD
F4FC  38        SEC                             A:02 X:FF Y:9E P:24 SP:FD
F4FD  66 18     ROR $18 = 9D                    A:02 X:FF Y:9E P:25 SP:FD
F4FF  66 19     ROR $19 = C6                    A:02 X:FF Y:9E P:A5 SP:FD
F501  66 1A     ROR $1A = FD                    A:02 X:FF Y:9E P:A4 SP:FD
F503  66 1B     ROR $1B = 70                    A:02 X:FF Y:9E P:25 SP:FD
F505  66 1C     ROR $1C = 8A                    A:02 X:FF Y:9E P:A4 SP:FD
F507  66 1D     ROR $1D = 6B                    A:02 X:FF Y:9E P:24 SP:FD
F509  66 1E     ROR $1E = 7F                    A:02 X:FF Y:9E P:25 SP:FD
F50B  66 1F     ROR $1F = A9                    A:02 X:FF Y:9E P:A5 SP:FD
F50D  60        RTS                             A:02 X:FF Y:9E P:A5 SP:FD
C7E4  4C E1 C7  JMP $C7E1                       A:02 X:FF Y:9E P:A5 SP:FF
C7E1  20 ED F4  JSR $F4ED                       A:02 X:FF Y:9E P:A5 SP:FF
F4ED  A5 18     LDA $18 = CE                    A:02 X:FF Y:9E P:A5 SP:FD
F4EF  29 02     AND #$02                        A:CE X:FF Y:9E P:A5 SP:FD
F4F1  85 00     STA $00 = 00                    A:02 X:FF Y:9E P:25 SP:FD
F4F3  A5 19     LDA $19 = E3                    A:02 X:FF Y:9E P:25 SP:FD
F4F5  29 02     AND #$02                        A:E3 X:FF Y:9E P:A5 SP:FD
F4F7  45 00     EOR $00 = 02                    A:02 X:FF Y:9E P:25 SP:FD
F4F9  18        CLC                             A:00 X:FF Y:9E P:27 SP:FD
F4FA  F0 01     BEQ $F4FD                       A:00 X:FF Y:9E P:26 SP:FD
F4FD  66 18     ROR $18 = CE                    A:00 X:FF Y:9E P:26 SP:FD
F4FF  66 19     ROR $19 = E3                    A:00 X:FF Y:9E P:24 SP:FD
F501  66 1A     ROR $1A = 7E                    A:00 X:FF Y:9E P:25 SP:FD
F503  66 1B     ROR $1B = B8                    A:00 X:FF Y:9E P:A4 SP:FD
F505  66 1C     ROR $1C = 45                    A:00 X:FF Y:9E P:24 SP:FD
F507  66 1D     ROR $1D = 35                    A:00 X:FF Y:9E P:25 SP:FD
F509  66 1E     ROR $1E = BF                    A:00 X:FF Y:9E P:A5 SP:FD
F50B  66 1F     ROR $1F = D4                    A:00 X:FF Y:9E P:A5 SP:FD
F50D  60        RTS                             A:00 X:FF Y:9E P:A4 SP:FD
C7E4  4C E1 C7  JMP $C7E1                       A:00 X:FF Y:9E P:A4 SP:FF
C7E1  20 ED F4  JSR $F4ED                       A:00 X:FF Y:9E P:A4 SP:FF
F4ED  A5 18     LDA $18 = 67                    A:00 X:FF Y:9E P:A4 SP:FD
F4EF  29 02     AND #$02                        A:67 X:FF Y:9E P:24 SP:FD
F4F1  85 00     STA $00 = 02                    A:02 X:FF Y:9E P:24 SP:FD
F4F3  A5 19     LDA $19 = 71                    A:02 X:FF Y:9E P:24 SP:FD
F4F5  29 02     AND #$02                        A:71 X:FF Y:9E P:24 SP:FD
F4F7  45 00     EOR $00 = 02                    A:00 X:FF Y:9E P:26 SP:FD
F4F9  18        CLC                             A:02 X:FF Y:9E P:24 SP:FD
F4FA  F0 01     BEQ $F4FD                       A:02 X:FF Y:9E P:24 SP:FD
F4FC  38        SEC                             A:02 X:FF Y:9E P:24 SP:FD
F4FD  66 18     ROR $18 = 67                    A:02 X:FF Y:9E P:25 SP:FD
F4FF  66 19     ROR $19 = 71                    A:02 X:FF Y:9E P:A5 SP:FD
F501  66 1A     ROR $1A = BF                    A:02 X:FF Y:9E P:A5 SP:FD
F503  66 1B     ROR $1B = 5C                    A:02 X:FF Y:9E P:A5 SP:FD
F505  66 1C     ROR $1C = 22                    A:02 X:FF Y:9E P:A4 SP:FD
F507  66 1D     ROR $1D = 9A                    A:02 X:FF Y:9E P:24 SP:FD
F509  66 1E     ROR $1E = DF                    A:02 X:FF Y:9E P:24 SP:FD
F50B  66 1F     ROR $1F = EA                    A:02 X:FF Y:9E P:25 SP:FD
F50D  60        RTS                             A:02 X:FF Y:9E P:A4 SP:FD
C7E4  4C E1 C7  JMP $C7E1                       A:02 X:FF Y:9E P:A4 SP:FF
C7E1  20 ED F4  JSR $F4ED                       A:02 X:FF Y:9E P:A4 SP:FF
F4ED  A5 18     LDA $18 = B3                    A:02 X:FF Y:9E P:A4 SP:FD
F4EF  29 02     AND #$02                        A:B3 X:FF Y:9E P:A4 SP:FD
F4F1  85 00     STA $00 = 02                    A:02 X:FF Y:9E P:24 SP:FD
F4F3  A5 19     LDA $19 = B8                    A:02 X:FF Y:9E P:24 SP:FD
F4F5  29 02     AND #$02                        A:B8 X:FF Y:9E P:A4 SP:FD
F4F7  45 00     EOR $00 = 02                    A:00 X:FF Y:9E P:26 SP:FD
F4F9  18        CLC                             A:02 X:FF Y:9E P:24 SP:FD
F4FA  F0 01     BEQ $F4FD                       A:02 X:FF Y:9E P:24 SP:FD
F4FC  38        SEC                             A:02 X:FF Y:9E P:24 SP:FD
F4FD  66 18     ROR $18 = B3                    A:02 X:FF Y:9E P:25 SP:FD
F4FF  66 19     ROR $19 = B8                    A:02 X:FF Y:9E P:A5 SP:FD
F501  66 1A     ROR $1A = DF                    A:02 X:FF Y:9E P:A4 SP:FD
F503  66 1B     ROR $1B = AE                    A:02 X:FF Y:9E P:25 SP:FD
F505  66 1C     ROR $1C = 11                    A:02 X:FF Y:9E P:A4 SP:FD
F507  66 1D     ROR $1D = 4D                    A:02 X:FF Y:9E P:25 SP:FD
F509  66 1E     ROR $1E = 6F                    A:02 X:FF Y:9E P:A5 SP:FD
F50B  66 1F     ROR $1F = F5                    A:02 X:FF Y:9E P:A5 SP:FD
F50D  60        RTS                             A:02 X:FF Y:9E P:A5 SP:FD
C7E4  4C E1 C7  JMP $C7E1                       A:02 X:FF Y:9E P:A5 SP:FF
C7E1  20 ED F4  JSR $F4ED                       A:02 X:FF Y:9E P:A5 SP:FF
F4ED  A5 18     LDA $18 = D9                    A:02 X:FF Y:9E P:A5 SP:FD
F4EF  29 02     AND #$02                        A:D9 X:FF Y:9E P:A5 SP:FD
F4F1  85 00     STA $00 = 02                    A:00 X:FF Y:9E P:27 SP:FD
F4F3  A5 19     LDA $19 = DC                    A:00 X:FF Y:9E P:27 SP:FD
F4F5  29 02     AND #$02                        A:DC X:FF Y:9E P:A5 SP:FD
F4F7  45 00     EOR $00 = 00                    A:00 X:FF Y:9E P:27 SP:FD
F4F9  18        CLC                             A:00 X:FF Y:9E P:27 SP:FD
F4FA  F0 01     BEQ $F4FD                       A:00 X:FF Y:9E P:26 SP:FD
F4FD  66 18     ROR $18 = D9                    A:00 X:FF Y:9E P:26 SP:FD
F4FF  66 19     ROR $19 = DC                    A:00 X:FF Y:9E P:25 SP:FD
F501  66 1A     ROR $1A = 6F                    A:00 X:FF Y:9E P:A4 SP:FD
F503  66 1B     ROR $1B = D7                    A:00 X:FF Y:9E P:25 SP:FD
F505  66 1C     ROR $1C = 08                    A:00 X:FF Y:9E P:A5 SP:FD
F507  66 1D     ROR $1D = A6                    A:00 X:FF Y:9E P:A4 SP:FD
F509  66 1E     ROR $1E = B7                    A:00 X:FF Y:9E P:24 SP:FD
F50B  66 1F     ROR $1F = FA                    A:00 X:FF Y:9E P:25 SP:FD
F50D  60        RTS                             A:00 X:FF Y:9E P:A4 SP:FD
C7E4  4C E1 C7  JMP $C7E1                       A:00 X:FF Y:9E P:A4 SP:FF
C7E1  20 ED F4  JSR $F4ED                       A:00 X:FF Y:9E P:A4 SP:FF
F4ED  A5 18     LDA $18 = 6C                    A:00 X:FF Y:9E P:A4 SP:FD
F4EF  29 02     AND #$02                        A:6C X:FF Y:9E P:24 SP:FD
F4F1  85 00     STA $00 = 00                    A:00 X:FF Y:9E P:26 SP:FD
F4F3  A5 19     LDA $19 = EE                    A:00 X:FF Y:9E P:26 SP:FD
F4F5  29 02     AND #$02                        A:EE X:FF Y:9E P:A4 SP:FD
F4F7  45 00     EOR $00 = 00                    A:02 X:FF Y:9E P:24 SP:FD
F4F9  18        CLC                             A:02 X:FF Y:9E P:24 SP:FD
F4FA  F0 01     BEQ $F4FD                       A:02 X:FF Y:9E P:24 SP:FD
F4FC  38        SEC                             A:02 X:FF Y:9E P:24 SP:FD
F4FD  66 18     ROR $18 = 6C                    A:02 X:FF Y:9E P:25 SP:FD
F4FF  66 19     ROR $19 = EE                    A:02 X:FF Y:9E P:A4 SP:FD
F501  66 1A     ROR $1A = 37                    A:02 X:FF Y:9E P:24 SP:FD
F503  66 1B     ROR $1B = EB                    A:02 X:FF Y:9E P:25 SP:FD
F505  66 1C     ROR $1C = 84                    A:02 X:FF Y:9E P:A5 SP:FD
F507  66 1D     ROR $1D = 53                    A:02 X:FF Y:9E P:A4 SP:FD
F509  66 1E     ROR $1E = 5B                    A:02 X:FF Y:9E P:25 SP:FD
F50B  66 1F     ROR $1F = FD                    A:02 X:FF Y:9E P:A5 SP:FD
F50D  60        RTS                             A:02 X:FF Y:9E P:A5 SP:FD
C7E4  4C E1 C7  JMP $C7E1                       A:02 X:FF Y:9E P:A5 SP:FF
C7E1  20 ED F4  JSR $F4ED                       A:02 X:FF Y:9E P:A5 SP:FF
F4ED  A5 18     LDA $18 = B6                    A:02 X:FF Y:9E P:A5 SP:FD
F4EF  29 02     AND #$02                        A:B6 X:FF Y:9E P:A5 SP:FD
F4F1  85 00     STA $00 = 00                    A:02 X:FF Y:9E P:25 SP:FD
F4F3  A5 19     LDA $19 = 77                    A:02 X:FF Y:9E P:25 SP:FD
F4F5  29 02     AND #$02                        A:77 X:FF Y:9E P:25 SP:FD
F4F7  45 00     EOR $00 = 02                    A:02 X:FF Y:9E P:25 SP:FD
F4F9  18        CLC                             A:00 X:FF Y:9E P:27 SP:FD
F4FA  F0 01     BEQ $F4FD                       A:00 X:FF Y:9E P:26 SP:FD
F4FD  66 18     ROR $18 = B6                    A:00 X:FF Y:9E P:26 SP:FD
F4FF  66 19     ROR $19 = 77                    A:00 X:FF Y:9E P:24 SP:FD
F501  66 1A     ROR $1A = 1B                    A:00 X:FF Y:9E P:25 SP:FD
F503  66 1B     ROR $1B = F5                    A:00 X:FF Y:9E P:A5 SP:FD
F505  66 1C     ROR $1C = C2                    A:00 X:FF Y:9E P:A5 SP:FD
F507  66 1D     ROR $1D = 29                    A:00 X:FF Y:9E P:A4 SP:FD
F509  66 1E     ROR $1E = AD                    A:00 X:FF Y:9E P:25 SP:FD
F50B  66 1F     ROR $1F = FE                    A:00 X:FF Y:9E P:A5 SP:FD
F50D  60        RTS                             A:00 X:FF Y:9E P:A4 SP:FD
C7E4  4C E1 C7  JMP $C7E1                       A:00 X:FF Y:9E P:A4 SP:FF
C7E1  20 ED F4  JSR $F4ED                       A:00 X:FF Y:9E P:A4 SP:FF
F4ED  A5 18     LDA $18 = 5B                    A:00 X:FF Y:9E P:A4 SP:FD
F4EF  29 02     AND #$02                        A:5B X:FF Y:9E P:24 SP:FD
F4F1  85 00     STA $00 = 02                    A:02 X:FF Y:9E P:24 SP:FD
F4F3  A5 19     LDA $19 = 3B                    A:02 X:FF Y:9E P:24 SP:FD
F4F5  29 02     AND #$02                        A:3B X:FF Y:9E P:24 SP:FD
F4F7  45 00     EOR $00 = 02                    A:02 X:FF Y:9E P:24 SP:FD
F4F9  18        CLC                             A:00 X:FF Y:9E P:26 SP:FD
F4FA  F0 01     BEQ $F4FD                       A:00 X:FF Y:9E P:26 SP:FD
F4FD  66 18     ROR $18 = 5B                    A:00 X:FF Y:9E P:26 SP:FD
F4FF  66 19     ROR $19 = 3B                    A:00 X:FF Y:9E P:25 SP:FD
F501  66 1A     ROR $1A = 8D                    A:00 X:FF Y:9E P:A5 SP:FD
F503  66 1B     ROR $1B = FA                    A:00 X:FF Y:9E P:A5 SP:FD
F505  66 1C     ROR $1C = E1                    A:00 X:FF Y:9E P:A4 SP:FD
F507  66 1D     ROR $1D = 14                    A:00 X:FF Y:9E P:25 SP:FD
F509  66 1E     ROR $1E = D6                    A:00 X:FF Y:9E P:A4 SP:FD
F50B  66 1F     ROR $1F = FF                    A:00 X:FF Y:9E P:24 SP:FD
F50D  60        RTS                             A:00 X:FF Y:9E P:25 SP:FD
C7E4  4C E1 C7  JMP $C7E1                       A:00 X:FF Y:9E P:25 SP:FF
C7E1  20 ED F4  JSR $F4ED                       A:00 X:FF Y:9E P:25 SP:FF
F4ED  A5 18     LDA $18 = 2D                    A:00 X:FF Y:9E P:25 SP:FD
F4EF  29 02     AND #$02                        A:2D X:FF Y:9E P:25 SP:FD
F4F1  85 00     STA $00 = 02                    A:00 X:FF Y:9E P:27 SP:FD
F4F3  A5 19     LDA $19 = 9D                    A:00 X:FF Y:9E P:27 SP:FD
F4F5  29 02     AND #$02                        A:9D X:FF Y:9E P:A5 SP:FD
F4F7  45 00     EOR $00 = 00                    A:00 X:FF Y:9E P:27 SP:FD
F4F9  18        CLC                             A:00 X:FF Y:9E P:27 SP:FD
F4FA  F0 01     BEQ $F4FD                       A:00 X:FF Y:9E P:26 SP:FD
F4FD  66 18     ROR $18 = 2D                    A:00 X:FF Y:9E P:26 SP:FD
F4FF  66 19     ROR $19 = 9D                    A:00 X:FF Y:9E P:25 SP:FD
F501  66 1A     ROR $1A = C6                    A:00 X:FF Y:9E P:A5 SP:FD
F503  66 1B     ROR $1B = FD                    A:00 X:FF Y:9E P:A4 SP:FD
F505  66 1C     ROR $1C = 70                    A:00 X:FF Y:9E P:25 SP:FD
F507  66 1D     ROR $1D = 8A                    A:00 X:FF Y:9E P:A4 SP:FD
F509  66 1E     ROR $1E = 6B                    A:00 X:FF Y:9E P:24 SP:FD
F50B  66 1F     ROR $1F = 7F                    A:00 X:FF Y:9E P:25 SP:FD
F50D  60        RTS                             A:00 X:FF Y:9E P:A5 SP:FD
C7E4  4C E1 C7  JMP $C7E1                       A:00 X:FF Y:9E P:A5 SP:FF
C7E1  20 ED F4  JSR $F4ED                       A:00 X:FF Y:9E P:A5 SP:FF
F4ED  A5 18     LDA $18 = 16                    A:00 X:FF Y:9E P:A5 SP:FD
F4EF  29 02     AND #$02                        A:16 X:FF Y:9E P:25 SP:FD
F4F1  85 00     STA $00 = 00                    A:02 X:FF Y:9E P:25 SP:FD
F4F3  A5 19     LDA $19 = CE                    A:02 X:FF Y:9E P:25 SP:FD
F4F5  29 02     AND #$02                        A:CE X:FF Y:9E P:A5 SP:FD
F4F7  45 00     EOR $00 = 02                    A:02 X:FF Y:9E P:25 SP:FD
F4F9  18        CLC                             A:00 X:FF Y:9E P:27 SP:FD
F4FA  F0 01     BEQ $F4FD                       A:00 X:FF Y:9E P:26 SP:FD
F4FD  66 18     ROR $18 = 16                    A:00 X:FF Y:9E P:26 SP:FD
F4FF  66 19     ROR $19 = CE                    A:00 X:FF Y:9E P:24 SP:FD
F501  66 1A     ROR $1A = E3                    A:00 X:FF Y:9E P:24 SP:FD
F503  66 1B     ROR $1B = 7E                    A:00 X:FF Y:9E P:25 SP:FD
F505  66 1C     ROR $1C = B8                    A:00 X:FF Y:9E P:A4 SP:FD
F507  66 1D     ROR $1D = 45                    A:00 X:FF Y:9E P:24 SP:FD
F509  66 1E     ROR $1E = 35                    A:00 X:FF Y:9E P:25 SP:FD
F50B  66 1F     ROR $1F = BF                    A:00 X:FF Y:9E P:A5 SP:FD
F50D  60        RTS                             A:00 X:FF Y:9E P:A5 SP:FD
C7E4  4C E1 C7  JMP $C7E1                       A:00 X:FF Y:9E P:A5 SP:FF
C7E1  20 ED F4  JSR $F4ED                       A:00 X:FF Y:9E P:A5 SP:FF
F4ED  A5 18     LDA $18 = 0B                    A:00 X:FF Y:9E P:A5 SP:FD
F4EF  29 02     AND #$02                        A:0B X:FF Y:9E P:25 SP:FD
F4F1  85 00     STA $00 = 02                    A:02 X:FF Y:9E P:25 SP:FD
F4F3  A5 19     LDA $19 = 67                    A:02 X:FF Y:9E P:25 SP:FD
F4F5  29 02     AND #$02                        A:67 X:FF Y:9E P:25 SP:FD
F4F7  45 00     EOR $00 = 02                    A:02 X:FF Y:9E P:25 SP:FD
F4F9  18        CLC                             A:00 X:FF Y:9E P:27 SP:FD
F4FA  F0 01     BEQ $F4FD                       A:00 X:FF Y:9E P:26 SP:FD
F4FD  66 18     ROR $18 = 0B                    A:00 X:FF Y:9E P:26 SP:FD
F4FF  66 19     ROR $19 = 67                    A:00 X:FF Y:9E P:25 SP:FD
F501  66 1A     ROR $1A = 71                    A:00 X:FF Y:9E P:A5 SP:FD
F503  66 1B     ROR $1B = BF                    A:00 X:FF Y:9E P:A5 SP:FD
F505  66 1C     ROR $1C = 5C                    A:00 X:FF Y:9E P:A5 SP:FD
F507  66 1D     ROR $1D = 22                    A:00 X:FF Y:9E P:A4 SP:FD
F509  66 1E     ROR $1E = 9A                    A:00 X:FF Y:9E P:24 SP:FD
F50B  66 1F     ROR $1F = DF                    A:00 X:FF Y:9E P:24 SP:FD
F50D  60        RTS                             A:00 X:FF Y:9E P:25 SP:FD
C7E4  4C E1 C7  JMP $C7E1                       A:00 X:FF Y:9E P:25 SP:FF
C7E1  20 ED F4  JSR $F4ED                       A:00 X:FF Y:9E P:25 SP:FF
F4ED  A5 18     LDA $18 = 05                    A:00 X:FF Y:9E P:25 SP:FD
F4EF  29 02     AND #$02                        A:05 X:FF Y:9E P:25 SP:FD
F4F1  85 00     STA $00 = 02                    A:00 X:FF Y:9E P:27 SP:FD
F4F3  A5 19     LDA $19 = B3                    A:00 X:FF Y:9E P:27 SP:FD
F4F5  29 02     AND #$02                        A:B3 X:FF Y:9E P:A5 SP:FD
F4F7  45 00     EOR $00 = 00                    A:02 X:FF Y:9E P:25 SP:FD
F4F9  18        CLC                             A:02 X:FF Y:9E P:25 SP:FD
F4FA  F0 01     BEQ $F4FD                       A:02 X:FF Y:9E P:24 SP:FD
F4FC  38        SEC                             A:02 X:FF Y:9E P:24 SP:FD
F4FD  66 18     ROR $18 = 05                    A:02 X:FF Y:9E P:25 SP:FD
F4FF  66 19     ROR $19 = B3                    A:02 X:FF Y:9E P:A5 SP:FD
F501  66 1A     ROR $1A = B8                    A:02 X:FF Y:9E P:A5 SP:FD
F503  66 1B     ROR $1B = DF                    A:02 X:FF Y:9E P:A4 SP:FD
F505  66 1C     ROR $1C = AE                    A:02 X:FF Y:9E P:25 SP:FD
F507  66 1D     ROR $1D = 11                    A:02 X:FF Y:9E P:A4 SP:FD
F509  66 1E     ROR $1E = 4D                    A:02 X:FF Y:9E P:25 SP:FD
F50B  66 1F     ROR $1F = 6F                    A:02 X:FF Y:9E P:A5 SP:FD
F50D  60        RTS                             A:02 X:FF Y:9E P:A5 SP:FD
C7E4  4C E1 C7  JMP $C7E1                       A:02 X:FF Y:9E P:A5 SP:FF
C7E1  20 ED F4  JSR $F4ED                       A:02 X:FF Y:9E P:A5 SP:FF
F4ED  A5 18     LDA $18 = 82                    A:02 X:FF Y:9E P:A5 SP:FD
F4EF  29 02     AND #$02                        A:82 X:FF Y:9E P:A5 SP:FD
F4F1  85 00     STA $00 = 00                    A:02 X:FF Y:9E P:25 SP:FD
F4F3  A5 19     LDA $19 = D9                    A:02 X:FF Y:9E P:25 SP:FD
F4F5  29 02     AND #$02                        A:D9 X:FF Y:9E P:A5 SP:FD
F4F7  45 00     EOR $00 = 02                    A:00 X:FF Y:9E P:27 SP:FD
F4F9  18        CLC                             A:02 X:FF Y:9E P:25 SP:FD
F4FA  F0 01     BEQ $F4FD                       A:02 X:FF Y:9E P:24 SP:FD
F4FC  38        SEC                             A:02 X:FF Y:9E P:24 SP:FD
F4FD  66 18     ROR $18 = 82                    A:02 X:FF Y:9E P:25 SP:FD
F4FF  66 19     ROR $19 = D9                    A:02 X:FF Y:9E P:A4 SP:FD
F501  66 1A     ROR $1A = DC                    A:02 X:FF Y:9E P:25 SP:FD
F503  66 1B     ROR $1B = 6F                    A:02 X:FF Y:9E P:A4 SP:FD
F505  66 1C     ROR $1C = D7                    A:02 X:FF Y:9E P:25 SP:FD
F507  66 1D     ROR $1D = 08                    A:02 X:FF Y:9E P:A5 SP:FD
F509  66 1E     ROR $1E = A6                    A:02 X:FF Y:9E P:A4 SP:FD
F50B  66 1F     ROR $1F = B7                    A:02 X:FF Y:9E P:24 SP:FD
F50D  60        RTS                             A:02 X:FF Y:9E P:25 SP:FD
C7E4  4C E1 C7  JMP $C7E1                       A:02 X:FF Y:9E P:25 SP:FF
C7E1  20 ED F4  JSR $F4ED                       A:02 X:FF Y:9E P:25 SP:FF
F4ED  A5 18     LDA $18 = C1                    A:02 X:FF Y:9E P:25 SP:FD
F4EF  29 02     AND #$02                        A:C1 X:FF Y:9E P:A5 SP:FD
F4F1  85 00     STA $00 = 02                    A:00 X:FF Y:9E P:27 SP:FD
F4F3  A5 19     LDA $19 = 6C                    A:00 X:FF Y:9E P:27 SP:FD
F4F5  29 02     AND #$02                        A:6C X:FF Y:9E P:25 SP:FD
F4F7  45 00     EOR $00 = 00                    A:00 X:FF Y:9E P:27 SP:FD
F4F9  18        CLC                             A:00 X:FF Y:9E P:27 SP:FD
F4FA  F0 01     BEQ $F4FD                       A:00 X:FF Y:9E P:26 SP:FD
F4FD  66 18     ROR $18 = C1                    A:00 X:FF Y:9E P:26 SP:FD
F4FF  66 19     ROR $19 = 6C                    A:00 X:FF Y:9E P:25 SP:FD
F501  66 1A     ROR $1A = EE                    A:00 X:FF Y:9E P:A4 SP:FD
F503  66 1B     ROR $1B = 37                    A:00 X:FF Y:9E P:24 SP:FD
F505  66 1C     ROR $1C = EB                    A:00 X:FF Y:9E P:25 SP:FD
F507  66 1D     ROR $1D = 84                    A:00 X:FF Y:9E P:A5 SP:FD
F509  66 1E     ROR $1E = 53                    A:00 X:FF Y:9E P:A4 SP:FD
F50B  66 1F     ROR $1F = 5B                    A:00 X:FF Y:9E P:25 SP:FD
F50D  60        RTS                             A:00 X:FF Y:9E P:A5 SP:FD
C7E4  4C E1 C7  JMP $C7E1                       A:00 X:FF Y:9E P:A5 SP:FF
C7E1  20 ED F4  JSR $F4ED                       A:00 X:FF Y:9E P:A5 SP:FF
F4ED  A5 18     LDA $18 = 60                    A:00 X:FF Y:9E P:A5 SP:FD
F4EF  29 02     AND #$02                        A:60 X:FF Y:9E P:25 SP:FD
F4F1  85 00     STA $00 = 00                    A:00 X:FF Y:9E P:27 SP:FD
F4F3  A5 19     LDA $19 = B6                    A:00 X:FF Y:9E P:27 SP:FD
F4F5  29 02     AND #$02                        A:B6 X:FF Y:9E P:A5 SP:FD
F4F7  45 00     EOR $00 = 00                    A:02 X:FF Y:9E P:25 SP:FD
F4F9  18        CLC                             A:02 X:FF Y:9E P:25 SP:FD
F4FA  F0 01     BEQ $F4FD                       A:02 X:FF Y:9E P:24 SP:FD
F4FC  38        SEC                             A:02 X:FF Y:9E P:24 SP:FD
F4FD  66 18     ROR $18 = 60                    A:02 X:FF Y:9E P:25 SP:FD
F4FF  66 19     ROR $19 = B6                    A:02 X:FF Y:9E P:A4 SP:FD
F501  66 1A     ROR $1A = 77                    A:02 X:FF Y:9E P:24 SP:FD
F503  66 1B     ROR $1B = 1B                    A:02 X:FF Y:9E P:25 SP:FD
F505  66 1C     ROR $1C = F5                    A:02 X:FF Y:9E P:A5 SP:FD
F507  66 1D     ROR $1D = C2                    A:02 X:FF Y:9E P:A5 SP:FD
F509  66 1E     ROR $1E = 29                    A:02 X:FF Y:9E P:A4 SP:FD
F50B  66 1F     ROR $1F = AD                    A:02 X:FF Y:9E P:25 SP:FD
F50D  60        RTS                             A:02 X:FF Y:9E P:A5 SP:FD
C7E4  4C E1 C7  JMP $C7E1                       A:02 X:FF Y:9E P:A5 SP:FF
C7E1  20 ED F4  JSR $F4ED                       A:02 X:FF Y:9E P:A5 SP:FF
F4ED  A5 18     LDA $18 = B0                    A:02 X:FF Y:9E P:A5 SP:FD
F4EF  29 02     AND #$02                        A:B0 X:FF Y:9E P:A5 SP:FD
F4F1  85 00     STA $00 = 00                    A:00 X:FF Y:9E P:27 SP:FD
F4F3  A5 19     LDA $19 = 5B                    A:00 X:FF Y:9E P:27 SP:FD
F4F5  29 02     AND #$02                        A:5B X:FF Y:9E P:25 SP:FD
F4F7  45 00     EOR $00 = 00                    A:02 X:FF Y:9E P:25 SP:FD
F4F9  18        CLC                             A:02 X:FF Y:9E P:25 SP:FD
F4FA  F0 01     BEQ $F4FD                       A:02 X:FF Y:9E P:24 SP:FD
F4FC  38        SEC                             A:02 X:FF Y:9E P:24 SP:FD
F4FD  66 18     ROR $18 = B0                    A:02 X:FF Y:9E P:25 SP:FD
F4FF  66 19     ROR $19 = 5B                    A:02 X:FF Y:9E P:A4 SP:FD
F501  66 1A     ROR $1A = 3B                    A:02 X:FF Y:9E P:25 SP:FD
F503  66 1B     ROR $1B = 8D                    A:02 X:FF Y:9E P:A5 SP:FD
F505  66 1C     ROR $1C = FA                    A:02 X:FF Y:9E P:A5 SP:FD
F507  66 1D     ROR $1D = E1                    A:02 X:FF Y:9E P:A4 SP:FD
F509  66 1E     ROR $1E = 14                    A:02 X:FF Y:9E P:25 SP:FD
F50B  66 1F     ROR $1F = D6                    A:02 X:FF Y:9E P:A4 SP:FD
F50D  60        RTS                             A:02 X:FF Y:9E P:24 SP:FD
C7E4  4C E1 C7  JMP $C7E1                       A:02 X:FF Y:9E P:24 SP:FF
C7E1  20 ED F4  JSR $F4ED                       A:02 X:FF Y:9E P:24 SP:FF
F4ED  A5 18     LDA $18 = D8                    A:02 X:FF Y:9E P:24 SP:FD
F4EF  29 02     AND #$02                        A:D8 X:FF Y:9E P:A4 SP:FD
F4F1  85 00     STA $00 = 00                    A:00 X:FF Y:9E P:26 SP:FD
F4F3  A5 19     LDA $19 = 2D                    A:00 X:FF Y:9E P:26 SP:FD
F4F5  29 02     AND #$02                        A:2D X:FF Y:9E P:24 SP:FD
F4F7  45 00     EOR $00 = 00                    A:00 X:FF Y:9E P:26 SP:FD
F4F9  18        CLC                             A:00 X:FF Y:9E P:26 SP:FD
F4FA  F0 01     BEQ $F4FD                       A:00 X:FF Y:9E P:26 SP:FD
F4FD  66 18     ROR $18 = D8                    A:00 X:FF Y:9E P:26 SP:FD
F4FF  66 19     ROR $19 = 2D                    A:00 X:FF Y:9E P:24 SP:FD
F501  66 1A     ROR $1A = 9D                    A:00 X:FF Y:9E P:25 SP:FD
F503  66 1B     ROR $1B = C6                    A:00 X:FF Y:9E P:A5 SP:FD
F505  66 1C     ROR $1C = FD                    A:00 X:FF Y:9E P:A4 SP:FD
F507  66 1D     ROR $1D = 70                    A:00 X:FF Y:9E P:25 SP:FD
F509  66 1E     ROR $1E = 8A                    A:00 X:FF Y:9E P:A4 SP:FD
F50B  66 1F     ROR $1F = 6B                    A:00 X:FF Y:9E P:24 SP:FD
F50D  60        RTS                             A:00 X:FF Y:9E P:25 SP:FD
C7E4  4C E1 C7  JMP $C7E1                       A:00 X:FF Y:9E P:25 SP:FF
C7E1  20 ED F4  JSR $F4ED                       A:00 X:FF Y:9E P:25 SP:FF
F4ED  A5 18     LDA $18 = 6C                    A:00 X:FF Y:9E P:25 SP:FD
F4EF  29 02     AND #$02                        A:6C X:FF Y:9E P:25 SP:FD
F4F1  85 00     STA $00 = 00                    A:00 X:FF Y:9E P:27 SP:FD
F4F3  A5 19     LDA $19 = 16                    A:00 X:FF Y:9E P:27 SP:FD
F4F5  29 02     AND #$02                        A:16 X:FF Y:9E P:25 SP:FD
F4F7  45 00     EOR $00 = 00                    A:02 X:FF Y:9E P:25 SP:FD
F4F9  18        CLC                             A:02 X:FF Y:9E P:25 SP:FD
F4FA  F0 01     BEQ $F4FD                       A:02 X:FF Y:9E P:24 SP:FD
F4FC  38        SEC                             A:02 X:FF Y:9E P:24 SP:FD
F4FD  66 18     ROR $18 = 6C                    A:02 X:FF Y:9E P:25 SP:FD
F4FF  66 19     ROR $19 = 16                    A:02 X:FF Y:9E P:A4 SP:FD
F501  66 1A     ROR $1A = CE                    A:02 X:FF Y:9E P:24 SP:FD
F503  66 1B     ROR $1B = E3                    A:02 X:FF Y:9E P:24 SP:FD
F505  66 1C     ROR $1C = 7E                    A:02 X:FF Y:9E P:25 SP:FD
F507  66 1D     ROR $1D = B8                    A:02 X:FF Y:9E P:A4 SP:FD
F509  66 1E     ROR $1E = 45                    A:02 X:FF Y:9E P:24 SP:FD
F50B  66 1F     ROR $1F = 35                    A:02 X:FF Y:9E P:25 SP:FD
F50D  60        RTS                             A:02 X:FF Y:9E P:A5 SP:FD
C7E4  4C E1 C7  JMP $C7E1                       A:02 X:FF Y:9E P:A5 SP:FF
C7E1  20 ED F4  JSR $F4ED                       A:02 X:FF Y:9E P:A5 SP:FF
F4ED  A5 18     LDA $18 = B6                    A:02 X:FF Y:9E P:A5 SP:FD
F4EF  29 02     AND #$02                        A:B6 X:FF Y:9E P:A5 SP:FD
F4F1  85 00     STA $00 = 00                    A:02 X:FF Y:9E P:25 SP:FD
F4F3  A5 19     LDA $19 = 0B                    A:02 X:FF Y:9E P:25 SP:FD
F4F5  29 02     AND #$02                        A:0B X:FF Y:9E P:25 SP:FD
F4F7  45 00     EOR $00 = 02                    A:02 X:FF Y:9E P:25 SP:FD
F4F9  18        CLC                             A:00 X:FF Y:9E P:27 SP:FD
F4FA  F0 01     BEQ $F4FD                       A:00 X:FF Y:9E P:26 SP:FD
F4FD  66 18     ROR $18 = B6                    A:00 X:FF Y:9E P:26 SP:FD
F4FF  66 19     ROR $19 = 0B                    A:00 X:FF Y:9E P:24 SP:FD
F501  66 1A     ROR $1A = 67                    A:00 X:FF Y:9E P:25 SP:FD
F503  66 1B     ROR $1B = 71                    A:00 X:FF Y:9E P:A5 SP:FD
F505  66 1C     ROR $1C = BF                    A:00 X:FF Y:9E P:A5 SP:FD
F507  66 1D     ROR $1D = 5C                    A:00 X:FF Y:9E P:A5 SP:FD
F509  66 1E     ROR $1E = 22                    A:00 X:FF Y:9E P:A4 SP:FD
F50B  66 1F     ROR $1F = 9A                    A:00 X:FF Y:9E P:24 SP:FD
F50D  60        RTS                             A:00 X:FF Y:9E P:24 SP:FD
C7E4  4C E1 C7  JMP $C7E1                       A:00 X:FF Y:9E P:24 SP:FF
C7E1  20 ED F4  JSR $F4ED                       A:00 X:FF Y:9E P:24 SP:FF
F4ED  A5 18     LDA $18 = 5B                    A:00 X:FF Y:9E P:24 SP:FD
F4EF  29 02     AND #$02                        A:5B X:FF Y:9E P:24 SP:FD
F4F1  85 00     STA $00 = 02                    A:02 X:FF Y:9E P:24 SP:FD
F4F3  A5 19     LDA $19 = 05                    A:02 X:FF Y:9E P:24 SP:FD
F4F5  29 02     AND #$02                        A:05 X:FF Y:9E P:24 SP:FD
F4F7  45 00     EOR $00 = 02                    A:00 X:FF Y:9E P:26 SP:FD
F4F9  18        CLC                             A:02 X:FF Y:9E P:24 SP:FD
F4FA  F0 01     BEQ $F4FD                       A:02 X:FF Y:9E P:24 SP:FD
F4FC  38        SEC                             A:02 X:FF Y:9E P:24 SP:FD
F4FD  66 18     ROR $18 = 5B                    A:02 X:FF Y:9E P:25 SP:FD
F4FF  66 19     ROR $19 = 05                    A:02 X:FF Y:9E P:A5 SP:FD
F501  66 1A     ROR $1A = B3                    A:02 X:FF Y:9E P:A5 SP:FD
F503  66 1B     ROR $1B = B8                    A:02 X:FF Y:9E P:A5 SP:FD
F505  66 1C     ROR $1C = DF                    A:02 X:FF Y:9E P:A4 SP:FD
F507  66 1D     ROR $1D = AE                    A:02 X:FF Y:9E P:25 SP:FD
F509  66 1E     ROR $1E = 11                    A:02 X:FF Y:9E P:A4 SP:FD
F50B  66 1F     ROR $1F = 4D                    A:02 X:FF Y:9E P:25 SP:FD
F50D  60        RTS                             A:02 X:FF Y:9E P:A5 SP:FD
C7E4  4C E1 C7  JMP $C7E1                       A:02 X:FF Y:9E P:A5 SP:FF
C7E1  20 ED F4  JSR $F4ED                       A:02 X:FF Y:9E P:A5 SP:FF
F4ED  A5 18     LDA $18 = AD                    A:02 X:FF Y:9E P:A5 SP:FD
F4EF  29 02     AND #$02                        A:AD X:FF Y:9E P:A5 SP:FD
F4F1  85 00     STA $00 = 02                    A:00 X:FF Y:9E P:27 SP:FD
F4F3  A5 19     LDA $19 = 82                    A:00 X:FF Y:9E P:27 SP:FD
F4F5  29 02     AND #$02                        A:82 X:FF Y:9E P:A5 SP:FD
F4F7  45 00     EOR $00 = 00                    A:02 X:FF Y:9E P:25 SP:FD
F4F9  18        CLC                             A:02 X:FF Y:9E P:25 SP:FD
F4FA  F0 01     BEQ $F4FD                       A:02 X:FF Y:9E P:24 SP:FD
F4FC  38        SEC                             A:02 X:FF Y:9E P:24 SP:FD
F4FD  66 18     ROR $18 = AD                    A:02 X:FF Y:9E P:25 SP:FD
F4FF  66 19     ROR $19 = 82                    A:02 X:FF Y:9E P:A5 SP:FD
F501  66 1A     ROR $1A = D9                    A:02 X:FF Y:9E P:A4 SP:FD
F503  66 1B     ROR $1B = DC                    A:02 X:FF Y:9E P:25 SP:FD
F505  66 1C     ROR $1C = 6F                    A:02 X:FF Y:9E P:A4 SP:FD
F507  66 1D     ROR $1D = D7                    A:02 X:FF Y:9E P:25 SP:FD
F509  66 1E     ROR $1E = 08                    A:02 X:FF Y:9E P:A5 SP:FD
F50B  66 1F     ROR $1F = A6                    A:02 X:FF Y:9E P:A4 SP:FD
F50D  60        RTS                             A:02 X:FF Y:9E P:24 SP:FD
C7E4  4C E1 C7  JMP $C7E1                       A:02 X:FF Y:9E P:24 SP:FF
C7E1  20 ED F4  JSR $F4ED                       A:02 X:FF Y:9E P:24 SP:FF
F4ED  A5 18     LDA $18 = D6                    A:02 X:FF Y:9E P:24 SP:FD
F4EF  29 02     AND #$02                        A:D6 X:FF Y:9E P:A4 SP:FD
F4F1  85 00     STA $00 = 00                    A:02 X:FF Y:9E P:24 SP:FD
F4F3  A5 19     LDA $19 = C1                    A:02 X:FF Y:9E P:24 SP:FD
F4F5  29 02     AND #$02                        A:C1 X:FF Y:9E P:A4 SP:FD
F4F7  45 00     EOR $00 = 02                    A:00 X:FF Y:9E P:26 SP:FD
F4F9  18        CLC                             A:02 X:FF Y:9E P:24 SP:FD
F4FA  F0 01     BEQ $F4FD                       A:02 X:FF Y:9E P:24 SP:FD
F4FC  38        SEC                             A:02 X:FF Y:9E P:24 SP:FD
F4FD  66 18     ROR $18 = D6                    A:02 X:FF Y:9E P:25 SP:FD
F4FF  66 19     ROR $19 = C1                    A:02 X:FF Y:9E P:A4 SP:FD
F501  66 1A     ROR $1A = 6C                    A:02 X:FF Y:9E P:25 SP:FD
F503  66 1B     ROR $1B = EE                    A:02 X:FF Y:9E P:A4 SP:FD
F505  66 1C     ROR $1C = 37                    A:02 X:FF Y:9E P:24 SP:FD
F507  66 1D     ROR $1D = EB                    A:02 X:FF Y:9E P:25 SP:FD
F509  66 1E     ROR $1E = 84                    A:02 X:FF Y:9E P:A5 SP:FD
F50B  66 1F     ROR $1F = 53                    A:02 X:FF Y:9E P:A4 SP:FD
F50D  60        RTS                             A:02 X:FF Y:9E P:25 SP:FD
C7E4  4C E1 C7  JMP $C7E1                       A:02 X:FF Y:9E P:25 SP:FF
C7E1  20 ED F4  JSR $F4ED                       A:02 X:FF Y:9E P:25 SP:FF
F4ED  A5 18     LDA $18 = EB                    A:02 X:FF Y:9E P:25 SP:FD
F4EF  29 02     AND #$02                        A:EB X:FF Y:9E P:A5 SP:FD
F4F1  85 00     STA $00 = 02                    A:02 X:FF Y:9E P:25 SP:FD
F4F3  A5 19     LDA $19 = 60                    A:02 X:FF Y:9E P:25 SP:FD
F4F5  29 02     AND #$02                        A:60 X:FF Y:9E P:25 SP:FD
F4F7  45 00     EOR $00 = 02                    A:00 X:FF Y:9E P:27 SP:FD
F4F9  18        CLC                             A:02 X:FF Y:9E P:25 SP:FD
F4FA  F0 01     BEQ $F4FD                       A:02 X:FF Y:9E P:24 SP:FD
F4FC  38        SEC                             A:02 X:FF Y:9E P:24 SP:FD
F4FD  66 18     ROR $18 = EB                    A:02 X:FF Y:9E P:25 SP:FD
F4FF  66 19     ROR $19 = 60                    A:02 X:FF Y:9E P:A5 SP:FD
F501  66 1A     ROR $1A = B6                    A:02 X:FF Y:9E P:A4 SP:FD
F503  66 1B     ROR $1B = 77                    A:02 X:FF Y:9E P:24 SP:FD
F505  66 1C     ROR $1C = 1B                    A:02 X:FF Y:9E P:25 SP:FD
F507  66 1D     ROR $1D = F5                    A:02 X:FF Y:9E P:A5 SP:FD
F509  66 1E     ROR $1E = C2                    A:02 X:FF Y:9E P:A5 SP:FD
F50B  66 1F     ROR $1F = 29                    A:02 X:FF Y:9E P:A4 SP:FD
F50D  60        RTS                             A:02 X:FF Y:9E P:25 SP:FD
C7E4  4C E1 C7  JMP $C7E1                       A:02 X:FF Y:9E P:25 SP:FF
C7E1  20 ED F4  JSR $F4ED                       A:02 X:FF Y:9E P:25 SP:FF
F4ED  A5 18     LDA $18 = F5                    A:02 X:FF Y:9E P:25 SP:FD
F4EF  29 02     AND #$02                        A:F5 X:FF Y:9E P:A5 SP:FD
F4F1  85 00     STA $00 = 02                    A:00 X:FF Y:9E P:27 SP:FD
F4F3  A5 19     LDA $19 = B0                    A:00 X:FF Y:9E P:27 SP:FD
F4F5  29 02     AND #$02                        A:B0 X:FF Y:9E P:A5 SP:FD
F4F7  45 00     EOR $00 = 00                    A:00 X:FF Y:9E P:27 SP:FD
F4F9  18        CLC                             A:00 X:FF Y:9E P:27 SP:FD
F4FA  F0 01     BEQ $F4FD                       A:00 X:FF Y:9E P:26 SP:FD
F4FD  66 18     ROR $18 = F5                    A:00 X:FF Y:9E P:26 SP:FD
F4FF  66 19     ROR $19 = B0                    A:00 X:FF Y:9E P:25 SP:FD
F501  66 1A     ROR $1A = 5B                    A:00 X:FF Y:9E P:A4 SP:FD
F503  66 1B     ROR $1B = 3B                    A:00 X:FF Y:9E P:25 SP:FD
F505  66 1C     ROR $1C = 8D                    A:00 X:FF Y:9E P:A5 SP:FD
F507  66 1D     ROR $1D = FA                    A:00 X:FF Y:9E P:A5 SP:FD
F509  66 1E     ROR $1E = E1                    A:00 X:FF Y:9E P:A4 SP:FD
F50B  66 1F     ROR $1F = 14                    A:00 X:FF Y:9E P:25 SP:FD
F50D  60        RTS                             A:00 X:FF Y:9E P:A4 SP:FD
C7E4  4C E1 C7  JMP $C7E1                       A:00 X:FF Y:9E P:A4 SP:FF
C7E1  20 ED F4  JSR $F4ED                       A:00 X:FF Y:9E P:A4 SP:FF
F4ED  A5 18     LDA $18 = 7A                    A:00 X:FF Y:9E P:A4 SP:FD
F4EF  29 02     AND #$02                        A:7A X:FF Y:9E P:24 SP:FD
F4F1  85 00     STA $00 = 00                    A:02 X:FF Y:9E P:24 SP:FD
F4F3  A5 19     LDA $19 = D8                    A:02 X:FF Y:9E P:24 SP:FD
F4F5  29 02     AND #$02                        A:D8 X:FF Y:9E P:A4 SP:FD
F4F7  45 00     EOR $00 = 02                    A:00 X:FF Y:9E P:26 SP:FD
F4F9  18        CLC                             A:02 X:FF Y:9E P:24 SP:FD
F4FA  F0 01     BEQ $F4FD                       A:02 X:FF Y:9E P:24 SP:FD
F4FC  38        SEC                             A:02 X:FF Y:9E P:24 SP:FD
F4FD  66 18     ROR $18 = 7A                    A:02 X:FF Y:9E P:25 SP:FD
F4FF  66 19     ROR $19 = D8                    A:02 X:FF Y:9E P:A4 SP:FD
F501  66 1A     ROR $1A = 2D                    A:02 X:FF Y:9E P:24 SP:FD
F503  66 1B     ROR $1B = 9D                    A:02 X:FF Y:9E P:25 SP:FD
F505  66 1C     ROR $1C = C6                    A:02 X:FF Y:9E P:A5 SP:FD
F507  66 1D     ROR $1D = FD                    A:02 X:FF Y:9E P:A4 SP:FD
F509  66 1E     ROR $1E = 70                    A:02 X:FF Y:9E P:25 SP:FD
F50B  66 1F     ROR $1F = 8A                    A:02 X:FF Y:9E P:A4 SP:FD
F50D  60        RTS                             A:02 X:FF Y:9E P:24 SP:FD
C7E4  4C E1 C7  JMP $C7E1                       A:02 X:FF Y:9E P:24 SP:FF
C7E1  20 ED F4  JSR $F4ED                       A:02 X:FF Y:9E P:24 SP:FF
F4ED  A5 18     LDA $18 = BD                    A:02 X:FF Y:9E P:24 SP:FD
F4EF  29 02     AND #$02                        A:BD X:FF Y:9E P:A4 SP:FD
F4F1  85 00     STA $00 = 02                    A:00 X:FF Y:9E P:26 SP:FD
F4F3  A5 19     LDA $19 = 6C                    A:00 X:FF Y:9E P:26 SP:FD
F4F5  29 02     AND #$02                        A:6C X:FF Y:9E P:24 SP:FD
F4F7  45 00     EOR $00 = 00                    A:00 X:FF Y:9E P:26 SP:FD
F4F9  18        CLC                             A:00 X:FF Y:9E P:26 SP:FD
F4FA  F0 01     BEQ $F4FD                       A:00 X:FF Y:9E P:26 SP:FD
F4FD  66 18     ROR $18 = BD                    A:00 X:FF Y:9E P:26 SP:FD
F4FF  66 19     ROR $19 = 6C                    A:00 X:FF Y:9E P:25 SP:FD
F501  66 1A     ROR $1A = 16                    A:00 X:FF Y:9E P:A4 SP:FD
F503  66 1B     ROR $1B = CE                    A:00 X:FF Y:9E P:24 SP:FD
F505  66 1C     ROR $1C = E3                    A:00 X:FF Y:9E P:24 SP:FD
F507  66 1D     ROR $1D = 7E                    A:00 X:FF Y:9E P:25 SP:FD
F509  66 1E     ROR $1E = B8                    A:00 X:FF Y:9E P:A4 SP:FD
F50B  66 1F     ROR $1F = 45                    A:00 X:FF Y:9E P:24 SP:FD
F50D  60        RTS                             A:00 X:FF Y:9E P:25 SP:FD
C7E4  4C E1 C7  JMP $C7E1                       A:00 X:FF Y:9E P:25 SP:FF
C7E1  20 ED F4  JSR $F4ED                       A:00 X:FF Y:9E P:25 SP:FF
F4ED  A5 18     LDA $18 = 5E                    A:00 X:FF Y:9E P:25 SP:FD
F4EF  29 02     AND #$02                        A:5E X:FF Y:9E P:25 SP:FD
F4F1  85 00     STA $00 = 00                    A:02 X:FF Y:9E P:25 SP:FD
F4F3  A5 19     LDA $19 = B6                    A:02 X:FF Y:9E P:25 SP:FD
F4F5  29 02     AND #$02                        A:B6 X:FF Y:9E P:A5 SP:FD
F4F7  45 00     EOR $00 = 02                    A:02 X:FF Y:9E P:25 SP:FD
F4F9  18        CLC                             A:00 X:FF Y:9E P:27 SP:FD
F4FA  F0 01     BEQ $F4FD                       A:00 X:FF Y:9E P:26 SP:FD
F4FD  66 18     ROR $18 = 5E                    A:00 X:FF Y:9E P:26 SP:FD
F4FF  66 19     ROR $19 = B6                    A:00 X:FF Y:9E P:24 SP:FD
F501  66 1A     ROR $1A = 0B                    A:00 X:FF Y:9E P:24 SP:FD
F503  66 1B     ROR $1B = 67                    A:00 X:FF Y:9E P:25 SP:FD
F505  66 1C     ROR $1C = 71                    A:00 X:FF Y:9E P:A5 SP:FD
F507  66 1D     ROR $1D = BF                    A:00 X:FF Y:9E P:A5 SP:FD
F509  66 1E     ROR $1E = 5C                    A:00 X:FF Y:9E P:A5 SP:FD
F50B  66 1F     ROR $1F = 22                    A:00 X:FF Y:9E P:A4 SP:FD
F50D  60        RTS                             A:00 X:FF Y:9E P:24 SP:FD
C7E4  4C E1 C7  JMP $C7E1                       A:00 X:FF Y:9E P:24 SP:FF
C7E1  20 ED F4  JSR $F4ED                       A:00 X:FF Y:9E P:24 SP:FF
F4ED  A5 18     LDA $18 = 2F                    A:00 X:FF Y:9E P:24 SP:FD
F4EF  29 02     AND #$02                        A:2F X:FF Y:9E P:24 SP:FD
F4F1  85 00     STA $00 = 02                    A:02 X:FF Y:9E P:24 SP:FD
F4F3  A5 19     LDA $19 = 5B                    A:02 X:FF Y:9E P:24 SP:FD
F4F5  29 02     AND #$02                        A:5B X:FF Y:9E P:24 SP:FD
F4F7  45 00     EOR $00 = 02                    A:02 X:FF Y:9E P:24 SP:FD
F4F9  18        CLC                             A:00 X:FF Y:9E P:26 SP:FD
F4FA  F0 01     BEQ $F4FD                       A:00 X:FF Y:9E P:26 SP:FD
F4FD  66 18     ROR $18 = 2F                    A:00 X:FF Y:9E P:26 SP:FD
F4FF  66 19     ROR $19 = 5B                    A:00 X:FF Y:9E P:25 SP:FD
F501  66 1A     ROR $1A = 05                    A:00 X:FF Y:9E P:A5 SP:FD
F503  66 1B     ROR $1B = B3                    A:00 X:FF Y:9E P:A5 SP:FD
F505  66 1C     ROR $1C = B8                    A:00 X:FF Y:9E P:A5 SP:FD
F507  66 1D     ROR $1D = DF                    A:00 X:FF Y:9E P:A4 SP:FD
F509  66 1E     ROR $1E = AE                    A:00 X:FF Y:9E P:25 SP:FD
F50B  66 1F     ROR $1F = 11                    A:00 X:FF Y:9E P:A4 SP:FD
F50D  60        RTS                             A:00 X:FF Y:9E P:25 SP:FD
C7E4  4C E1 C7  JMP $C7E1                       A:00 X:FF Y:9E P:25 SP:FF
C7E1  20 ED F4  JSR $F4ED                       A:00 X:FF Y:9E P:25 SP:FF
F4ED  A5 18     LDA $18 = 17                    A:00 X:FF Y:9E P:25 SP:FD
F4EF  29 02     AND #$02                        A:17 X:FF Y:9E P:25 SP:FD
F4F1  85 00     STA $00 = 02                    A:02 X:FF Y:9E P:25 SP:FD
F4F3  A5 19     LDA $19 = AD                    A:02 X:FF Y:9E P:25 SP:FD
F4F5  29 02     AND #$02                        A:AD X:FF Y:9E P:A5 SP:FD
F4F7  45 00     EOR $00 = 02                    A:00 X:FF Y:9E P:27 SP:FD
F4F9  18        CLC                             A:02 X:FF Y:9E P:25 SP:FD
F4FA  F0 01     BEQ $F4FD                       A:02 X:FF Y:9E P:24 SP:FD
F4FC  38        SEC                             A:02 X:FF Y:9E P:24 SP:FD
F4FD  66 18     ROR $18 = 17                    A:02 X:FF Y:9E P:25 SP:FD
F4FF  66 19     ROR $19 = AD                    A:02 X:FF Y:9E P:A5 SP:FD
F501  66 1A     ROR $1A = 82                    A:02 X:FF Y:9E P:A5 SP:FD
F503  66 1B     ROR $1B = D9                    A:02 X:FF Y:9E P:A4 SP:FD
F505  66 1C     ROR $1C = DC                    A:02 X:FF Y:9E P:25 SP:FD
F507  66 1D     ROR $1D = 6F                    A:02 X:FF Y:9E P:A4 SP:FD
F509  66 1E     ROR $1E = D7                    A:02 X:FF Y:9E P:25 SP:FD
F50B  66 1F     ROR $1F = 08                    A:02 X:FF Y:9E P:A5 SP:FD
F50D  60        RTS                             A:02 X:FF Y:9E P:A4 SP:FD
C7E4  4C E1 C7  JMP $C7E1                       A:02 X:FF Y:9E P:A4 SP:FF
C7E1  20 ED F4  JSR $F4ED                       A:02 X:FF Y:9E P:A4 SP:FF
F4ED  A5 18     LDA $18 = 8B                    A:02 X:FF Y:9E P:A4 SP:FD
F4EF  29 02     AND #$02                        A:8B X:FF Y:9E P:A4 SP:FD
F4F1  85 00     STA $00 = 02                    A:02 X:FF Y:9E P:24 SP:FD
F4F3  A5 19     LDA $19 = D6                    A:02 X:FF Y:9E P:24 SP:FD
F4F5  29 02     AND #$02                        A:D6 X:FF Y:9E P:A4 SP:FD
F4F7  45 00     EOR $00 = 02                    A:02 X:FF Y:9E P:24 SP:FD
F4F9  18        CLC                             A:00 X:FF Y:9E P:26 SP:FD
F4FA  F0 01     BEQ $F4FD                       A:00 X:FF Y:9E P:26 SP:FD
F4FD  66 18     ROR $18 = 8B                    A:00 X:FF Y:9E P:26 SP:FD
F4FF  66 19     ROR $19 = D6                    A:00 X:FF Y:9E P:25 SP:FD
F501  66 1A     ROR $1A = C1                    A:00 X:FF Y:9E P:A4 SP:FD
F503  66 1B     ROR $1B = 6C                    A:00 X:FF Y:9E P:25 SP:FD
F505  66 1C     ROR $1C = EE                    A:00 X:FF Y:9E P:A4 SP:FD
F507  66 1D     ROR $1D = 37                    A:00 X:FF Y:9E P:24 SP:FD
F509  66 1E     ROR $1E = EB                    A:00 X:FF Y:9E P:25 SP:FD
F50B  66 1F     ROR $1F = 84                    A:00 X:FF Y:9E P:A5 SP:FD
F50D  60        RTS                             A:00 X:FF Y:9E P:A4 SP:FD
C7E4  4C E1 C7  JMP $C7E1                       A:00 X:FF Y:9E P:A4 SP:FF
C7E1  20 ED F4  JSR $F4ED                       A:00 X:FF Y:9E P:A4 SP:FF
F4ED  A5 18     LDA $18 = 45                    A:00 X:FF Y:9E P:A4 SP:FD
F4EF  29 02     AND #$02                        A:45 X:FF Y:9E P:24 SP:FD
F4F1  85 00     STA $00 = 02                    A:00 X:FF Y:9E P:26 SP:FD
F4F3  A5 19     LDA $19 = EB                    A:00 X:FF Y:9E P:26 SP:FD
F4F5  29 02     AND #$02                        A:EB X:FF Y:9E P:A4 SP:FD
F4F7  45 00     EOR $00 = 00                    A:02 X:FF Y:9E P:24 SP:FD
F4F9  18        CLC                             A:02 X:FF Y:9E P:24 SP:FD
F4FA  F0 01     BEQ $F4FD                       A:02 X:FF Y:9E P:24 SP:FD
F4FC  38        SEC                             A:02 X:FF Y:9E P:24 SP:FD
F4FD  66 18     ROR $18 = 45                    A:02 X:FF Y:9E P:25 SP:FD
F4FF  66 19     ROR $19 = EB                    A:02 X:FF Y:9E P:A5 SP:FD
F501  66 1A     ROR $1A = 60                    A:02 X:FF Y:9E P:A5 SP:FD
F503  66 1B     ROR $1B = B6                    A:02 X:FF Y:9E P:A4 SP:FD
F505  66 1C     ROR $1C = 77                    A:02 X:FF Y:9E P:24 SP:FD
F507  66 1D     ROR $1D = 1B                    A:02 X:FF Y:9E P:25 SP:FD
F509  66 1E     ROR $1E = F5                    A:02 X:FF Y:9E P:A5 SP:FD
F50B  66 1F     ROR $1F = C2                    A:02 X:FF Y:9E P:A5 SP:FD
F50D  60        RTS                             A:02 X:FF Y:9E P:A4 SP:FD
C7E4  4C E1 C7  JMP $C7E1                       A:02 X:FF Y:9E P:A4 SP:FF
C7E1  20 ED F4  JSR $F4ED                       A:02 X:FF Y:9E P:A4 SP:FF
F4ED  A5 18     LDA $18 = A2                    A:02 X:FF Y:9E P:A4 SP:FD
F4EF  29 02     AND #$02                        A:A2 X:FF Y:9E P:A4 SP:FD
F4F1  85 00     STA $00 = 00                    A:02 X:FF Y:9E P:24 SP:FD
F4F3  A5 19     LDA $19 = F5                    A:02 X:FF Y:9E P:24 SP:FD
F4F5  29 02     AND #$02                        A:F5 X:FF Y:9E P:A4 SP:FD
F4F7  45 00     EOR $00 = 02                    A:00 X:FF Y:9E P:26 SP:FD
F4F9  18        CLC                             A:02 X:FF Y:9E P:24 SP:FD
F4FA  F0 01     BEQ $F4FD                       A:02 X:FF Y:9E P:24 SP:FD
F4FC  38        SEC                             A:02 X:FF Y:9E P:24 SP:FD
F4FD  66 18     ROR $18 = A2                    A:02 X:FF Y:9E P:25 SP:FD
F4FF  66 19     ROR $19 = F5                    A:02 X:FF Y:9E P:A4 SP:FD
F501  66 1A     ROR $1A = B0                    A:02 X:FF Y:9E P:25 SP:FD
F503  66 1B     ROR $1B = 5B                    A:02 X:FF Y:9E P:A4 SP:FD
F505  66 1C     ROR $1C = 3B                    A:02 X:FF Y:9E P:25 SP:FD
F507  66 1D     ROR $1D = 8D                    A:02 X:FF Y:9E P:A5 SP:FD
F509  66 1E     ROR $1E = FA                    A:02 X:FF Y:9E P:A5 SP:FD
F50B  66 1F     ROR $1F = E1                    A:02 X:FF Y:9E P:A4 SP:FD
F50D  60        RTS                             A:02 X:FF Y:9E P:25 SP:FD
C7E4  4C E1 C7  JMP $C7E1                       A:02 X:FF Y:9E P:25 SP:FF
C7E1  20 ED F4  JSR $F4ED                       A:02 X:FF Y:9E P:25 SP:FF
F4ED  A5 18     LDA $18 = D1                    A:02 X:FF Y:9E P:25 SP:FD
F4EF  29 02     AND #$02                        A:D1 X:FF Y:9E P:A5 SP:FD
F4F1  85 00     STA $00 = 02                    A:00 X:FF Y:9E P:27 SP:FD
F4F3  A5 19     LDA $19 = 7A                    A:00 X:FF Y:9E P:27 SP:FD
F4F5  29 02     AND #$02                        A:7A X:FF Y:9E P:25 SP:FD
F4F7  45 00     EOR $00 = 00                    A:02 X:FF Y:9E P:25 SP:FD
F4F9  18        CLC                             A:02 X:FF Y:9E P:25 SP:FD
F4FA  F0 01     BEQ $F4FD                       A:02 X:FF Y:9E P:24 SP:FD
F4FC  38        SEC                             A:02 X:FF Y:9E P:24 SP:FD
F4FD  66 18     ROR $18 = D1                    A:02 X:FF Y:9E P:25 SP:FD
F4FF  66 19     ROR $19 = 7A                    A:02 X:FF Y:9E P:A5 SP:FD
F501  66 1A     ROR $1A = D8                    A:02 X:FF Y:9E P:A4 SP:FD
F503  66 1B     ROR $1B = 2D                    A:02 X:FF Y:9E P:24 SP:FD
F505  66 1C     ROR $1C = 9D                    A:02 X:FF Y:9E P:25 SP:FD
F507  66 1D     ROR $1D = C6                    A:02 X:FF Y:9E P:A5 SP:FD
F509  66 1E     ROR $1E = FD                    A:02 X:FF Y:9E P:A4 SP:FD
F50B  66 1F     ROR $1F = 70                    A:02 X:FF Y:9E P:25 SP:FD
F50D  60        RTS                             A:02 X:FF Y:9E P:A4 SP:FD
C7E4  4C E1 C7  JMP $C7E1                       A:02 X:FF Y:9E P:A4 SP:FF
C7E1  20 ED F4  JSR $F4ED                       A:02 X:FF Y:9E P:A4 SP:FF
F4ED  A5 18     LDA $18 = E8                    A:02 X:FF Y:9E P:A4 SP:FD
F4EF  29 02     AND #$02                        A:E8 X:FF Y:9E P:A4 SP:FD
F4F1  85 00     STA $00 = 00                    A:00 X:FF Y:9E P:26 SP:FD
F4F3  A5 19     LDA $19 = BD                    A:00 X:FF Y:9E P:26 SP:FD
F4F5  29 02     AND #$02                        A:BD X:FF Y:9E P:A4 SP:FD
F4F7  45 00     EOR $00 = 00                    A:00 X:FF Y:9E P:26 SP:FD
F4F9  18        CLC                             A:00 X:FF Y:9E P:26 SP:FD
F4FA  F0 01     BEQ $F4FD                       A:00 X:FF Y:9E P:26 SP:FD
F4FD  66 18     ROR $18 = E8                    A:00 X:FF Y:9E P:26 SP:FD
F4FF  66 19     ROR $19 = BD                    A:00 X:FF Y:9E P:24 SP:FD
F501  66 1A     ROR $1A = 6C                    A:00 X:FF Y:9E P:25 SP:FD
F503  66 1B     ROR $1B = 16                    A:00 X:FF Y:9E P:A4 SP:FD
F505  66 1C     ROR $1C = CE                    A:00 X:FF Y:9E P:24 SP:FD
F507  66 1D     ROR $1D = E3                    A:00 X:FF Y:9E P:24 SP:FD
F509  66 1E     ROR $1E = 7E                    A:00 X:FF Y:9E P:25 SP:FD
F50B  66 1F     ROR $1F = B8                    A:00 X:FF Y:9E P:A4 SP:FD
F50D  60        RTS                             A:00 X:FF Y:9E P:24 SP:FD
C7E4  4C E1 C7  JMP $C7E1                       A:00 X:FF Y:9E P:24 SP:FF
C7E1  20 ED F4  JSR $F4ED                       A:00 X:FF Y:9E P:24 SP:FF
F4ED  A5 18     LDA $18 = 74                    A:00 X:FF Y:9E P:24 SP:FD
F4EF  29 02     AND #$02                        A:74 X:FF Y:9E P:24 SP:FD
F4F1  85 00     STA $00 = 00                    A:00 X:FF Y:9E P:26 SP:FD
F4F3  A5 19     LDA $19 = 5E                    A:00 X:FF Y:9E P:26 SP:FD
F4F5  29 02     AND #$02                        A:5E X:FF Y:9E P:24 SP:FD
F4F7  45 00     EOR $00 = 00                    A:02 X:FF Y:9E P:24 SP:FD
F4F9  18        CLC                             A:02 X:FF Y:9E P:24 SP:FD
F4FA  F0 01     BEQ $F4FD                       A:02 X:FF Y:9E P:24 SP:FD
F4FC  38        SEC                             A:02 X:FF Y:9E P:24 SP:FD
F4FD  66 18     ROR $18 = 74                    A:02 X:FF Y:9E P:25 SP:FD
F4FF  66 19     ROR $19 = 5E                    A:02 X:FF Y:9E P:A4 SP:FD
F501  66 1A     ROR $1A = B6                    A:02 X:FF Y:9E P:24 SP:FD
F503  66 1B     ROR $1B = 0B                    A:02 X:FF Y:9E P:24 SP:FD
F505  66 1C     ROR $1C = 67                    A:02 X:FF Y:9E P:25 SP:FD
F507  66 1D     ROR $1D = 71                    A:02 X:FF Y:9E P:A5 SP:FD
F509  66 1E     ROR $1E = BF                    A:02 X:FF Y:9E P:A5 SP:FD
F50B  66 1F     ROR $1F = 5C                    A:02 X:FF Y:9E P:A5 SP:FD
F50D  60        RTS                             A:02 X:FF Y:9E P:A4 SP:FD
C7E4  4C E1 C7  JMP $C7E1                       A:02 X:FF Y:9E P:A4 SP:FF
C7E1  20 ED F4  JSR $F4ED                       A:02 X:FF Y:9E P:A4 SP:FF
F4ED  A5 18     LDA $18 = BA                    A:02 X:FF Y:9E P:A4 SP:FD
F4EF  29 02     AND #$02                        A:BA X:FF Y:9E P:A4 SP:FD
F4F1  85 00     STA $00 = 00                    A:02 X:FF Y:9E P:24 SP:FD
F4F3  A5 19     LDA $19 = 2F                    A:02 X:FF Y:9E P:24 SP:FD
F4F5  29 02     AND #$02                        A:2F X:FF Y:9E P:24 SP:FD
F4F7  45 00     EOR $00 = 02                    A:02 X:FF Y:9E P:24 SP:FD
F4F9  18        CLC                             A:00 X:FF Y:9E P:26 SP:FD
F4FA  F0 01     BEQ $F4FD                       A:00 X:FF Y:9E P:26 SP:FD
F4FD  66 18     ROR $18 = BA                    A:00 X:FF Y:9E P:26 SP:FD
F4FF  66 19     ROR $19 = 2F                    A:00 X:FF Y:9E P:24 SP:FD
F501  66 1A     ROR $1A = 5B                    A:00 X:FF Y:9E P:25 SP:FD
F503  66 1B     ROR $1B = 05                    A:00 X:FF Y:9E P:A5 SP:FD
F505  66 1C     ROR $1C = B3                    A:00 X:FF Y:9E P:A5 SP:FD
F507  66 1D     ROR $1D = B8                    A:00 X:FF Y:9E P:A5 SP:FD
F509  66 1E     ROR $1E = DF                    A:00 X:FF Y:9E P:A4 SP:FD
F50B  66 1F     ROR $1F = AE                    A:00 X:FF Y:9E P:25 SP:FD
F50D  60        RTS                             A:00 X:FF Y:9E P:A4 SP:FD
C7E4  4C E1 C7  JMP $C7E1                       A:00 X:FF Y:9E P:A4 SP:FF
C7E1  20 ED F4  JSR $F4ED                       A:00 X:FF Y:9E P:A4 SP:FF
F4ED  A5 18     LDA $18 = 5D                    A:00 X:FF Y:9E P:A4 SP:FD
F4EF  29 02     AND #$02                        A:5D X:FF Y:9E P:24 SP:FD
F4F1  85 00     STA $00 = 02                    A:00 X:FF Y:9E P:26 SP:FD
F4F3  A5 19     LDA $19 = 17                    A:00 X:FF Y:9E P:26 SP:FD
F4F5  29 02     AND #$02                        A:17 X:FF Y:9E P:24 SP:FD
F4F7  45 00     EOR $00 = 00                    A:02 X:FF Y:9E P:24 SP:FD
F4F9  18        CLC                             A:02 X:FF Y:9E P:24 SP:FD
F4FA  F0 01     BEQ $F4FD                       A:02 X:FF Y:9E P:24 SP:FD
F4FC  38        SEC                             A:02 X:FF Y:9E P:24 SP:FD
F4FD  66 18     ROR $18 = 5D                    A:02 X:FF Y:9E P:25 SP:FD
F4FF  66 19     ROR $19 = 17                    A:02 X:FF Y:9E P:A5 SP:FD
F501  66 1A     ROR $1A = AD                    A:02 X:FF Y:9E P:A5 SP:FD
F503  66 1B     ROR $1B = 82                    A:02 X:FF Y:9E P:A5 SP:FD
F505  66 1C     ROR $1C = D9                    A:02 X:FF Y:9E P:A4 SP:FD
F507  66 1D     ROR $1D = DC                    A:02 X:FF Y:9E P:25 SP:FD
F509  66 1E     ROR $1E = 6F                    A:02 X:FF Y:9E P:A4 SP:FD
F50B  66 1F     ROR $1F = D7                    A:02 X:FF Y:9E P:25 SP:FD
F50D  60        RTS                             A:02 X:FF Y:9E P:A5 SP:FD
C7E4  4C E1 C7  JMP $C7E1                       A:02 X:FF Y:9E P:A5 SP:FF
C7E1  20 ED F4  JSR $F4ED                       A:02 X:FF Y:9E P:A5 SP:FF
F4ED  A5 18     LDA $18 = AE                    A:02 X:FF Y:9E P:A5 SP:FD
F4EF  29 02     AND #$02                        A:AE X:FF Y:9E P:A5 SP:FD
F4F1  85 00     STA $00 = 00                    A:02 X:FF Y:9E P:25 SP:FD
F4F3  A5 19     LDA $19 = 8B                    A:02 X:FF Y:9E P:25 SP:FD
F4F5  29 02     AND #$02                        A:8B X:FF Y:9E P:A5 SP:FD
F4F7  45 00     EOR $00 = 02                    A:02 X:FF Y:9E P:25 SP:FD
F4F9  18        CLC                             A:00 X:FF Y:9E P:27 SP:FD
F4FA  F0 01     BEQ $F4FD                       A:00 X:FF Y:9E P:26 SP:FD
F4FD  66 18     ROR $18 = AE                    A:00 X:FF Y:9E P:26 SP:FD
F4FF  66 19     ROR $19 = 8B                    A:00 X:FF Y:9E P:24 SP:FD
F501  66 1A     ROR $1A = D6                    A:00 X:FF Y:9E P:25 SP:FD
F503  66 1B     ROR $1B = C1                    A:00 X:FF Y:9E P:A4 SP:FD
F505  66 1C     ROR $1C = 6C                    A:00 X:FF Y:9E P:25 SP:FD
F507  66 1D     ROR $1D = EE                    A:00 X:FF Y:9E P:A4 SP:FD
F509  66 1E     ROR $1E = 37                    A:00 X:FF Y:9E P:24 SP:FD
F50B  66 1F     ROR $1F = EB                    A:00 X:FF Y:9E P:25 SP:FD
F50D  60        RTS                             A:00 X:FF Y:9E P:A5 SP:FD
C7E4  4C E1 C7  JMP $C7E1                       A:00 X:FF Y:9E P:A5 SP:FF
C7E1  20 ED F4  JSR $F4ED                       A:00 X:FF Y:9E P:A5 SP:FF
F4ED  A5 18     LDA $18 = 57                    A:00 X:FF Y:9E P:A5 SP:FD
F4EF  29 02     AND #$02                        A:57 X:FF Y:9E P:25 SP:FD
F4F1  85 00     STA $00 = 02                    A:02 X:FF Y:9E P:25 SP:FD
F4F3  A5 19     LDA $19 = 45                    A:02 X:FF Y:9E P:25 SP:FD
F4F5  29 02     AND #$02                        A:45 X:FF Y:9E P:25 SP:FD
F4F7  45 00     EOR $00 = 02                    A:00 X:FF Y:9E P:27 SP:FD
F4F9  18        CLC                             A:02 X:FF Y:9E P:25 SP:FD
F4FA  F0 01     BEQ $F4FD                       A:02 X:FF Y:9E P:24 SP:FD
F4FC  38        SEC                             A:02 X:FF Y:9E P:24 SP:FD
F4FD  66 18     ROR $18 = 57                    A:02 X:FF Y:9E P:25 SP:FD
F4FF  66 19     ROR $19 = 45                    A:02 X:FF Y:9E P:A5 SP:FD
F501  66 1A     ROR $1A = EB                    A:02 X:FF Y:9E P:A5 SP:FD
F503  66 1B     ROR $1B = 60                    A:02 X:FF Y:9E P:A5 SP:FD
F505  66 1C     ROR $1C = B6                    A:02 X:FF Y:9E P:A4 SP:FD
F507  66 1D     ROR $1D = 77                    A:02 X:FF Y:9E P:24 SP:FD
F509  66 1E     ROR $1E = 1B                    A:02 X:FF Y:9E P:25 SP:FD
F50B  66 1F     ROR $1F = F5                    A:02 X:FF Y:9E P:A5 SP:FD
F50D  60        RTS                             A:02 X:FF Y:9E P:A5 SP:FD
C7E4  4C E1 C7  JMP $C7E1                       A:02 X:FF Y:9E P:A5 SP:FF
C7E1  20 ED F4  JSR $F4ED                       A:02 X:FF Y:9E P:A5 SP:FF
F4ED  A5 18     LDA $18 = AB                    A:02 X:FF Y:9E P:A5 SP:FD
F4EF  29 02     AND #$02                        A:AB X:FF Y:9E P:A5 SP:FD
F4F1  85 00     STA $00 = 02                    A:02 X:FF Y:9E P:25 SP:FD
F4F3  A5 19     LDA $19 = A2                    A:02 X:FF Y:9E P:25 SP:FD
F4F5  29 02     AND #$02                        A:A2 X:FF Y:9E P:A5 SP:FD
F4F7  45 00     EOR $00 = 02                    A:02 X:FF Y:9E P:25 SP:FD
F4F9  18        CLC                             A:00 X:FF Y:9E P:27 SP:FD
F4FA  F0 01     BEQ $F4FD                       A:00 X:FF Y:9E P:26 SP:FD
F4FD  66 18     ROR $18 = AB                    A:00 X:FF Y:9E P:26 SP:FD
F4FF  66 19     ROR $19 = A2                    A:00 X:FF Y:9E P:25 SP:FD
F501  66 1A     ROR $1A = F5                    A:00 X:FF Y:9E P:A4 SP:FD
F503  66 1B     ROR $1B = B0                    A:00 X:FF Y:9E P:25 SP:FD
F505  66 1C     ROR $1C = 5B                    A:00 X:FF Y:9E P:A4 SP:FD
F507  66 1D     ROR $1D = 3B                    A:00 X:FF Y:9E P:25 SP:FD
F509  66 1E     ROR $1E = 8D                    A:00 X:FF Y:9E P:A5 SP:FD
F50B  66 1F     ROR $1F = FA                    A:00 X:FF Y:9E P:A5 SP:FD
F50D  60        RTS                             A:00 X:FF Y:9E P:A4 SP:FD
C7E4  4C E1 C7  JMP $C7E1                       A:00 X:FF Y:9E P:A4 SP:FF
C7E1  20 ED F4  JSR $F4ED                       A:00 X:FF Y:9E P:A4 SP:FF
F4ED  A5 18     LDA $18 = 55                    A:00 X:FF Y:9E P:A4 SP:FD
F4EF  29 02     AND #$02                        A:55 X:FF Y:9E P:24 SP:FD
F4F1  85 00     STA $00 = 02                    A:00 X:FF Y:9E P:26 SP:FD
F4F3  A5 19     LDA $19 = D1                    A:00 X:FF Y:9E P:26 SP:FD
F4F5  29 02     AND #$02                        A:D1 X:FF Y:9E P:A4 SP:FD
F4F7  45 00     EOR $00 = 00                    A:00 X:FF Y:9E P:26 SP:FD
F4F9  18        CLC                             A:00 X:FF Y:9E P:26 SP:FD
F4FA  F0 01     BEQ $F4FD                       A:00 X:FF Y:9E P:26 SP:FD
F4FD  66 18     ROR $18 = 55                    A:00 X:FF Y:9E P:26 SP:FD
F4FF  66 19     ROR $19 = D1                    A:00 X:FF Y:9E P:25 SP:FD
F501  66 1A     ROR $1A = 7A                    A:00 X:FF Y:9E P:A5 SP:FD
F503  66 1B     ROR $1B = D8                    A:00 X:FF Y:9E P:A4 SP:FD
F505  66 1C     ROR $1C = 2D                    A:00 X:FF Y:9E P:24 SP:FD
F507  66 1D     ROR $1D = 9D                    A:00 X:FF Y:9E P:25 SP:FD
F509  66 1E     ROR $1E = C6                    A:00 X:FF Y:9E P:A5 SP:FD
F50B  66 1F     ROR $1F = FD                    A:00 X:FF Y:9E P:A4 SP:FD
F50D  60        RTS                             A:00 X:FF Y:9E P:25 SP:FD
C7E4  4C E1 C7  JMP $C7E1                       A:00 X:FF Y:9E P:25 SP:FF
C7E1  20 ED F4  JSR $F4ED                       A:00 X:FF Y:9E P:25 SP:FF
F4ED  A5 18     LDA $18 = 2A                    A:00 X:FF Y:9E P:25 SP:FD
F4EF  29 02     AND #$02                        A:2A X:FF Y:9E P:25 SP:FD
F4F1  85 00     STA $00 = 00                    A:02 X:FF Y:9E P:25 SP:FD
F4F3  A5 19     LDA $19 = E8                    A:02 X:FF Y:9E P:25 SP:FD
F4F5  29 02     AND #$02                        A:E8 X:FF Y:9E P:A5 SP:FD
F4F7  45 00     EOR $00 = 02                    A:00 X:FF Y:9E P:27 SP:FD
F4F9  18        CLC                             A:02 X:FF Y:9E P:25 SP:FD
F4FA  F0 01     BEQ $F4FD                       A:02 X:FF Y:9E P:24 SP:FD
F4FC  38        SEC                             A:02 X:FF Y:9E P:24 SP:FD
F4FD  66 18     ROR $18 = 2A                    A:02 X:FF Y:9E P:25 SP:FD
F4FF  66 19     ROR $19 = E8                    A:02 X:FF Y:9E P:A4 SP:FD
F501  66 1A     ROR $1A = BD                    A:02 X:FF Y:9E P:24 SP:FD
F503  66 1B     ROR $1B = 6C                    A:02 X:FF Y:9E P:25 SP:FD
F505  66 1C     ROR $1C = 16                    A:02 X:FF Y:9E P:A4 SP:FD
F507  66 1D     ROR $1D = CE                    A:02 X:FF Y:9E P:24 SP:FD
F509  66 1E     ROR $1E = E3                    A:02 X:FF Y:9E P:24 SP:FD
F50B  66 1F     ROR $1F = 7E                    A:02 X:FF Y:9E P:25 SP:FD
F50D  60        RTS                             A:02 X:FF Y:9E P:A4 SP:FD
C7E4  4C E1 C7  JMP $C7E1                       A:02 X:FF Y:9E P:A4 SP:FF
C7E1  20 ED F4  JSR $F4ED                       A:02 X:FF Y:9E P:A4 SP:FF
F4ED  A5 18     LDA $18 = 95                    A:02 X:FF Y:9E P:A4 SP:FD
F4EF  29 02     AND #$02                        A:95 X:FF Y:9E P:A4 SP:FD
F4F1  85 00     STA $00 = 02                    A:00 X:FF Y:9E P:26 SP:FD
F4F3  A5 19     LDA $19 = 74                    A:00 X:FF Y:9E P:26 SP:FD
F4F5  29 02     AND #$02                        A:74 X:FF Y:9E P:24 SP:FD
F4F7  45 00     EOR $00 = 00                    A:00 X:FF Y:9E P:26 SP:FD
F4F9  18        CLC                             A:00 X:FF Y:9E P:26 SP:FD
F4FA  F0 01     BEQ $F4FD                       A:00 X:FF Y:9E P:26 SP:FD
F4FD  66 18     ROR $18 = 95                    A:00 X:FF Y:9E P:26 SP:FD
F4FF  66 19     ROR $19 = 74                    A:00 X:FF Y:9E P:25 SP:FD
F501  66 1A     ROR $1A = 5E                    A:00 X:FF Y:9E P:A4 SP:FD
F503  66 1B     ROR $1B = B6                    A:00 X:FF Y:9E P:24 SP:FD
F505  66 1C     ROR $1C = 0B                    A:00 X:FF Y:9E P:24 SP:FD
F507  66 1D     ROR $1D = 67                    A:00 X:FF Y:9E P:25 SP:FD
F509  66 1E     ROR $1E = 71                    A:00 X:FF Y:9E P:A5 SP:FD
F50B  66 1F     ROR $1F = BF                    A:00 X:FF Y:9E P:A5 SP:FD
F50D  60        RTS                             A:00 X:FF Y:9E P:A5 SP:FD
C7E4  4C E1 C7  JMP $C7E1                       A:00 X:FF Y:9E P:A5 SP:FF
C7E1  20 ED F4  JSR $F4ED                       A:00 X:FF Y:9E P:A5 SP:FF
F4ED  A5 18     LDA $18 = 4A                    A:00 X:FF Y:9E P:A5 SP:FD
F4EF  29 02     AND #$02                        A:4A X:FF Y:9E P:25 SP:FD
F4F1  85 00     STA $00 = 00                    A:02 X:FF Y:9E P:25 SP:FD
F4F3  A5 19     LDA $19 = BA                    A:02 X:FF Y:9E P:25 SP:FD
F4F5  29 02     AND #$02                        A:BA X:FF Y:9E P:A5 SP:FD
F4F7  45 00     EOR $00 = 02                    A:02 X:FF Y:9E P:25 SP:FD
F4F9  18        CLC                             A:00 X:FF Y:9E P:27 SP:FD
F4FA  F0 01     BEQ $F4FD                       A:00 X:FF Y:9E P:26 SP:FD
F4FD  66 18     ROR $18 = 4A                    A:00 X:FF Y:9E P:26 SP:FD
F4FF  66 19     ROR $19 = BA                    A:00 X:FF Y:9E P:24 SP:FD
F501  66 1A     ROR $1A = 2F                    A:00 X:FF Y:9E P:24 SP:FD
F503  66 1B     ROR $1B = 5B                    A:00 X:FF Y:9E P:25 SP:FD
F505  66 1C     ROR $1C = 05                    A:00 X:FF Y:9E P:A5 SP:FD
F507  66 1D     ROR $1D = B3                    A:00 X:FF Y:9E P:A5 SP:FD
F509  66 1E     ROR $1E = B8                    A:00 X:FF Y:9E P:A5 SP:FD
F50B  66 1F     ROR $1F = DF                    A:00 X:FF Y:9E P:A4 SP:FD
F50D  60        RTS                             A:00 X:FF Y:9E P:25 SP:FD
C7E4  4C E1 C7  JMP $C7E1                       A:00 X:FF Y:9E P:25 SP:FF
C7E1  20 ED F4  JSR $F4ED                       A:00 X:FF Y:9E P:25 SP:FF
F4ED  A5 18     LDA $18 = 25                    A:00 X:FF Y:9E P:25 SP:FD
F4EF  29 02     AND #$02                        A:25 X:FF Y:9E P:25 SP:FD
F4F1  85 00     STA $00 = 02                    A:00 X:FF Y:9E P:27 SP:FD
F4F3  A5 19     LDA $19 = 5D                    A:00 X:FF Y:9E P:27 SP:FD
F4F5  29 02     AND #$02                        A:5D X:FF Y:9E P:25 SP:FD
F4F7  45 00     EOR $00 = 00                    A:00 X:FF Y:9E P:27 SP:FD
F4F9  18        CLC                             A:00 X:FF Y:9E P:27 SP:FD
F4FA  F0 01     BEQ $F4FD                       A:00 X:FF Y:9E P:26 SP:FD
F4FD  66 18     ROR $18 = 25                    A:00 X:FF Y:9E P:26 SP:FD
F4FF  66 19     ROR $19 = 5D                    A:00 X:FF Y:9E P:25 SP:FD
F501  66 1A     ROR $1A = 17                    A:00 X:FF Y:9E P:A5 SP:FD
F503  66 1B     ROR $1B = AD                    A:00 X:FF Y:9E P:A5 SP:FD
F505  66 1C     ROR $1C = 82                    A:00 X:FF Y:9E P:A5 SP:FD
F507  66 1D     ROR $1D = D9                    A:00 X:FF Y:9E P:A4 SP:FD
F509  66 1E     ROR $1E = DC                    A:00 X:FF Y:9E P:25 SP:FD
F50B  66 1F     ROR $1F = 6F                    A:00 X:FF Y:9E P:A4 SP:FD
F50D  60        RTS                             A:00 X:FF Y:9E P:25 SP:FD
C7E4  4C E1 C7  JMP $C7E1                       A:00 X:FF Y:9E P:25 SP:FF
C7E1  20 ED F4  JSR $F4ED                       A:00 X:FF Y:9E P:25 SP:FF
F4ED  A5 18     LDA $18 = 12                    A:00 X:FF Y:9E P:25 SP:FD
F4EF  29 02     AND #$02                        A:12 X:FF Y:9E P:25 SP:FD
F4F1  85 00     STA $00 = 00                    A:02 X:FF Y:9E P:25 SP:FD
F4F3  A5 19     LDA $19 = AE                    A:02 X:FF Y:9E P:25 SP:FD
F4F5  29 02     AND #$02                        A:AE X:FF Y:9E P:A5 SP:FD
F4F7  45 00     EOR $00 = 02                    A:02 X:FF Y:9E P:25 SP:FD
F4F9  18        CLC                             A:00 X:FF Y:9E P:27 SP:FD
F4FA  F0 01     BEQ $F4FD                       A:00 X:FF Y:9E P:26 SP:FD
F4FD  66 18     ROR $18 = 12                    A:00 X:FF Y:9E P:26 SP:FD
F4FF  66 19     ROR $19 = AE                    A:00 X:FF Y:9E P:24 SP:FD
F501  66 1A     ROR $1A = 8B                    A:00 X:FF Y:9E P:24 SP:FD
F503  66 1B     ROR $1B = D6                    A:00 X:FF Y:9E P:25 SP:FD
F505  66 1C     ROR $1C = C1                    A:00 X:FF Y:9E P:A4 SP:FD
F507  66 1D     ROR $1D = 6C                    A:00 X:FF Y:9E P:25 SP:FD
F509  66 1E     ROR $1E = EE                    A:00 X:FF Y:9E P:A4 SP:FD
F50B  66 1F     ROR $1F = 37                    A:00 X:FF Y:9E P:24 SP:FD
F50D  60        RTS                             A:00 X:FF Y:9E P:25 SP:FD
C7E4  4C E1 C7  JMP $C7E1                       A:00 X:FF Y:9E P:25 SP:FF
C7E1  20 ED F4  JSR $F4ED                       A:00 X:FF Y:9E P:25 SP:FF
F4ED  A5 18     LDA $18 = 09                    A:00 X:FF Y:9E P:25 SP:FD
F4EF  29 02     AND #$02                        A:09 X:FF Y:9E P:25 SP:FD
F4F1  85 00     STA $00 = 02                    A:00 X:FF Y:9E P:27 SP:FD
F4F3  A5 19     LDA $19 = 57                    A:00 X:FF Y:9E P:27 SP:FD
F4F5  29 02     AND #$02                        A:57 X:FF Y:9E P:25 SP:FD
F4F7  45 00     EOR $00 = 00                    A:02 X:FF Y:9E P:25 SP:FD
F4F9  18        CLC                             A:02 X:FF Y:9E P:25 SP:FD
F4FA  F0 01     BEQ $F4FD                       A:02 X:FF Y:9E P:24 SP:FD
F4FC  38        SEC                             A:02 X:FF Y:9E P:24 SP:FD
F4FD  66 18     ROR $18 = 09                    A:02 X:FF Y:9E P:25 SP:FD
F4FF  66 19     ROR $19 = 57                    A:02 X:FF Y:9E P:A5 SP:FD
F501  66 1A     ROR $1A = 45                    A:02 X:FF Y:9E P:A5 SP:FD
F503  66 1B     ROR $1B = EB                    A:02 X:FF Y:9E P:A5 SP:FD
F505  66 1C     ROR $1C = 60                    A:02 X:FF Y:9E P:A5 SP:FD
F507  66 1D     ROR $1D = B6                    A:02 X:FF Y:9E P:A4 SP:FD
F509  66 1E     ROR $1E = 77                    A:02 X:FF Y:9E P:24 SP:FD
F50B  66 1F     ROR $1F = 1B                    A:02 X:FF Y:9E P:25 SP:FD
F50D  60        RTS                             A:02 X:FF Y:9E P:A5 SP:FD
C7E4  4C E1 C7  JMP $C7E1                       A:02 X:FF Y:9E P:A5 SP:FF
C7E1  20 ED F4  JSR $F4ED                       A:02 X:FF Y:9E P:A5 SP:FF
F4ED  A5 18     LDA $18 = 84                    A:02 X:FF Y:9E P:A5 SP:FD
F4EF  29 02     AND #$02                        A:84 X:FF Y:9E P:A5 SP:FD
F4F1  85 00     STA $00 = 00                    A:00 X:FF Y:9E P:27 SP:FD
F4F3  A5 19     LDA $19 = AB                    A:00 X:FF Y:9E P:27 SP:FD
F4F5  29 02     AND #$02                        A:AB X:FF Y:9E P:A5 SP:FD
F4F7  45 00     EOR $00 = 00                    A:02 X:FF Y:9E P:25 SP:FD
F4F9  18        CLC                             A:02 X:FF Y:9E P:25 SP:FD
F4FA  F0 01     BEQ $F4FD                       A:02 X:FF Y:9E P:24 SP:FD
F4FC  38        SEC                             A:02 X:FF Y:9E P:24 SP:FD
F4FD  66 18     ROR $18 = 84                    A:02 X:FF Y:9E P:25 SP:FD
F4FF  66 19     ROR $19 = AB                    A:02 X:FF Y:9E P:A4 SP:FD
F501  66 1A     ROR $1A = A2                    A:02 X:FF Y:9E P:25 SP:FD
F503  66 1B     ROR $1B = F5                    A:02 X:FF Y:9E P:A4 SP:FD
F505  66 1C     ROR $1C = B0                    A:02 X:FF Y:9E P:25 SP:FD
F507  66 1D     ROR $1D = 5B                    A:02 X:FF Y:9E P:A4 SP:FD
F509  66 1E     ROR $1E = 3B                    A:02 X:FF Y:9E P:25 SP:FD
F50B  66 1F     ROR $1F = 8D                    A:02 X:FF Y:9E P:A5 SP:FD
F50D  60        RTS                             A:02 X:FF Y:9E P:A5 SP:FD
C7E4  4C E1 C7  JMP $C7E1                       A:02 X:FF Y:9E P:A5 SP:FF
C7E1  20 ED F4  JSR $F4ED                       A:02 X:FF Y:9E P:A5 SP:FF
F4ED  A5 18     LDA $18 = C2                    A:02 X:FF Y:9E P:A5 SP:FD
F4EF  29 02     AND #$02                        A:C2 X:FF Y:9E P:A5 SP:FD
F4F1  85 00     STA $00 = 00                    A:02 X:FF Y:9E P:25 SP:FD
F4F3  A5 19     LDA $19 = 55                    A:02 X:FF Y:9E P:25 SP:FD
F4F5  29 02     AND #$02                        A:55 X:FF Y:9E P:25 SP:FD
F4F7  45 00     EOR $00 = 02                    A:00 X:FF Y:9E P:27 SP:FD
F4F9  18        CLC                             A:02 X:FF Y:9E P:25 SP:FD
F4FA  F0 01     BEQ $F4FD                       A:02 X:FF Y:9E P:24 SP:FD
F4FC  38        SEC                             A:02 X:FF Y:9E P:24 SP:FD
F4FD  66 18     ROR $18 = C2                    A:02 X:FF Y:9E P:25 SP:FD
F4FF  66 19     ROR $19 = 55                    A:02 X:FF Y:9E P:A4 SP:FD
F501  66 1A     ROR $1A = D1                    A:02 X:FF Y:9E P:25 SP:FD
F503  66 1B     ROR $1B = 7A                    A:02 X:FF Y:9E P:A5 SP:FD
F505  66 1C     ROR $1C = D8                    A:02 X:FF Y:9E P:A4 SP:FD
F507  66 1D     ROR $1D = 2D                    A:02 X:FF Y:9E P:24 SP:FD
F509  66 1E     ROR $1E = 9D                    A:02 X:FF Y:9E P:25 SP:FD
F50B  66 1F     ROR $1F = C6                    A:02 X:FF Y:9E P:A5 SP:FD
F50D  60        RTS                             A:02 X:FF Y:9E P:A4 SP:FD
C7E4  4C E1 C7  JMP $C7E1                       A:02 X:FF Y:9E P:A4 SP:FF
C7E1  20 ED F4  JSR $F4ED                       A:02 X:FF Y:9E P:A4 SP:FF
F4ED  A5 18     LDA $18 = E1                    A:02 X:FF Y:9E P:A4 SP:FD
F4EF  29 02     AND #$02                        A:E1 X:FF Y:9E P:A4 SP:FD
F4F1  85 00     STA $00 = 02                    A:00 X:FF Y:9E P:26 SP:FD
F4F3  A5 19     LDA $19 = 2A                    A:00 X:FF Y:9E P:26 SP:FD
F4F5  29 02     AND #$02                        A:2A X:FF Y:9E P:24 SP:FD
F4F7  45 00     EOR $00 = 00                    A:02 X:FF Y:9E P:24 SP:FD
F4F9  18        CLC                             A:02 X:FF Y:9E P:24 SP:FD
F4FA  F0 01     BEQ $F4FD                       A:02 X:FF Y:9E P:24 SP:FD
F4FC  38        SEC                             A:02 X:FF Y:9E P:24 SP:FD
F4FD  66 18     ROR $18 = E1                    A:02 X:FF Y:9E P:25 SP:FD
F4FF  66 19     ROR $19 = 2A                    A:02 X:FF Y:9E P:A5 SP:FD
F501  66 1A     ROR $1A = E8                    A:02 X:FF Y:9E P:A4 SP:FD
F503  66 1B     ROR $1B = BD                    A:02 X:FF Y:9E P:24 SP:FD
F505  66 1C     ROR $1C = 6C                    A:02 X:FF Y:9E P:25 SP:FD
F507  66 1D     ROR $1D = 16                    A:02 X:FF Y:9E P:A4 SP:FD
F509  66 1E     ROR $1E = CE                    A:02 X:FF Y:9E P:24 SP:FD
F50B  66 1F     ROR $1F = E3                    A:02 X:FF Y:9E P:24 SP:FD
F50D  60        RTS                             A:02 X:FF Y:9E P:25 SP:FD
C7E4  4C E1 C7  JMP $C7E1                       A:02 X:FF Y:9E P:25 SP:FF
C7E1  20 ED F4  JSR $F4ED                       A:02 X:FF Y:9E P:25 SP:FF
F4ED  A5 18     LDA $18 = F0                    A:02 X:FF Y:9E P:25 SP:FD
F4EF  29 02     AND #$02                        A:F0 X:FF Y:9E P:A5 SP:FD
F4F1  85 00     STA $00 = 00                    A:00 X:FF Y:9E P:27 SP:FD
F4F3  A5 19     LDA $19 = 95                    A:00 X:FF Y:9E P:27 SP:FD
F4F5  29 02     AND #$02                        A:95 X:FF Y:9E P:A5 SP:FD
F4F7  45 00     EOR $00 = 00                    A:00 X:FF Y:9E P:27 SP:FD
F4F9  18        CLC                             A:00 X:FF Y:9E P:27 SP:FD
F4FA  F0 01     BEQ $F4FD                       A:00 X:FF Y:9E P:26 SP:FD
F4FD  66 18     ROR $18 = F0                    A:00 X:FF Y:9E P:26 SP:FD
F4FF  66 19     ROR $19 = 95                    A:00 X:FF Y:9E P:24 SP:FD
F501  66 1A     ROR $1A = 74                    A:00 X:FF Y:9E P:25 SP:FD
F503  66 1B     ROR $1B = 5E                    A:00 X:FF Y:9E P:A4 SP:FD
F505  66 1C     ROR $1C = B6                    A:00 X:FF Y:9E P:24 SP:FD
F507  66 1D     ROR $1D = 0B                    A:00 X:FF Y:9E P:24 SP:FD
F509  66 1E     ROR $1E = 67                    A:00 X:FF Y:9E P:25 SP:FD
F50B  66 1F     ROR $1F = 71                    A:00 X:FF Y:9E P:A5 SP:FD
F50D  60        RTS                             A:00 X:FF Y:9E P:A5 SP:FD
C7E4  4C E1 C7  JMP $C7E1                       A:00 X:FF Y:9E P:A5 SP:FF
C7E1  20 ED F4  JSR $F4ED                       A:00 X:FF Y:9E P:A5 SP:FF
F4ED  A5 18     LDA $18 = 78                    A:00 X:FF Y:9E P:A5 SP:FD
F4EF  29 02     AND #$02                        A:78 X:FF Y:9E P:25 SP:FD
F4F1  85 00     STA $00 = 00                    A:00 X:FF Y:9E P:27 SP:FD
F4F3  A5 19     LDA $19 = 4A                    A:00 X:FF Y:9E P:27 SP:FD
F4F5  29 02     AND #$02                        A:4A X:FF Y:9E P:25 SP:FD
F4F7  45 00     EOR $00 = 00                    A:02 X:FF Y:9E P:25 SP:FD
F4F9  18        CLC                             A:02 X:FF Y:9E P:25 SP:FD
F4FA  F0 01     BEQ $F4FD                       A:02 X:FF Y:9E P:24 SP:FD
F4FC  38        SEC                             A:02 X:FF Y:9E P:24 SP:FD
F4FD  66 18     ROR $18 = 78                    A:02 X:FF Y:9E P:25 SP:FD
F4FF  66 19     ROR $19 = 4A                    A:02 X:FF Y:9E P:A4 SP:FD
F501  66 1A     ROR $1A = BA                    A:02 X:FF Y:9E P:24 SP:FD
F503  66 1B     ROR $1B = 2F                    A:02 X:FF Y:9E P:24 SP:FD
F505  66 1C     ROR $1C = 5B                    A:02 X:FF Y:9E P:25 SP:FD
F507  66 1D     ROR $1D = 05                    A:02 X:FF Y:9E P:A5 SP:FD
F509  66 1E     ROR $1E = B3                    A:02 X:FF Y:9E P:A5 SP:FD
F50B  66 1F     ROR $1F = B8                    A:02 X:FF Y:9E P:A5 SP:FD
F50D  60        RTS                             A:02 X:FF Y:9E P:A4 SP:FD
C7E4  4C E1 C7  JMP $C7E1                       A:02 X:FF Y:9E P:A4 SP:FF
C7E1  20 ED F4  JSR $F4ED                       A:02 X:FF Y:9E P:A4 SP:FF
F4ED  A5 18     LDA $18 = BC                    A:02 X:FF Y:9E P:A4 SP:FD
F4EF  29 02     AND #$02                        A:BC X:FF Y:9E P:A4 SP:FD
F4F1  85 00     STA $00 = 00                    A:00 X:FF Y:9E P:26 SP:FD
F4F3  A5 19     LDA $19 = 25                    A:00 X:FF Y:9E P:26 SP:FD
F4F5  29 02     AND #$02                        A:25 X:FF Y:9E P:24 SP:FD
F4F7  45 00     EOR $00 = 00                    A:00 X:FF Y:9E P:26 SP:FD
F4F9  18        CLC                             A:00 X:FF Y:9E P:26 SP:FD
F4FA  F0 01     BEQ $F4FD                       A:00 X:FF Y:9E P:26 SP:FD
F4FD  66 18     ROR $18 = BC                    A:00 X:FF Y:9E P:26 SP:FD
F4FF  66 19     ROR $19 = 25                    A:00 X:FF Y:9E P:24 SP:FD
F501  66 1A     ROR $1A = 5D                    A:00 X:FF Y:9E P:25 SP:FD
F503  66 1B     ROR $1B = 17                    A:00 X:FF Y:9E P:A5 SP:FD
F505  66 1C     ROR $1C = AD                    A:00 X:FF Y:9E P:A5 SP:FD
F507  66 1D     ROR $1D = 82                    A:00 X:FF Y:9E P:A5 SP:FD
F509  66 1E     ROR $1E = D9                    A:00 X:FF Y:9E P:A4 SP:FD
F50B  66 1F     ROR $1F = DC                    A:00 X:FF Y:9E P:25 SP:FD
F50D  60        RTS                             A:00 X:FF Y:9E P:A4 SP:FD
C7E4  4C E1 C7  JMP $C7E1                       A:00 X:FF Y:9E P:A4 SP:FF
C7E1  20 ED F4  JSR $F4ED                       A:00 X:FF Y:9E P:A4 SP:FF
F4ED  A5 18     LDA $18 = 5E                    A:00 X:FF Y:9E P:A4 SP:FD
F4EF  29 02     AND #$02                        A:5E X:FF Y:9E P:24 SP:FD
F4F1  85 00     STA $00 = 00                    A:02 X:FF Y:9E P:24 SP:FD
F4F3  A5 19     LDA $19 = 12                    A:02 X:FF Y:9E P:24 SP:FD
F4F5  29 02     AND #$02                        A:12 X:FF Y:9E P:24 SP:FD
F4F7  45 00     EOR $00 = 02                    A:02 X:FF Y:9E P:24 SP:FD
F4F9  18        CLC                             A:00 X:FF Y:9E P:26 SP:FD
F4FA  F0 01     BEQ $F4FD                       A:00 X:FF Y:9E P:26 SP:FD
F4FD  66 18     ROR $18 = 5E                    A:00 X:FF Y:9E P:26 SP:FD
F4FF  66 19     ROR $19 = 12                    A:00 X:FF Y:9E P:24 SP:FD
F501  66 1A     ROR $1A = AE                    A:00 X:FF Y:9E P:24 SP:FD
F503  66 1B     ROR $1B = 8B                    A:00 X:FF Y:9E P:24 SP:FD
F505  66 1C     ROR $1C = D6                    A:00 X:FF Y:9E P:25 SP:FD
F507  66 1D     ROR $1D = C1                    A:00 X:FF Y:9E P:A4 SP:FD
F509  66 1E     ROR $1E = 6C                    A:00 X:FF Y:9E P:25 SP:FD
F50B  66 1F     ROR $1F = EE                    A:00 X:FF Y:9E P:A4 SP:FD
F50D  60        RTS                             A:00 X:FF Y:9E P:24 SP:FD
C7E4  4C E1 C7  JMP $C7E1                       A:00 X:FF Y:9E P:24 SP:FF
C7E1  20 ED F4  JSR $F4ED                       A:00 X:FF Y:9E P:24 SP:FF
F4ED  A5 18     LDA $18 = 2F                    A:00 X:FF Y:9E P:24 SP:FD
F4EF  29 02     AND #$02                        A:2F X:FF Y:9E P:24 SP:FD
F4F1  85 00     STA $00 = 02                    A:02 X:FF Y:9E P:24 SP:FD
F4F3  A5 19     LDA $19 = 09                    A:02 X:FF Y:9E P:24 SP:FD
F4F5  29 02     AND #$02                        A:09 X:FF Y:9E P:24 SP:FD
F4F7  45 00     EOR $00 = 02                    A:00 X:FF Y:9E P:26 SP:FD
F4F9  18        CLC                             A:02 X:FF Y:9E P:24 SP:FD
F4FA  F0 01     BEQ $F4FD                       A:02 X:FF Y:9E P:24 SP:FD
F4FC  38        SEC                             A:02 X:FF Y:9E P:24 SP:FD
F4FD  66 18     ROR $18 = 2F                    A:02 X:FF Y:9E P:25 SP:FD
F4FF  66 19     ROR $19 = 09                    A:02 X:FF Y:9E P:A5 SP:FD
F501  66 1A     ROR $1A = 57                    A:02 X:FF Y:9E P:A5 SP:FD
F503  66 1B     ROR $1B = 45                    A:02 X:FF Y:9E P:A5 SP:FD
F505  66 1C     ROR $1C = EB                    A:02 X:FF Y:9E P:A5 SP:FD
F507  66 1D     ROR $1D = 60                    A:02 X:FF Y:9E P:A5 SP:FD
F509  66 1E     ROR $1E = B6                    A:02 X:FF Y:9E P:A4 SP:FD
F50B  66 1F     ROR $1F = 77                    A:02 X:FF Y:9E P:24 SP:FD
F50D  60        RTS                             A:02 X:FF Y:9E P:25 SP:FD
C7E4  4C E1 C7  JMP $C7E1                       A:02 X:FF Y:9E P:25 SP:FF
C7E1  20 ED F4  JSR $F4ED                       A:02 X:FF Y:9E P:25 SP:FF
F4ED  A5 18     LDA $18 = 97                    A:02 X:FF Y:9E P:25 SP:FD
F4EF  29 02     AND #$02                        A:97 X:FF Y:9E P:A5 SP:FD
F4F1  85 00     STA $00 = 02                    A:02 X:FF Y:9E P:25 SP:FD
F4F3  A5 19     LDA $19 = 84                    A:02 X:FF Y:9E P:25 SP:FD
F4F5  29 02     AND #$02                        A:84 X:FF Y:9E P:A5 SP:FD
F4F7  45 00     EOR $00 = 02                    A:00 X:FF Y:9E P:27 SP:FD
F4F9  18        CLC                             A:02 X:FF Y:9E P:25 SP:FD
F4FA  F0 01     BEQ $F4FD                       A:02 X:FF Y:9E P:24 SP:FD
F4FC  38        SEC                             A:02 X:FF Y:9E P:24 SP:FD
F4FD  66 18     ROR $18 = 97                    A:02 X:FF Y:9E P:25 SP:FD
F4FF  66 19     ROR $19 = 84                    A:02 X:FF Y:9E P:A5 SP:FD
F501  66 1A     ROR $1A = AB                    A:02 X:FF Y:9E P:A4 SP:FD
F503  66 1B     ROR $1B = A2                    A:02 X:FF Y:9E P:25 SP:FD
F505  66 1C     ROR $1C = F5                    A:02 X:FF Y:9E P:A4 SP:FD
F507  66 1D     ROR $1D = B0                    A:02 X:FF Y:9E P:25 SP:FD
F509  66 1E     ROR $1E = 5B                    A:02 X:FF Y:9E P:A4 SP:FD
F50B  66 1F     ROR $1F = 3B                    A:02 X:FF Y:9E P:25 SP:FD
F50D  60        RTS                             A:02 X:FF Y:9E P:A5 SP:FD
C7E4  4C E1 C7  JMP $C7E1                       A:02 X:FF Y:9E P:A5 SP:FF
C7E1  20 ED F4  JSR $F4ED                       A:02 X:FF Y:9E P:A5 SP:FF
F4ED  A5 18     LDA $18 = CB                    A:02 X:FF Y:9E P:A5 SP:FD
F4EF  29 02     AND #$02                        A:CB X:FF Y:9E P:A5 SP:FD
F4F1  85 00     STA $00 = 02                    A:02 X:FF Y:9E P:25 SP:FD
F4F3  A5 19     LDA $19 = C2                    A:02 X:FF Y:9E P:25 SP:FD
F4F5  29 02     AND #$02                        A:C2 X:FF Y:9E P:A5 SP:FD
F4F7  45 00     EOR $00 = 02                    A:02 X:FF Y:9E P:25 SP:FD
F4F9  18        CLC                             A:00 X:FF Y:9E P:27 SP:FD
F4FA  F0 01     BEQ $F4FD                       A:00 X:FF Y:9E P:26 SP:FD
F4FD  66 18     ROR $18 = CB                    A:00 X:FF Y:9E P:26 SP:FD
F4FF  66 19     ROR $19 = C2                    A:00 X:FF Y:9E P:25 SP:FD
F501  66 1A     ROR $1A = 55                    A:00 X:FF Y:9E P:A4 SP:FD
F503  66 1B     ROR $1B = D1                    A:00 X:FF Y:9E P:25 SP:FD
F505  66 1C     ROR $1C = 7A                    A:00 X:FF Y:9E P:A5 SP:FD
F507  66 1D     ROR $1D = D8                    A:00 X:FF Y:9E P:A4 SP:FD
F509  66 1E     ROR $1E = 2D                    A:00 X:FF Y:9E P:24 SP:FD
F50B  66 1F     ROR $1F = 9D                    A:00 X:FF Y:9E P:25 SP:FD
F50D  60        RTS                             A:00 X:FF Y:9E P:A5 SP:FD
C7E4  4C E1 C7  JMP $C7E1                       A:00 X:FF Y:9E P:A5 SP:FF
C7E1  20 ED F4  JSR $F4ED                       A:00 X:FF Y:9E P:A5 SP:FF
F4ED  A5 18     LDA $18 = 65                    A:00 X:FF Y:9E P:A5 SP:FD
F4EF  29 02     AND #$02                        A:65 X:FF Y:9E P:25 SP:FD
F4F1  85 00     STA $00 = 02                    A:00 X:FF Y:9E P:27 SP:FD
F4F3  A5 19     LDA $19 = E1                    A:00 X:FF Y:9E P:27 SP:FD
F4F5  29 02     AND #$02                        A:E1 X:FF Y:9E P:A5 SP:FD
F4F7  45 00     EOR $00 = 00                    A:00 X:FF Y:9E P:27 SP:FD
F4F9  18        CLC                             A:00 X:FF Y:9E P:27 SP:FD
F4FA  F0 01     BEQ $F4FD                       A:00 X:FF Y:9E P:26 SP:FD
F4FD  66 18     ROR $18 = 65                    A:00 X:FF Y:9E P:26 SP:FD
F4FF  66 19     ROR $19 = E1                    A:00 X:FF Y:9E P:25 SP:FD
F501  66 1A     ROR $1A = 2A                    A:00 X:FF Y:9E P:A5 SP:FD
F503  66 1B     ROR $1B = E8                    A:00 X:FF Y:9E P:A4 SP:FD
F505  66 1C     ROR $1C = BD                    A:00 X:FF Y:9E P:24 SP:FD
F507  66 1D     ROR $1D = 6C                    A:00 X:FF Y:9E P:25 SP:FD
F509  66 1E     ROR $1E = 16                    A:00 X:FF Y:9E P:A4 SP:FD
F50B  66 1F     ROR $1F = CE                    A:00 X:FF Y:9E P:24 SP:FD
F50D  60        RTS                             A:00 X:FF Y:9E P:24 SP:FD
C7E4  4C E1 C7  JMP $C7E1                       A:00 X:FF Y:9E P:24 SP:FF
C7E1  20 ED F4  JSR $F4ED                       A:00 X:FF Y:9E P:24 SP:FF
F4ED  A5 18     LDA $18 = 32                    A:00 X:FF Y:9E P:24 SP:FD
F4EF  29 02     AND #$02                        A:32 X:FF Y:9E P:24 SP:FD
F4F1  85 00     STA $00 = 00                    A:02 X:FF Y:9E P:24 SP:FD
F4F3  A5 19     LDA $19 = F0                    A:02 X:FF Y:9E P:24 SP:FD
F4F5  29 02     AND #$02                        A:F0 X:FF Y:9E P:A4 SP:FD
F4F7  45 00     EOR $00 = 02                    A:00 X:FF Y:9E P:26 SP:FD
F4F9  18        CLC                             A:02 X:FF Y:9E P:24 SP:FD
F4FA  F0 01     BEQ $F4FD                       A:02 X:FF Y:9E P:24 SP:FD
F4FC  38        SEC                             A:02 X:FF Y:9E P:24 SP:FD
F4FD  66 18     ROR $18 = 32                    A:02 X:FF Y:9E P:25 SP:FD
F4FF  66 19     ROR $19 = F0                    A:02 X:FF Y:9E P:A4 SP:FD
F501  66 1A     ROR $1A = 95                    A:02 X:FF Y:9E P:24 SP:FD
F503  66 1B     ROR $1B = 74                    A:02 X:FF Y:9E P:25 SP:FD
F505  66 1C     ROR $1C = 5E                    A:02 X:FF Y:9E P:A4 SP:FD
F507  66 1D     ROR $1D = B6                    A:02 X:FF Y:9E P:24 SP:FD
F509  66 1E     ROR $1E = 0B                    A:02 X:FF Y:9E P:24 SP:FD
F50B  66 1F     ROR $1F = 67                    A:02 X:FF Y:9E P:25 SP:FD
F50D  60        RTS                             A:02 X:FF Y:9E P:A5 SP:FD
C7E4  4C E1 C7  JMP $C7E1                       A:02 X:FF Y:9E P:A5 SP:FF
C7E1  20 ED F4  JSR $F4ED                       A:02 X:FF Y:9E P:A5 SP:FF
F4ED  A5 18     LDA $18 = 99                    A:02 X:FF Y:9E P:A5 SP:FD
F4EF  29 02     AND #$02                        A:99 X:FF Y:9E P:A5 SP:FD
F4F1  85 00     STA $00 = 02                    A:00 X:FF Y:9E P:27 SP:FD
F4F3  A5 19     LDA $19 = 78                    A:00 X:FF Y:9E P:27 SP:FD
F4F5  29 02     AND #$02                        A:78 X:FF Y:9E P:25 SP:FD
F4F7  45 00     EOR $00 = 00                    A:00 X:FF Y:9E P:27 SP:FD
F4F9  18        CLC                             A:00 X:FF Y:9E P:27 SP:FD
F4FA  F0 01     BEQ $F4FD                       A:00 X:FF Y:9E P:26 SP:FD
F4FD  66 18     ROR $18 = 99                    A:00 X:FF Y:9E P:26 SP:FD
F4FF  66 19     ROR $19 = 78                    A:00 X:FF Y:9E P:25 SP:FD
F501  66 1A     ROR $1A = 4A                    A:00 X:FF Y:9E P:A4 SP:FD
F503  66 1B     ROR $1B = BA                    A:00 X:FF Y:9E P:24 SP:FD
F505  66 1C     ROR $1C = 2F                    A:00 X:FF Y:9E P:24 SP:FD
F507  66 1D     ROR $1D = 5B                    A:00 X:FF Y:9E P:25 SP:FD
F509  66 1E     ROR $1E = 05                    A:00 X:FF Y:9E P:A5 SP:FD
F50B  66 1F     ROR $1F = B3                    A:00 X:FF Y:9E P:A5 SP:FD
F50D  60        RTS                             A:00 X:FF Y:9E P:A5 SP:FD
C7E4  4C E1 C7  JMP $C7E1                       A:00 X:FF Y:9E P:A5 SP:FF
C7E1  20 ED F4  JSR $F4ED                       A:00 X:FF Y:9E P:A5 SP:FF
F4ED  A5 18     LDA $18 = 4C                    A:00 X:FF Y:9E P:A5 SP:FD
F4EF  29 02     AND #$02                        A:4C X:FF Y:9E P:25 SP:FD
F4F1  85 00     STA $00 = 00                    A:00 X:FF Y:9E P:27 SP:FD
F4F3  A5 19     LDA $19 = BC                    A:00 X:FF Y:9E P:27 SP:FD
F4F5  29 02     AND #$02                        A:BC X:FF Y:9E P:A5 SP:FD
F4F7  45 00     EOR $00 = 00                    A:00 X:FF Y:9E P:27 SP:FD
F4F9  18        CLC                             A:00 X:FF Y:9E P:27 SP:FD
F4FA  F0 01     BEQ $F4FD                       A:00 X:FF Y:9E P:26 SP:FD
F4FD  66 18     ROR $18 = 4C                    A:00 X:FF Y:9E P:26 SP:FD
F4FF  66 19     ROR $19 = BC                    A:00 X:FF Y:9E P:24 SP:FD
F501  66 1A     ROR $1A = 25                    A:00 X:FF Y:9E P:24 SP:FD
F503  66 1B     ROR $1B = 5D                    A:00 X:FF Y:9E P:25 SP:FD
F505  66 1C     ROR $1C = 17                    A:00 X:FF Y:9E P:A5 SP:FD
F507  66 1D     ROR $1D = AD                    A:00 X:FF Y:9E P:A5 SP:FD
F509  66 1E     ROR $1E = 82                    A:00 X:FF Y:9E P:A5 SP:FD
F50B  66 1F     ROR $1F = D9                    A:00 X:FF Y:9E P:A4 SP:FD
F50D  60        RTS                             A:00 X:FF Y:9E P:25 SP:FD
C7E4  4C E1 C7  JMP $C7E1                       A:00 X:FF Y:9E P:25 SP:FF
C7E1  20 ED F4  JSR $F4ED                       A:00 X:FF Y:9E P:25 SP:FF
F4ED  A5 18     LDA $18 = 26                    A:00 X:FF Y:9E P:25 SP:FD
F4EF  29 02     AND #$02                        A:26 X:FF Y:9E P:25 SP:FD
F4F1  85 00     STA $00 = 00                    A:02 X:FF Y:9E P:25 SP:FD
F4F3  A5 19     LDA $19 = 5E                    A:02 X:FF Y:9E P:25 SP:FD
F4F5  29 02     AND #$02                        A:5E X:FF Y:9E P:25 SP:FD
F4F7  45 00     EOR $00 = 02                    A:02 X:FF Y:9E P:25 SP:FD
F4F9  18        CLC                             A:00 X:FF Y:9E P:27 SP:FD
F4FA  F0 01     BEQ $F4FD                       A:00 X:FF Y:9E P:26 SP:FD
F4FD  66 18     ROR $18 = 26                    A:00 X:FF Y:9E P:26 SP:FD
F4FF  66 19     ROR $19 = 5E                    A:00 X:FF Y:9E P:24 SP:FD
F501  66 1A     ROR $1A = 12                    A:00 X:FF Y:9E P:24 SP:FD
F503  66 1B     ROR $1B = AE                    A:00 X:FF Y:9E P:24 SP:FD
F505  66 1C     ROR $1C = 8B                    A:00 X:FF Y:9E P:24 SP:FD
F507  66 1D     ROR $1D = D6                    A:00 X:FF Y:9E P:25 SP:FD
F509  66 1E     ROR $1E = C1                    A:00 X:FF Y:9E P:A4 SP:FD
F50B  66 1F     ROR $1F = 6C                    A:00 X:FF Y:9E P:25 SP:FD
F50D  60        RTS                             A:00 X:FF Y:9E P:A4 SP:FD
C7E4  4C E1 C7  JMP $C7E1                       A:00 X:FF Y:9E P:A4 SP:FF
C7E1  20 ED F4  JSR $F4ED                       A:00 X:FF Y:9E P:A4 SP:FF
F4ED  A5 18     LDA $18 = 13                    A:00 X:FF Y:9E P:A4 SP:FD
F4EF  29 02     AND #$02                        A:13 X:FF Y:9E P:24 SP:FD
F4F1  85 00     STA $00 = 02                    A:02 X:FF Y:9E P:24 SP:FD
F4F3  A5 19     LDA $19 = 2F                    A:02 X:FF Y:9E P:24 SP:FD
F4F5  29 02     AND #$02                        A:2F X:FF Y:9E P:24 SP:FD
F4F7  45 00     EOR $00 = 02                    A:02 X:FF Y:9E P:24 SP:FD
F4F9  18        CLC                             A:00 X:FF Y:9E P:26 SP:FD
F4FA  F0 01     BEQ $F4FD                       A:00 X:FF Y:9E P:26 SP:FD
F4FD  66 18     ROR $18 = 13                    A:00 X:FF Y:9E P:26 SP:FD
F4FF  66 19     ROR $19 = 2F                    A:00 X:FF Y:9E P:25 SP:FD
F501  66 1A     ROR $1A = 09                    A:00 X:FF Y:9E P:A5 SP:FD
F503  66 1B     ROR $1B = 57                    A:00 X:FF Y:9E P:A5 SP:FD
F505  66 1C     ROR $1C = 45                    A:00 X:FF Y:9E P:A5 SP:FD
F507  66 1D     ROR $1D = EB                    A:00 X:FF Y:9E P:A5 SP:FD
F509  66 1E     ROR $1E = 60                    A:00 X:FF Y:9E P:A5 SP:FD
F50B  66 1F     ROR $1F = B6                    A:00 X:FF Y:9E P:A4 SP:FD
F50D  60        RTS                             A:00 X:FF Y:9E P:24 SP:FD
C7E4  4C E1 C7  JMP $C7E1                       A:00 X:FF Y:9E P:24 SP:FF
C7E1  20 ED F4  JSR $F4ED                       A:00 X:FF Y:9E P:24 SP:FF
F4ED  A5 18     LDA $18 = 09                    A:00 X:FF Y:9E P:24 SP:FD
F4EF  29 02     AND #$02                        A:09 X:FF Y:9E P:24 SP:FD
F4F1  85 00     STA $00 = 02                    A:00 X:FF Y:9E P:26 SP:FD
F4F3  A5 19     LDA $19 = 97                    A:00 X:FF Y:9E P:26 SP:FD
F4F5  29 02     AND #$02                        A:97 X:FF Y:9E P:A4 SP:FD
F4F7  45 00     EOR $00 = 00                    A:02 X:FF Y:9E P:24 SP:FD
F4F9  18        CLC                             A:02 X:FF Y:9E P:24 SP:FD
F4FA  F0 01     BEQ $F4FD                       A:02 X:FF Y:9E P:24 SP:FD
F4FC  38        SEC                             A:02 X:FF Y:9E P:24 SP:FD
F4FD  66 18     ROR $18 = 09                    A:02 X:FF Y:9E P:25 SP:FD
F4FF  66 19     ROR $19 = 97                    A:02 X:FF Y:9E P:A5 SP:FD
F501  66 1A     ROR $1A = 84                    A:02 X:FF Y:9E P:A5 SP:FD
F503  66 1B     ROR $1B = AB                    A:02 X:FF Y:9E P:A4 SP:FD
F505  66 1C     ROR $1C = A2                    A:02 X:FF Y:9E P:25 SP:FD
F507  66 1D     ROR $1D = F5                    A:02 X:FF Y:9E P:A4 SP:FD
F509  66 1E     ROR $1E = B0                    A:02 X:FF Y:9E P:25 SP:FD
F50B  66 1F     ROR $1F = 5B                    A:02 X:FF Y:9E P:A4 SP:FD
F50D  60        RTS                             A:02 X:FF Y:9E P:25 SP:FD
C7E4  4C E1 C7  JMP $C7E1                       A:02 X:FF Y:9E P:25 SP:FF
C7E1  20 ED F4  JSR $F4ED                       A:02 X:FF Y:9E P:25 SP:FF
F4ED  A5 18     LDA $18 = 84                    A:02 X:FF Y:9E P:25 SP:FD
F4EF  29 02     AND #$02                        A:84 X:FF Y:9E P:A5 SP:FD
F4F1  85 00     STA $00 = 00                    A:00 X:FF Y:9E P:27 SP:FD
F4F3  A5 19     LDA $19 = CB                    A:00 X:FF Y:9E P:27 SP:FD
F4F5  29 02     AND #$02                        A:CB X:FF Y:9E P:A5 SP:FD
F4F7  45 00     EOR $00 = 00                    A:02 X:FF Y:9E P:25 SP:FD
F4F9  18        CLC                             A:02 X:FF Y:9E P:25 SP:FD
F4FA  F0 01     BEQ $F4FD                       A:02 X:FF Y:9E P:24 SP:FD
F4FC  38        SEC                             A:02 X:FF Y:9E P:24 SP:FD
F4FD  66 18     ROR $18 = 84                    A:02 X:FF Y:9E P:25 SP:FD
F4FF  66 19     ROR $19 = CB                    A:02 X:FF Y:9E P:A4 SP:FD
F501  66 1A     ROR $1A = C2                    A:02 X:FF Y:9E P:25 SP:FD
F503  66 1B     ROR $1B = 55                    A:02 X:FF Y:9E P:A4 SP:FD
F505  66 1C     ROR $1C = D1                    A:02 X:FF Y:9E P:25 SP:FD
F507  66 1D     ROR $1D = 7A                    A:02 X:FF Y:9E P:A5 SP:FD
F509  66 1E     ROR $1E = D8                    A:02 X:FF Y:9E P:A4 SP:FD
F50B  66 1F     ROR $1F = 2D                    A:02 X:FF Y:9E P:24 SP:FD
F50D  60        RTS                             A:02 X:FF Y:9E P:25 SP:FD
C7E4  4C E1 C7  JMP $C7E1                       A:02 X:FF Y:9E P:25 SP:FF
C7E1  20 ED F4  JSR $F4ED                       A:02 X:FF Y:9E P:25 SP:FF
F4ED  A5 18     LDA $18 = C2                    A:02 X:FF Y:9E P:25 SP:FD
F4EF  29 02     AND #$02                        A:C2 X:FF Y:9E P:A5 SP:FD
F4F1  85 00     STA $00 = 00                    A:02 X:FF Y:9E P:25 SP:FD
F4F3  A5 19     LDA $19 = 65                    A:02 X:FF Y:9E P:25 SP:FD
F4F5  29 02     AND #$02                        A:65 X:FF Y:9E P:25 SP:FD
F4F7  45 00     EOR $00 = 02                    A:00 X:FF Y:9E P:27 SP:FD
F4F9  18        CLC                             A:02 X:FF Y:9E P:25 SP:FD
F4FA  F0 01     BEQ $F4FD                       A:02 X:FF Y:9E P:24 SP:FD
F4FC  38        SEC                             A:02 X:FF Y:9E P:24 SP:FD
F4FD  66 18     ROR $18 = C2                    A:02 X:FF Y:9E P:25 SP:FD
F4FF  66 19     ROR $19 = 65                    A:02 X:FF Y:9E P:A4 SP:FD
F501  66 1A     ROR $1A = E1                    A:02 X:FF Y:9E P:25 SP:FD
F503  66 1B     ROR $1B = 2A                    A:02 X:FF Y:9E P:A5 SP:FD
F505  66 1C     ROR $1C = E8                    A:02 X:FF Y:9E P:A4 SP:FD
F507  66 1D     ROR $1D = BD                    A:02 X:FF Y:9E P:24 SP:FD
F509  66 1E     ROR $1E = 6C                    A:02 X:FF Y:9E P:25 SP:FD
F50B  66 1F     ROR $1F = 16                    A:02 X:FF Y:9E P:A4 SP:FD
F50D  60        RTS                             A:02 X:FF Y:9E P:24 SP:FD
C7E4  4C E1 C7  JMP $C7E1                       A:02 X:FF Y:9E P:24 SP:FF
C7E1  20 ED F4  JSR $F4ED                       A:02 X:FF Y:9E P:24 SP:FF
F4ED  A5 18     LDA $18 = E1                    A:02 X:FF Y:9E P:24 SP:FD
F4EF  29 02     AND #$02                        A:E1 X:FF Y:9E P:A4 SP:FD
F4F1  85 00     STA $00 = 02                    A:00 X:FF Y:9E P:26 SP:FD
F4F3  A5 19     LDA $19 = 32                    A:00 X:FF Y:9E P:26 SP:FD
F4F5  29 02     AND #$02                        A:32 X:FF Y:9E P:24 SP:FD
F4F7  45 00     EOR $00 = 00                    A:02 X:FF Y:9E P:24 SP:FD
F4F9  18        CLC                             A:02 X:FF Y:9E P:24 SP:FD
F4FA  F0 01     BEQ $F4FD                       A:02 X:FF Y:9E P:24 SP:FD
F4FC  38        SEC                             A:02 X:FF Y:9E P:24 SP:FD
F4FD  66 18     ROR $18 = E1                    A:02 X:FF Y:9E P:25 SP:FD
F4FF  66 19     ROR $19 = 32                    A:02 X:FF Y:9E P:A5 SP:FD
F501  66 1A     ROR $1A = F0                    A:02 X:FF Y:9E P:A4 SP:FD
F503  66 1B     ROR $1B = 95                    A:02 X:FF Y:9E P:24 SP:FD
F505  66 1C     ROR $1C = 74                    A:02 X:FF Y:9E P:25 SP:FD
F507  66 1D     ROR $1D = 5E                    A:02 X:FF Y:9E P:A4 SP:FD
F509  66 1E     ROR $1E = B6                    A:02 X:FF Y:9E P:24 SP:FD
F50B  66 1F     ROR $1F = 0B                    A:02 X:FF Y:9E P:24 SP:FD
F50D  60        RTS                             A:02 X:FF Y:9E P:25 SP:FD
C7E4  4C E1 C7  JMP $C7E1                       A:02 X:FF Y:9E P:25 SP:FF
C7E1  20 ED F4  JSR $F4ED                       A:02 X:FF Y:9E P:25 SP:FF
F4ED  A5 18     LDA $18 = F0                    A:02 X:FF Y:9E P:25 SP:FD
F4EF  29 02     AND #$02                        A:F0 X:FF Y:9E P:A5 SP:FD
F4F1  85 00     STA $00 = 00                    A:00 X:FF Y:9E P:27 SP:FD
F4F3  A5 19     LDA $19 = 99                    A:00 X:FF Y:9E P:27 SP:FD
F4F5  29 02     AND #$02                        A:99 X:FF Y:9E P:A5 SP:FD
F4F7  45 00     EOR $00 = 00                    A:00 X:FF Y:9E P:27 SP:FD
F4F9  18        CLC                             A:00 X:FF Y:9E P:27 SP:FD
F4FA  F0 01     BEQ $F4FD                       A:00 X:FF Y:9E P:26 SP:FD
F4FD  66 18     ROR $18 = F0                    A:00 X:FF Y:9E P:26 SP:FD
F4FF  66 19     ROR $19 = 99                    A:00 X:FF Y:9E P:24 SP:FD
F501  66 1A     ROR $1A = 78                    A:00 X:FF Y:9E P:25 SP:FD
F503  66 1B     ROR $1B = 4A                    A:00 X:FF Y:9E P:A4 SP:FD
F505  66 1C     ROR $1C = BA                    A:00 X:FF Y:9E P:24 SP:FD
F507  66 1D     ROR $1D = 2F                    A:00 X:FF Y:9E P:24 SP:FD
F509  66 1E     ROR $1E = 5B                    A:00 X:FF Y:9E P:25 SP:FD
F50B  66 1F     ROR $1F = 05                    A:00 X:FF Y:9E P:A5 SP:FD
F50D  60        RTS                             A:00 X:FF Y:9E P:A5 SP:FD
C7E4  4C E1 C7  JMP $C7E1                       A:00 X:FF Y:9E P:A5 SP:FF
C7E1  20 ED F4  JSR $F4ED                       A:00 X:FF Y:9E P:A5 SP:FF
F4ED  A5 18     LDA $18 = 78                    A:00 X:FF Y:9E P:A5 SP:FD
F4EF  29 02     AND #$02                        A:78 X:FF Y:9E P:25 SP:FD
F4F1  85 00     STA $00 = 00                    A:00 X:FF Y:9E P:27 SP:FD
F4F3  A5 19     LDA $19 = 4C                    A:00 X:FF Y:9E P:27 SP:FD
F4F5  29 02     AND #$02                        A:4C X:FF Y:9E P:25 SP:FD
F4F7  45 00     EOR $00 = 00                    A:00 X:FF Y:9E P:27 SP:FD
F4F9  18        CLC                             A:00 X:FF Y:9E P:27 SP:FD
F4FA  F0 01     BEQ $F4FD                       A:00 X:FF Y:9E P:26 SP:FD
F4FD  66 18     ROR $18 = 78                    A:00 X:FF Y:9E P:26 SP:FD
F4FF  66 19     ROR $19 = 4C                    A:00 X:FF Y:9E P:24 SP:FD
F501  66 1A     ROR $1A = BC                    A:00 X:FF Y:9E P:24 SP:FD
F503  66 1B     ROR $1B = 25                    A:00 X:FF Y:9E P:24 SP:FD
F505  66 1C     ROR $1C = 5D                    A:00 X:FF Y:9E P:25 SP:FD
F507  66 1D     ROR $1D = 17                    A:00 X:FF Y:9E P:A5 SP:FD
F509  66 1E     ROR $1E = AD                    A:00 X:FF Y:9E P:A5 SP:FD
F50B  66 1F     ROR $1F = 82                    A:00 X:FF Y:9E P:A5 SP:FD
F50D  60        RTS                             A:00 X:FF Y:9E P:A4 SP:FD
C7E4  4C E1 C7  JMP $C7E1                       A:00 X:FF Y:9E P:A4 SP:FF
C7E1  20 ED F4  JSR $F4ED                       A:00 X:FF Y:9E P:A4 SP:FF
F4ED  A5 18     LDA $18 = 3C                    A:00 X:FF Y:9E P:A4 SP:FD
F4EF  29 02     AND #$02                        A:3C X:FF Y:9E P:24 SP:FD
F4F1  85 00     STA $00 = 00                    A:00 X:FF Y:9E P:26 SP:FD
F4F3  A5 19     LDA $19 = 26                    A:00 X:FF Y:9E P:26 SP:FD
F4F5  29 02     AND #$02                        A:26 X:FF Y:9E P:24 SP:FD
F4F7  45 00     EOR $00 = 00                    A:02 X:FF Y:9E P:24 SP:FD
F4F9  18        CLC                             A:02 X:FF Y:9E P:24 SP:FD
F4FA  F0 01     BEQ $F4FD                       A:02 X:FF Y:9E P:24 SP:FD
F4FC  38        SEC                             A:02 X:FF Y:9E P:24 SP:FD
F4FD  66 18     ROR $18 = 3C                    A:02 X:FF Y:9E P:25 SP:FD
F4FF  66 19     ROR $19 = 26                    A:02 X:FF Y:9E P:A4 SP:FD
F501  66 1A     ROR $1A = 5E                    A:02 X:FF Y:9E P:24 SP:FD
F503  66 1B     ROR $1B = 12                    A:02 X:FF Y:9E P:24 SP:FD
F505  66 1C     ROR $1C = AE                    A:02 X:FF Y:9E P:24 SP:FD
F507  66 1D     ROR $1D = 8B                    A:02 X:FF Y:9E P:24 SP:FD
F509  66 1E     ROR $1E = D6                    A:02 X:FF Y:9E P:25 SP:FD
F50B  66 1F     ROR $1F = C1                    A:02 X:FF Y:9E P:A4 SP:FD
F50D  60        RTS                             A:02 X:FF Y:9E P:25 SP:FD
C7E4  4C E1 C7  JMP $C7E1                       A:02 X:FF Y:9E P:25 SP:FF
C7E1  20 ED F4  JSR $F4ED                       A:02 X:FF Y:9E P:25 SP:FF
F4ED  A5 18     LDA $18 = 9E                    A:02 X:FF Y:9E P:25 SP:FD
F4EF  29 02     AND #$02                        A:9E X:FF Y:9E P:A5 SP:FD
F4F1  85 00     STA $00 = 00                    A:02 X:FF Y:9E P:25 SP:FD
F4F3  A5 19     LDA $19 = 13                    A:02 X:FF Y:9E P:25 SP:FD
F4F5  29 02     AND #$02                        A:13 X:FF Y:9E P:25 SP:FD
F4F7  45 00     EOR $00 = 02                    A:02 X:FF Y:9E P:25 SP:FD
F4F9  18        CLC                             A:00 X:FF Y:9E P:27 SP:FD
F4FA  F0 01     BEQ $F4FD                       A:00 X:FF Y:9E P:26 SP:FD
F4FD  66 18     ROR $18 = 9E                    A:00 X:FF Y:9E P:26 SP:FD
F4FF  66 19     ROR $19 = 13                    A:00 X:FF Y:9E P:24 SP:FD
F501  66 1A     ROR $1A = 2F                    A:00 X:FF Y:9E P:25 SP:FD
F503  66 1B     ROR $1B = 09                    A:00 X:FF Y:9E P:A5 SP:FD
F505  66 1C     ROR $1C = 57                    A:00 X:FF Y:9E P:A5 SP:FD
F507  66 1D     ROR $1D = 45                    A:00 X:FF Y:9E P:A5 SP:FD
F509  66 1E     ROR $1E = EB                    A:00 X:FF Y:9E P:A5 SP:FD
F50B  66 1F     ROR $1F = 60                    A:00 X:FF Y:9E P:A5 SP:FD
F50D  60        RTS                             A:00 X:FF Y:9E P:A4 SP:FD
C7E4  4C E1 C7  JMP $C7E1                       A:00 X:FF Y:9E P:A4 SP:FF
C7E1  20 ED F4  JSR $F4ED                       A:00 X:FF Y:9E P:A4 SP:FF
F4ED  A5 18     LDA $18 = 4F                    A:00 X:FF Y:9E P:A4 SP:FD
F4EF  29 02     AND #$02                        A:4F X:FF Y:9E P:24 SP:FD
F4F1  85 00     STA $00 = 02                    A:02 X:FF Y:9E P:24 SP:FD
F4F3  A5 19     LDA $19 = 09                    A:02 X:FF Y:9E P:24 SP:FD
F4F5  29 02     AND #$02                        A:09 X:FF Y:9E P:24 SP:FD
F4F7  45 00     EOR $00 = 02                    A:00 X:FF Y:9E P:26 SP:FD
F4F9  18        CLC                             A:02 X:FF Y:9E P:24 SP:FD
F4FA  F0 01     BEQ $F4FD                       A:02 X:FF Y:9E P:24 SP:FD
F4FC  38        SEC                             A:02 X:FF Y:9E P:24 SP:FD
F4FD  66 18     ROR $18 = 4F                    A:02 X:FF Y:9E P:25 SP:FD
F4FF  66 19     ROR $19 = 09                    A:02 X:FF Y:9E P:A5 SP:FD
F501  66 1A     ROR $1A = 97                    A:02 X:FF Y:9E P:A5 SP:FD
F503  66 1B     ROR $1B = 84                    A:02 X:FF Y:9E P:A5 SP:FD
F505  66 1C     ROR $1C = AB                    A:02 X:FF Y:9E P:A4 SP:FD
F507  66 1D     ROR $1D = A2                    A:02 X:FF Y:9E P:25 SP:FD
F509  66 1E     ROR $1E = F5                    A:02 X:FF Y:9E P:A4 SP:FD
F50B  66 1F     ROR $1F = B0                    A:02 X:FF Y:9E P:25 SP:FD
F50D  60        RTS                             A:02 X:FF Y:9E P:A4 SP:FD
C7E4  4C E1 C7  JMP $C7E1                       A:02 X:FF Y:9E P:A4 SP:FF
C7E1  20 ED F4  JSR $F4ED                       A:02 X:FF Y:9E P:A4 SP:FF
F4ED  A5 18     LDA $18 = A7                    A:02 X:FF Y:9E P:A4 SP:FD
F4EF  29 02     AND #$02                        A:A7 X:FF Y:9E P:A4 SP:FD
F4F1  85 00     STA $00 = 02                    A:02 X:FF Y:9E P:24 SP:FD
F4F3  A5 19     LDA $19 = 84                    A:02 X:FF Y:9E P:24 SP:FD
F4F5  29 02     AND #$02                        A:84 X:FF Y:9E P:A4 SP:FD
F4F7  45 00     EOR $00 = 02                    A:00 X:FF Y:9E P:26 SP:FD
F4F9  18        CLC                             A:02 X:FF Y:9E P:24 SP:FD
F4FA  F0 01     BEQ $F4FD                       A:02 X:FF Y:9E P:24 SP:FD
F4FC  38        SEC                             A:02 X:FF Y:9E P:24 SP:FD
F4FD  66 18     ROR $18 = A7                    A:02 X:FF Y:9E P:25 SP:FD
F4FF  66 19     ROR $19 = 84                    A:02 X:FF Y:9E P:A5 SP:FD
F501  66 1A     ROR $1A = CB                    A:02 X:FF Y:9E P:A4 SP:FD
F503  66 1B     ROR $1B = C2                    A:02 X:FF Y:9E P:25 SP:FD
F505  66 1C     ROR $1C = 55                    A:02 X:FF Y:9E P:A4 SP:FD
F507  66 1D     ROR $1D = D1                    A:02 X:FF Y:9E P:25 SP:FD
F509  66 1E     ROR $1E = 7A                    A:02 X:FF Y:9E P:A5 SP:FD
F50B  66 1F     ROR $1F = D8                    A:02 X:FF Y:9E P:A4 SP:FD
F50D  60        RTS                             A:02 X:FF Y:9E P:24 SP:FD
C7E4  4C E1 C7  JMP $C7E1                       A:02 X:FF Y:9E P:24 SP:FF
C7E1  20 ED F4  JSR $F4ED                       A:02 X:FF Y:9E P:24 SP:FF
F4ED  A5 18     LDA $18 = D3                    A:02 X:FF Y:9E P:24 SP:FD
F4EF  29 02     AND #$02                        A:D3 X:FF Y:9E P:A4 SP:FD
F4F1  85 00     STA $00 = 02                    A:02 X:FF Y:9E P:24 SP:FD
F4F3  A5 19     LDA $19 = C2                    A:02 X:FF Y:9E P:24 SP:FD
F4F5  29 02     AND #$02                        A:C2 X:FF Y:9E P:A4 SP:FD
F4F7  45 00     EOR $00 = 02                    A:02 X:FF Y:9E P:24 SP:FD
F4F9  18        CLC                             A:00 X:FF Y:9E P:26 SP:FD
F4FA  F0 01     BEQ $F4FD                       A:00 X:FF Y:9E P:26 SP:FD
F4FD  66 18     ROR $18 = D3                    A:00 X:FF Y:9E P:26 SP:FD
F4FF  66 19     ROR $19 = C2                    A:00 X:FF Y:9E P:25 SP:FD
F501  66 1A     ROR $1A = 65                    A:00 X:FF Y:9E P:A4 SP:FD
F503  66 1B     ROR $1B = E1                    A:00 X:FF Y:9E P:25 SP:FD
F505  66 1C     ROR $1C = 2A                    A:00 X:FF Y:9E P:A5 SP:FD
F507  66 1D     ROR $1D = E8                    A:00 X:FF Y:9E P:A4 SP:FD
F509  66 1E     ROR $1E = BD                    A:00 X:FF Y:9E P:24 SP:FD
F50B  66 1F     ROR $1F = 6C                    A:00 X:FF Y:9E P:25 SP:FD
F50D  60        RTS                             A:00 X:FF Y:9E P:A4 SP:FD
C7E4  4C E1 C7  JMP $C7E1                       A:00 X:FF Y:9E P:A4 SP:FF
C7E1  20 ED F4  JSR $F4ED                       A:00 X:FF Y:9E P:A4 SP:FF
F4ED  A5 18     LDA $18 = 69                    A:00 X:FF Y:9E P:A4 SP:FD
F4EF  29 02     AND #$02                        A:69 X:FF Y:9E P:24 SP:FD
F4F1  85 00     STA $00 = 02                    A:00 X:FF Y:9E P:26 SP:FD
F4F3  A5 19     LDA $19 = E1                    A:00 X:FF Y:9E P:26 SP:FD
F4F5  29 02     AND #$02                        A:E1 X:FF Y:9E P:A4 SP:FD
F4F7  45 00     EOR $00 = 00                    A:00 X:FF Y:9E P:26 SP:FD
F4F9  18        CLC                             A:00 X:FF Y:9E P:26 SP:FD
F4FA  F0 01     BEQ $F4FD                       A:00 X:FF Y:9E P:26 SP:FD
F4FD  66 18     ROR $18 = 69                    A:00 X:FF Y:9E P:26 SP:FD
F4FF  66 19     ROR $19 = E1                    A:00 X:FF Y:9E P:25 SP:FD
F501  66 1A     ROR $1A = 32                    A:00 X:FF Y:9E P:A5 SP:FD
F503  66 1B     ROR $1B = F0                    A:00 X:FF Y:9E P:A4 SP:FD
F505  66 1C     ROR $1C = 95                    A:00 X:FF Y:9E P:24 SP:FD
F507  66 1D     ROR $1D = 74                    A:00 X:FF Y:9E P:25 SP:FD
F509  66 1E     ROR $1E = 5E                    A:00 X:FF Y:9E P:A4 SP:FD
F50B  66 1F     ROR $1F = B6                    A:00 X:FF Y:9E P:24 SP:FD
F50D  60        RTS                             A:00 X:FF Y:9E P:24 SP:FD
C7E4  4C E1 C7  JMP $C7E1                       A:00 X:FF Y:9E P:24 SP:FF
C7E1  20 ED F4  JSR $F4ED                       A:00 X:FF Y:9E P:24 SP:FF
F4ED  A5 18     LDA $18 = 34                    A:00 X:FF Y:9E P:24 SP:FD
F4EF  29 02     AND #$02                        A:34 X:FF Y:9E P:24 SP:FD
F4F1  85 00     STA $00 = 00                    A:00 X:FF Y:9E P:26 SP:FD
F4F3  A5 19     LDA $19 = F0                    A:00 X:FF Y:9E P:26 SP:FD
F4F5  29 02     AND #$02                        A:F0 X:FF Y:9E P:A4 SP:FD
F4F7  45 00     EOR $00 = 00                    A:00 X:FF Y:9E P:26 SP:FD
F4F9  18        CLC                             A:00 X:FF Y:9E P:26 SP:FD
F4FA  F0 01     BEQ $F4FD                       A:00 X:FF Y:9E P:26 SP:FD
F4FD  66 18     ROR $18 = 34                    A:00 X:FF Y:9E P:26 SP:FD
F4FF  66 19     ROR $19 = F0                    A:00 X:FF Y:9E P:24 SP:FD
F501  66 1A     ROR $1A = 99                    A:00 X:FF Y:9E P:24 SP:FD
F503  66 1B     ROR $1B = 78                    A:00 X:FF Y:9E P:25 SP:FD
F505  66 1C     ROR $1C = 4A                    A:00 X:FF Y:9E P:A4 SP:FD
F507  66 1D     ROR $1D = BA                    A:00 X:FF Y:9E P:24 SP:FD
F509  66 1E     ROR $1E = 2F                    A:00 X:FF Y:9E P:24 SP:FD
F50B  66 1F     ROR $1F = 5B                    A:00 X:FF Y:9E P:25 SP:FD
F50D  60        RTS                             A:00 X:FF Y:9E P:A5 SP:FD
C7E4  4C E1 C7  JMP $C7E1                       A:00 X:FF Y:9E P:A5 SP:FF
C7E1  20 ED F4  JSR $F4ED                       A:00 X:FF Y:9E P:A5 SP:FF
F4ED  A5 18     LDA $18 = 1A                    A:00 X:FF Y:9E P:A5 SP:FD
F4EF  29 02     AND #$02                        A:1A X:FF Y:9E P:25 SP:FD
F4F1  85 00     STA $00 = 00                    A:02 X:FF Y:9E P:25 SP:FD
F4F3  A5 19     LDA $19 = 78                    A:02 X:FF Y:9E P:25 SP:FD
F4F5  29 02     AND #$02                        A:78 X:FF Y:9E P:25 SP:FD
F4F7  45 00     EOR $00 = 02                    A:00 X:FF Y:9E P:27 SP:FD
F4F9  18        CLC                             A:02 X:FF Y:9E P:25 SP:FD
F4FA  F0 01     BEQ $F4FD                       A:02 X:FF Y:9E P:24 SP:FD
F4FC  38        SEC                             A:02 X:FF Y:9E P:24 SP:FD
F4FD  66 18     ROR $18 = 1A                    A:02 X:FF Y:9E P:25 SP:FD
F4FF  66 19     ROR $19 = 78                    A:02 X:FF Y:9E P:A4 SP:FD
F501  66 1A     ROR $1A = 4C                    A:02 X:FF Y:9E P:24 SP:FD
F503  66 1B     ROR $1B = BC                    A:02 X:FF Y:9E P:24 SP:FD
F505  66 1C     ROR $1C = 25                    A:02 X:FF Y:9E P:24 SP:FD
F507  66 1D     ROR $1D = 5D                    A:02 X:FF Y:9E P:25 SP:FD
F509  66 1E     ROR $1E = 17                    A:02 X:FF Y:9E P:A5 SP:FD
F50B  66 1F     ROR $1F = AD                    A:02 X:FF Y:9E P:A5 SP:FD
F50D  60        RTS                             A:02 X:FF Y:9E P:A5 SP:FD
C7E4  4C E1 C7  JMP $C7E1                       A:02 X:FF Y:9E P:A5 SP:FF
C7E1  20 ED F4  JSR $F4ED                       A:02 X:FF Y:9E P:A5 SP:FF
F4ED  A5 18     LDA $18 = 8D                    A:02 X:FF Y:9E P:A5 SP:FD
F4EF  29 02     AND #$02                        A:8D X:FF Y:9E P:A5 SP:FD
F4F1  85 00     STA $00 = 02                    A:00 X:FF Y:9E P:27 SP:FD
F4F3  A5 19     LDA $19 = 3C                    A:00 X:FF Y:9E P:27 SP:FD
F4F5  29 02     AND #$02                        A:3C X:FF Y:9E P:25 SP:FD
F4F7  45 00     EOR $00 = 00                    A:00 X:FF Y:9E P:27 SP:FD
F4F9  18        CLC                             A:00 X:FF Y:9E P:27 SP:FD
F4FA  F0 01     BEQ $F4FD                       A:00 X:FF Y:9E P:26 SP:FD
F4FD  66 18     ROR $18 = 8D                    A:00 X:FF Y:9E P:26 SP:FD
F4FF  66 19     ROR $19 = 3C                    A:00 X:FF Y:9E P:25 SP:FD
F501  66 1A     ROR $1A = 26                    A:00 X:FF Y:9E P:A4 SP:FD
F503  66 1B     ROR $1B = 5E                    A:00 X:FF Y:9E P:24 SP:FD
F505  66 1C     ROR $1C = 12                    A:00 X:FF Y:9E P:24 SP:FD
F507  66 1D     ROR $1D = AE                    A:00 X:FF Y:9E P:24 SP:FD
F509  66 1E     ROR $1E = 8B                    A:00 X:FF Y:9E P:24 SP:FD
F50B  66 1F     ROR $1F = D6                    A:00 X:FF Y:9E P:25 SP:FD
F50D  60        RTS                             A:00 X:FF Y:9E P:A4 SP:FD
C7E4  4C E1 C7  JMP $C7E1                       A:00 X:FF Y:9E P:A4 SP:FF
C7E1  20 ED F4  JSR $F4ED                       A:00 X:FF Y:9E P:A4 SP:FF
F4ED  A5 18     LDA $18 = 46                    A:00 X:FF Y:9E P:A4 SP:FD
F4EF  29 02     AND #$02                        A:46 X:FF Y:9E P:24 SP:FD
F4F1  85 00     STA $00 = 00                    A:02 X:FF Y:9E P:24 SP:FD
F4F3  A5 19     LDA $19 = 9E                    A:02 X:FF Y:9E P:24 SP:FD
F4F5  29 02     AND #$02                        A:9E X:FF Y:9E P:A4 SP:FD
F4F7  45 00     EOR $00 = 02                    A:02 X:FF Y:9E P:24 SP:FD
F4F9  18        CLC                             A:00 X:FF Y:9E P:26 SP:FD
F4FA  F0 01     BEQ $F4FD                       A:00 X:FF Y:9E P:26 SP:FD
F4FD  66 18     ROR $18 = 46                    A:00 X:FF Y:9E P:26 SP:FD
F4FF  66 19     ROR $19 = 9E                    A:00 X:FF Y:9E P:24 SP:FD
F501  66 1A     ROR $1A = 13                    A:00 X:FF Y:9E P:24 SP:FD
F503  66 1B     ROR $1B = 2F                    A:00 X:FF Y:9E P:25 SP:FD
F505  66 1C     ROR $1C = 09                    A:00 X:FF Y:9E P:A5 SP:FD
F507  66 1D     ROR $1D = 57                    A:00 X:FF Y:9E P:A5 SP:FD
F509  66 1E     ROR $1E = 45                    A:00 X:FF Y:9E P:A5 SP:FD
F50B  66 1F     ROR $1F = EB                    A:00 X:FF Y:9E P:A5 SP:FD
F50D  60        RTS                             A:00 X:FF Y:9E P:A5 SP:FD
C7E4  4C E1 C7  JMP $C7E1                       A:00 X:FF Y:9E P:A5 SP:FF
C7E1  20 ED F4  JSR $F4ED                       A:00 X:FF Y:9E P:A5 SP:FF
F4ED  A5 18     LDA $18 = 23                    A:00 X:FF Y:9E P:A5 SP:FD
F4EF  29 02     AND #$02                        A:23 X:FF Y:9E P:25 SP:FD
F4F1  85 00     STA $00 = 02                    A:02 X:FF Y:9E P:25 SP:FD
F4F3  A5 19     LDA $19 = 4F                    A:02 X:FF Y:9E P:25 SP:FD
F4F5  29 02     AND #$02                        A:4F X:FF Y:9E P:25 SP:FD
F4F7  45 00     EOR $00 = 02                    A:02 X:FF Y:9E P:25 SP:FD
F4F9  18        CLC                             A:00 X:FF Y:9E P:27 SP:FD
F4FA  F0 01     BEQ $F4FD                       A:00 X:FF Y:9E P:26 SP:FD
F4FD  66 18     ROR $18 = 23                    A:00 X:FF Y:9E P:26 SP:FD
F4FF  66 19     ROR $19 = 4F                    A:00 X:FF Y:9E P:25 SP:FD
F501  66 1A     ROR $1A = 09                    A:00 X:FF Y:9E P:A5 SP:FD
F503  66 1B     ROR $1B = 97                    A:00 X:FF Y:9E P:A5 SP:FD
F505  66 1C     ROR $1C = 84                    A:00 X:FF Y:9E P:A5 SP:FD
F507  66 1D     ROR $1D = AB                    A:00 X:FF Y:9E P:A4 SP:FD
F509  66 1E     ROR $1E = A2                    A:00 X:FF Y:9E P:25 SP:FD
F50B  66 1F     ROR $1F = F5                    A:00 X:FF Y:9E P:A4 SP:FD
F50D  60        RTS                             A:00 X:FF Y:9E P:25 SP:FD
C7E4  4C E1 C7  JMP $C7E1                       A:00 X:FF Y:9E P:25 SP:FF
C7E1  20 ED F4  JSR $F4ED                       A:00 X:FF Y:9E P:25 SP:FF
F4ED  A5 18     LDA $18 = 11                    A:00 X:FF Y:9E P:25 SP:FD
F4EF  29 02     AND #$02                        A:11 X:FF Y:9E P:25 SP:FD
F4F1  85 00     STA $00 = 02                    A:00 X:FF Y:9E P:27 SP:FD
F4F3  A5 19     LDA $19 = A7                    A:00 X:FF Y:9E P:27 SP:FD
F4F5  29 02     AND #$02                        A:A7 X:FF Y:9E P:A5 SP:FD
F4F7  45 00     EOR $00 = 00                    A:02 X:FF Y:9E P:25 SP:FD
F4F9  18        CLC                             A:02 X:FF Y:9E P:25 SP:FD
F4FA  F0 01     BEQ $F4FD                       A:02 X:FF Y:9E P:24 SP:FD
F4FC  38        SEC                             A:02 X:FF Y:9E P:24 SP:FD
F4FD  66 18     ROR $18 = 11                    A:02 X:FF Y:9E P:25 SP:FD
F4FF  66 19     ROR $19 = A7                    A:02 X:FF Y:9E P:A5 SP:FD
F501  66 1A     ROR $1A = 84                    A:02 X:FF Y:9E P:A5 SP:FD
F503  66 1B     ROR $1B = CB                    A:02 X:FF Y:9E P:A4 SP:FD
F505  66 1C     ROR $1C = C2                    A:02 X:FF Y:9E P:25 SP:FD
F507  66 1D     ROR $1D = 55                    A:02 X:FF Y:9E P:A4 SP:FD
F509  66 1E     ROR $1E = D1                    A:02 X:FF Y:9E P:25 SP:FD
F50B  66 1F     ROR $1F = 7A                    A:02 X:FF Y:9E P:A5 SP:FD
F50D  60        RTS                             A:02 X:FF Y:9E P:A4 SP:FD
C7E4  4C E1 C7  JMP $C7E1                       A:02 X:FF Y:9E P:A4 SP:FF
C7E1  20 ED F4  JSR $F4ED                       A:02 X:FF Y:9E P:A4 SP:FF
F4ED  A5 18     LDA $18 = 88                    A:02 X:FF Y:9E P:A4 SP:FD
F4EF  29 02     AND #$02                        A:88 X:FF Y:9E P:A4 SP:FD
F4F1  85 00     STA $00 = 00                    A:00 X:FF Y:9E P:26 SP:FD
F4F3  A5 19     LDA $19 = D3                    A:00 X:FF Y:9E P:26 SP:FD
F4F5  29 02     AND #$02                        A:D3 X:FF Y:9E P:A4 SP:FD
F4F7  45 00     EOR $00 = 00                    A:02 X:FF Y:9E P:24 SP:FD
F4F9  18        CLC                             A:02 X:FF Y:9E P:24 SP:FD
F4FA  F0 01     BEQ $F4FD                       A:02 X:FF Y:9E P:24 SP:FD
F4FC  38        SEC                             A:02 X:FF Y:9E P:24 SP:FD
F4FD  66 18     ROR $18 = 88                    A:02 X:FF Y:9E P:25 SP:FD
F4FF  66 19     ROR $19 = D3                    A:02 X:FF Y:9E P:A4 SP:FD
F501  66 1A     ROR $1A = C2                    A:02 X:FF Y:9E P:25 SP:FD
F503  66 1B     ROR $1B = 65                    A:02 X:FF Y:9E P:A4 SP:FD
F505  66 1C     ROR $1C = E1                    A:02 X:FF Y:9E P:25 SP:FD
F507  66 1D     ROR $1D = 2A                    A:02 X:FF Y:9E P:A5 SP:FD
F509  66 1E     ROR $1E = E8                    A:02 X:FF Y:9E P:A4 SP:FD
F50B  66 1F     ROR $1F = BD                    A:02 X:FF Y:9E P:24 SP:FD
F50D  60        RTS                             A:02 X:FF Y:9E P:25 SP:FD
C7E4  4C E1 C7  JMP $C7E1                       A:02 X:FF Y:9E P:25 SP:FF
C7E1  20 ED F4  JSR $F4ED                       A:02 X:FF Y:9E P:25 SP:FF
F4ED  A5 18     LDA $18 = C4                    A:02 X:FF Y:9E P:25 SP:FD
F4EF  29 02     AND #$02                        A:C4 X:FF Y:9E P:A5 SP:FD
F4F1  85 00     STA $00 = 00                    A:00 X:FF Y:9E P:27 SP:FD
F4F3  A5 19     LDA $19 = 69                    A:00 X:FF Y:9E P:27 SP:FD
F4F5  29 02     AND #$02                        A:69 X:FF Y:9E P:25 SP:FD
F4F7  45 00     EOR $00 = 00                    A:00 X:FF Y:9E P:27 SP:FD
F4F9  18        CLC                             A:00 X:FF Y:9E P:27 SP:FD
F4FA  F0 01     BEQ $F4FD                       A:00 X:FF Y:9E P:26 SP:FD
F4FD  66 18     ROR $18 = C4                    A:00 X:FF Y:9E P:26 SP:FD
F4FF  66 19     ROR $19 = 69                    A:00 X:FF Y:9E P:24 SP:FD
F501  66 1A     ROR $1A = E1                    A:00 X:FF Y:9E P:25 SP:FD
F503  66 1B     ROR $1B = 32                    A:00 X:FF Y:9E P:A5 SP:FD
F505  66 1C     ROR $1C = F0                    A:00 X:FF Y:9E P:A4 SP:FD
F507  66 1D     ROR $1D = 95                    A:00 X:FF Y:9E P:24 SP:FD
F509  66 1E     ROR $1E = 74                    A:00 X:FF Y:9E P:25 SP:FD
F50B  66 1F     ROR $1F = 5E                    A:00 X:FF Y:9E P:A4 SP:FD
F50D  60        RTS                             A:00 X:FF Y:9E P:24 SP:FD
C7E4  4C E1 C7  JMP $C7E1                       A:00 X:FF Y:9E P:24 SP:FF
C7E1  20 ED F4  JSR $F4ED                       A:00 X:FF Y:9E P:24 SP:FF
F4ED  A5 18     LDA $18 = 62                    A:00 X:FF Y:9E P:24 SP:FD
F4EF  29 02     AND #$02                        A:62 X:FF Y:9E P:24 SP:FD
F4F1  85 00     STA $00 = 00                    A:02 X:FF Y:9E P:24 SP:FD
F4F3  A5 19     LDA $19 = 34                    A:02 X:FF Y:9E P:24 SP:FD
F4F5  29 02     AND #$02                        A:34 X:FF Y:9E P:24 SP:FD
F4F7  45 00     EOR $00 = 02                    A:00 X:FF Y:9E P:26 SP:FD
F4F9  18        CLC                             A:02 X:FF Y:9E P:24 SP:FD
F4FA  F0 01     BEQ $F4FD                       A:02 X:FF Y:9E P:24 SP:FD
F4FC  38        SEC                             A:02 X:FF Y:9E P:24 SP:FD
F4FD  66 18     ROR $18 = 62                    A:02 X:FF Y:9E P:25 SP:FD
F4FF  66 19     ROR $19 = 34                    A:02 X:FF Y:9E P:A4 SP:FD
F501  66 1A     ROR $1A = F0                    A:02 X:FF Y:9E P:24 SP:FD
F503  66 1B     ROR $1B = 99                    A:02 X:FF Y:9E P:24 SP:FD
F505  66 1C     ROR $1C = 78                    A:02 X:FF Y:9E P:25 SP:FD
F507  66 1D     ROR $1D = 4A                    A:02 X:FF Y:9E P:A4 SP:FD
F509  66 1E     ROR $1E = BA                    A:02 X:FF Y:9E P:24 SP:FD
F50B  66 1F     ROR $1F = 2F                    A:02 X:FF Y:9E P:24 SP:FD
F50D  60        RTS                             A:02 X:FF Y:9E P:25 SP:FD
C7E4  4C E1 C7  JMP $C7E1                       A:02 X:FF Y:9E P:25 SP:FF
C7E1  20 ED F4  JSR $F4ED                       A:02 X:FF Y:9E P:25 SP:FF
F4ED  A5 18     LDA $18 = B1                    A:02 X:FF Y:9E P:25 SP:FD
F4EF  29 02     AND #$02                        A:B1 X:FF Y:9E P:A5 SP:FD
F4F1  85 00     STA $00 = 02                    A:00 X:FF Y:9E P:27 SP:FD
F4F3  A5 19     LDA $19 = 1A                    A:00 X:FF Y:9E P:27 SP:FD
F4F5  29 02     AND #$02                        A:1A X:FF Y:9E P:25 SP:FD
F4F7  45 00     EOR $00 = 00                    A:02 X:FF Y:9E P:25 SP:FD
F4F9  18        CLC                             A:02 X:FF Y:9E P:25 SP:FD
F4FA  F0 01     BEQ $F4FD                       A:02 X:FF Y:9E P:24 SP:FD
F4FC  38        SEC                             A:02 X:FF Y:9E P:24 SP:FD
F4FD  66 18     ROR $18 = B1                    A:02 X:FF Y:9E P:25 SP:FD
F4FF  66 19     ROR $19 = 1A                    A:02 X:FF Y:9E P:A5 SP:FD
F501  66 1A     ROR $1A = 78                    A:02 X:FF Y:9E P:A4 SP:FD
F503  66 1B     ROR $1B = 4C                    A:02 X:FF Y:9E P:24 SP:FD
F505  66 1C     ROR $1C = BC                    A:02 X:FF Y:9E P:24 SP:FD
F507  66 1D     ROR $1D = 25                    A:02 X:FF Y:9E P:24 SP:FD
F509  66 1E     ROR $1E = 5D                    A:02 X:FF Y:9E P:25 SP:FD
F50B  66 1F     ROR $1F = 17                    A:02 X:FF Y:9E P:A5 SP:FD
F50D  60        RTS                             A:02 X:FF Y:9E P:A5 SP:FD
C7E4  4C E1 C7  JMP $C7E1                       A:02 X:FF Y:9E P:A5 SP:FF
C7E1  20 ED F4  JSR $F4ED                       A:02 X:FF Y:9E P:A5 SP:FF
F4ED  A5 18     LDA $18 = D8                    A:02 X:FF Y:9E P:A5 SP:FD
