C09F  A6 52     LDX $52 = 00                    A:02 X:00 Y:10 P:2C SP:29 PPU: 41, 32 CYC:297
C0A1  20 50 C1  JSR $C150                       A:02 X:00 Y:10 P:2E SP:29 PPU: 49, 32 CYC:300
C150  BD 00 C0  LDA $C000,X @ C000 = 01         A:02 X:00 Y:10 P:2E SP:27 PPU: 65, 32 CYC:306
C153  85 00     STA $00 = 00                    A:01 X:00 Y:10 P:2C SP:27 PPU: 81, 32 CYC:310
C155  BD 0A C0  LDA $C00A,X @ C00A = 03         A:01 X:00 Y:10 P:2C SP:27 PPU: 89, 32 CYC:313
C158  85 01     STA $01 = 7F                    A:03 X:00 Y:10 P:2C SP:27 PPU: 97, 32 CYC:317
C15A  20 78 CB  JSR $CB78                       A:03 X:00 Y:10 P:2C SP:27 PPU:105, 32 CYC:320
CB78  AE 02 20  LDX $2002 = 00                  A:03 X:00 Y:10 P:2C SP:25 PPU:129, 32 CYC:326
CB7B  A0 00     LDY #$00                        A:03 X:00 Y:10 P:2E SP:25 PPU:137, 32 CYC:330
CB7D  B1 00     LDA ($00),Y = 0301 @ 0301 = 00  A:03 X:00 Y:00 P:2E SP:25 PPU:145, 32 CYC:332
CB7F  D0 BD     BNE $CB3E                       A:00 X:00 Y:00 P:2E SP:25 PPU:161, 32 CYC:337
CB81  A5 12     LDA $12 = 01                    A:00 X:00 Y:00 P:2E SP:25 PPU:161, 32 CYC:339
CB83  8D 05 20  STA $2005 = 9F                  A:01 X:00 Y:00 P:2C SP:25 PPU:177, 32 CYC:342
CB86  A5 13     LDA $13 = 9F                    A:01 X:00 Y:00 P:2C SP:25 PPU:185, 32 CYC:346
CB88  8D 05 20  STA $2005 = 01                  A:9F X:00 Y:00 P:AC SP:25 PPU:193, 32 CYC:349
CB8B  60        RTS                             A:9F X:00 Y:00 P:AC SP:25 PPU:209, 32 CYC:353
C15D  A9 00     LDA #$00                        A:9F X:00 Y:00 P:AC SP:27 PPU:225, 32 CYC:359
C15F  8D 00 03  STA $0300 = 00                  A:00 X:00 Y:00 P:2E SP:27 PPU:233, 32 CYC:361
C162  8D 01 03  STA $0301 = 00                  A:00 X:00 Y:00 P:2E SP:27 PPU:241, 32 CYC:365
C165  60        RTS                             A:00 X:00 Y:00 P:2E SP:27 PPU:257, 32 CYC:369
C0A4  85 52     STA $52 = 00                    A:00 X:00 Y:00 P:2E SP:29 PPU:273, 32 CYC:375
C0A6  85 DE     STA $DE = 00                    A:00 X:00 Y:00 P:2E SP:29 PPU:281, 32 CYC:378
C0A8  A9 3F     LDA #$3F                        A:00 X:00 Y:00 P:2E SP:29 PPU:289, 32 CYC:381
C0AA  8D 06 20  STA $2006 = 00                  A:3F X:00 Y:00 P:2C SP:29 PPU:297, 32 CYC:383
C0AD  A9 00     LDA #$00                        A:3F X:00 Y:00 P:2C SP:29 PPU:305, 32 CYC:387
C0AF  8D 06 20  STA $2006 = 3F                  A:00 X:00 Y:00 P:2E SP:29 PPU:313, 32 CYC:389
C0B2  8D 06 20  STA $2006 = 00                  A:00 X:00 Y:00 P:2E SP:29 PPU:323, 32 CYC:393
C0B5  8D 06 20  STA $2006 = 00                  A:00 X:00 Y:00 P:2E SP:29 PPU:335, 32 CYC:397
C0B8  AD 02 20  LDA $2002 = 00                  A:00 X:00 Y:00 P:2E SP:29 PPU:  9, 33 CYC:401
C0BB  20 81 CB  JSR $CB81                       A:00 X:00 Y:00 P:2E SP:29 PPU: 17, 33 CYC:405
CB81  A5 12     LDA $12 = 01                    A:00 X:00 Y:00 P:2E SP:27 PPU: 33, 33 CYC:411
CB83  8D 05 20  STA $2005 = 9F                  A:01 X:00 Y:00 P:2C SP:27 PPU: 41, 33 CYC:414
CB86  A5 13     LDA $13 = 9F                    A:01 X:00 Y:00 P:2C SP:27 PPU: 57, 33 CYC:418
CB88  8D 05 20  STA $2005 = 01                  A:9F X:00 Y:00 P:AC SP:27 PPU: 65, 33 CYC:421
CB8B  60        RTS                             A:9F X:00 Y:00 P:AC SP:27 PPU: 81, 33 CYC:425
C0BE  A5 10     LDA $10 = 11                    A:9F X:00 Y:00 P:AC SP:29 PPU: 97, 33 CYC:431
C0C0  8D 00 20  STA $2000 = 11                  A:11 X:00 Y:00 P:2C SP:29 PPU:105, 33 CYC:434
C0C3  20 ED CA  JSR $CAED                       A:11 X:00 Y:00 P:2C SP:29 PPU:113, 33 CYC:438
CAED  20 35 CB  JSR $CB35                       A:11 X:00 Y:00 P:2C SP:27 PPU:137, 33 CYC:444
CB35  A9 7F     LDA #$7F                        A:11 X:00 Y:00 P:2C SP:25 PPU:153, 33 CYC:450
CB37  85 01     STA $01 = 03                    A:7F X:00 Y:00 P:2C SP:25 PPU:161, 33 CYC:452
CB39  A9 80     LDA #$80                        A:7F X:00 Y:00 P:2C SP:25 PPU:169, 33 CYC:455
CB3B  85 02     STA $02 = 80                    A:80 X:00 Y:00 P:AC SP:25 PPU:177, 33 CYC:457
CB3D  60        RTS                             A:80 X:00 Y:00 P:AC SP:25 PPU:185, 33 CYC:460
CAF0  A9 01     LDA #$01                        A:80 X:00 Y:00 P:AC SP:27 PPU:201, 33 CYC:466
CAF2  8D 16 40  STA $4016 = 00                  A:01 X:00 Y:00 P:2C SP:27 PPU:209, 33 CYC:468
CAF5  A2 00     LDX #$00                        A:01 X:00 Y:00 P:2C SP:27 PPU:217, 33 CYC:472
CAF7  A9 00     LDA #$00                        A:01 X:00 Y:00 P:2E SP:27 PPU:225, 33 CYC:474
CAF9  8D 16 40  STA $4016 = 00                  A:00 X:00 Y:00 P:2E SP:27 PPU:233, 33 CYC:476
CAFC  20 00 CB  JSR $CB00                       A:00 X:00 Y:00 P:2E SP:27 PPU:241, 33 CYC:480
CB00  A0 08     LDY #$08                        A:00 X:00 Y:00 P:2E SP:25 PPU:257, 33 CYC:486
CB02  48        PHA                             A:00 X:00 Y:08 P:2C SP:25 PPU:265, 33 CYC:488
CB03  BD 16 40  LDA $4016,X @ 4016 = 00         A:00 X:00 Y:08 P:2C SP:24 PPU:273, 33 CYC:491
CB06  85 00     STA $00 = 01                    A:00 X:00 Y:08 P:2E SP:24 PPU:289, 33 CYC:495
CB08  4A        LSR A                           A:00 X:00 Y:08 P:2E SP:24 PPU:297, 33 CYC:498
CB09  05 00     ORA $00 = 00                    A:00 X:00 Y:08 P:2E SP:24 PPU:305, 33 CYC:500
CB0B  4A        LSR A                           A:00 X:00 Y:08 P:2E SP:24 PPU:313, 33 CYC:503
CB0C  68        PLA                             A:00 X:00 Y:08 P:2E SP:24 PPU:321, 33 CYC:505
CB0D  2A        ROL A                           A:00 X:00 Y:08 P:2E SP:25 PPU:326, 33 CYC:509
CB0E  88        DEY                             A:00 X:00 Y:08 P:2E SP:25 PPU:332, 33 CYC:511
CB0F  D0 F1     BNE $CB02                       A:00 X:00 Y:07 P:2C SP:25 PPU:345, 33 CYC:513
CB02  48        PHA                             A:00 X:00 Y:07 P:2C SP:25 PPU:  9, 34 CYC:516
CB03  BD 16 40  LDA $4016,X @ 4016 = 00         A:00 X:00 Y:07 P:2C SP:24 PPU: 17, 34 CYC:519
CB06  85 00     STA $00 = 00                    A:00 X:00 Y:07 P:2E SP:24 PPU: 25, 34 CYC:523
CB08  4A        LSR A                           A:00 X:00 Y:07 P:2E SP:24 PPU: 33, 34 CYC:526
CB09  05 00     ORA $00 = 00                    A:00 X:00 Y:07 P:2E SP:24 PPU: 41, 34 CYC:528
CB0B  4A        LSR A                           A:00 X:00 Y:07 P:2E SP:24 PPU: 49, 34 CYC:531
CB0C  68        PLA                             A:00 X:00 Y:07 P:2E SP:24 PPU: 57, 34 CYC:533
CB0D  2A        ROL A                           A:00 X:00 Y:07 P:2E SP:25 PPU: 65, 34 CYC:537
CB0E  88        DEY                             A:00 X:00 Y:07 P:2E SP:25 PPU: 73, 34 CYC:539
CB0F  D0 F1     BNE $CB02                       A:00 X:00 Y:06 P:2C SP:25 PPU: 81, 34 CYC:541
CB02  48        PHA                             A:00 X:00 Y:06 P:2C SP:25 PPU: 89, 34 CYC:544
CB03  BD 16 40  LDA $4016,X @ 4016 = 00         A:00 X:00 Y:06 P:2C SP:24 PPU: 97, 34 CYC:547
CB06  85 00     STA $00 = 00                    A:00 X:00 Y:06 P:2E SP:24 PPU:113, 34 CYC:551
CB08  4A        LSR A                           A:00 X:00 Y:06 P:2E SP:24 PPU:121, 34 CYC:554
CB09  05 00     ORA $00 = 00                    A:00 X:00 Y:06 P:2E SP:24 PPU:129, 34 CYC:556
CB0B  4A        LSR A                           A:00 X:00 Y:06 P:2E SP:24 PPU:137, 34 CYC:559
CB0C  68        PLA                             A:00 X:00 Y:06 P:2E SP:24 PPU:137, 34 CYC:561
CB0D  2A        ROL A                           A:00 X:00 Y:06 P:2E SP:25 PPU:153, 34 CYC:565
CB0E  88        DEY                             A:00 X:00 Y:06 P:2E SP:25 PPU:161, 34 CYC:567
CB0F  D0 F1     BNE $CB02                       A:00 X:00 Y:05 P:2C SP:25 PPU:161, 34 CYC:569
CB02  48        PHA                             A:00 X:00 Y:05 P:2C SP:25 PPU:177, 34 CYC:572
CB03  BD 16 40  LDA $4016,X @ 4016 = 00         A:00 X:00 Y:05 P:2C SP:24 PPU:185, 34 CYC:575
CB06  85 00     STA $00 = 00                    A:00 X:00 Y:05 P:2E SP:24 PPU:193, 34 CYC:579
CB08  4A        LSR A                           A:00 X:00 Y:05 P:2E SP:24 PPU:201, 34 CYC:582
CB09  05 00     ORA $00 = 00                    A:00 X:00 Y:05 P:2E SP:24 PPU:209, 34 CYC:584
CB0B  4A        LSR A                           A:00 X:00 Y:05 P:2E SP:24 PPU:217, 34 CYC:587
CB0C  68        PLA                             A:00 X:00 Y:05 P:2E SP:24 PPU:225, 34 CYC:589
CB0D  2A        ROL A                           A:00 X:00 Y:05 P:2E SP:25 PPU:233, 34 CYC:593
CB0E  88        DEY                             A:00 X:00 Y:05 P:2E SP:25 PPU:241, 34 CYC:595
CB0F  D0 F1     BNE $CB02                       A:00 X:00 Y:04 P:2C SP:25 PPU:249, 34 CYC:597
CB02  48        PHA                             A:00 X:00 Y:04 P:2C SP:25 PPU:257, 34 CYC:600
CB03  BD 16 40  LDA $4016,X @ 4016 = 00         A:00 X:00 Y:04 P:2C SP:24 PPU:265, 34 CYC:603
CB06  85 00     STA $00 = 00                    A:00 X:00 Y:04 P:2E SP:24 PPU:281, 34 CYC:607
CB08  4A        LSR A                           A:00 X:00 Y:04 P:2E SP:24 PPU:289, 34 CYC:610
CB09  05 00     ORA $00 = 00                    A:00 X:00 Y:04 P:2E SP:24 PPU:297, 34 CYC:612
CB0B  4A        LSR A                           A:00 X:00 Y:04 P:2E SP:24 PPU:305, 34 CYC:615
CB0C  68        PLA                             A:00 X:00 Y:04 P:2E SP:24 PPU:305, 34 CYC:617
CB0D  2A        ROL A                           A:00 X:00 Y:04 P:2E SP:25 PPU:321, 34 CYC:621
CB0E  88        DEY                             A:00 X:00 Y:04 P:2E SP:25 PPU:323, 34 CYC:623
CB0F  D0 F1     BNE $CB02                       A:00 X:00 Y:03 P:2C SP:25 PPU:329, 34 CYC:625
CB02  48        PHA                             A:00 X:00 Y:03 P:2C SP:25 PPU:345, 34 CYC:628
CB03  BD 16 40  LDA $4016,X @ 4016 = 00         A:00 X:00 Y:03 P:2C SP:24 PPU:  9, 35 CYC:631
CB06  85 00     STA $00 = 00                    A:00 X:00 Y:03 P:2E SP:24 PPU: 17, 35 CYC:635
CB08  4A        LSR A                           A:00 X:00 Y:03 P:2E SP:24 PPU: 25, 35 CYC:638
CB09  05 00     ORA $00 = 00                    A:00 X:00 Y:03 P:2E SP:24 PPU: 33, 35 CYC:640
CB0B  4A        LSR A                           A:00 X:00 Y:03 P:2E SP:24 PPU: 41, 35 CYC:643
CB0C  68        PLA                             A:00 X:00 Y:03 P:2E SP:24 PPU: 49, 35 CYC:645
CB0D  2A        ROL A                           A:00 X:00 Y:03 P:2E SP:25 PPU: 57, 35 CYC:649
CB0E  88        DEY                             A:00 X:00 Y:03 P:2E SP:25 PPU: 65, 35 CYC:651
CB0F  D0 F1     BNE $CB02                       A:00 X:00 Y:02 P:2C SP:25 PPU: 73, 35 CYC:653
CB02  48        PHA                             A:00 X:00 Y:02 P:2C SP:25 PPU: 81, 35 CYC:656
CB03  BD 16 40  LDA $4016,X @ 4016 = 00         A:00 X:00 Y:02 P:2C SP:24 PPU: 89, 35 CYC:659
CB06  85 00     STA $00 = 00                    A:00 X:00 Y:02 P:2E SP:24 PPU:105, 35 CYC:663
CB08  4A        LSR A                           A:00 X:00 Y:02 P:2E SP:24 PPU:113, 35 CYC:666
CB09  05 00     ORA $00 = 00                    A:00 X:00 Y:02 P:2E SP:24 PPU:113, 35 CYC:668
CB0B  4A        LSR A                           A:00 X:00 Y:02 P:2E SP:24 PPU:129, 35 CYC:671
CB0C  68        PLA                             A:00 X:00 Y:02 P:2E SP:24 PPU:129, 35 CYC:673
CB0D  2A        ROL A                           A:00 X:00 Y:02 P:2E SP:25 PPU:145, 35 CYC:677
CB0E  88        DEY                             A:00 X:00 Y:02 P:2E SP:25 PPU:153, 35 CYC:679
CB0F  D0 F1     BNE $CB02                       A:00 X:00 Y:01 P:2C SP:25 PPU:153, 35 CYC:681
CB02  48        PHA                             A:00 X:00 Y:01 P:2C SP:25 PPU:161, 35 CYC:684
CB03  BD 16 40  LDA $4016,X @ 4016 = 00         A:00 X:00 Y:01 P:2C SP:24 PPU:177, 35 CYC:687
CB06  85 00     STA $00 = 00                    A:00 X:00 Y:01 P:2E SP:24 PPU:185, 35 CYC:691
CB08  4A        LSR A                           A:00 X:00 Y:01 P:2E SP:24 PPU:193, 35 CYC:694
CB09  05 00     ORA $00 = 00                    A:00 X:00 Y:01 P:2E SP:24 PPU:201, 35 CYC:696
CB0B  4A        LSR A                           A:00 X:00 Y:01 P:2E SP:24 PPU:209, 35 CYC:699
CB0C  68        PLA                             A:00 X:00 Y:01 P:2E SP:24 PPU:217, 35 CYC:701
CB0D  2A        ROL A                           A:00 X:00 Y:01 P:2E SP:25 PPU:225, 35 CYC:705
CB0E  88        DEY                             A:00 X:00 Y:01 P:2E SP:25 PPU:233, 35 CYC:707
CB0F  D0 F1     BNE $CB02                       A:00 X:00 Y:00 P:2E SP:25 PPU:241, 35 CYC:709
CB11  86 00     STX $00 = 00                    A:00 X:00 Y:00 P:2E SP:25 PPU:249, 35 CYC:711
CB13  06 00     ASL $00 = 00                    A:00 X:00 Y:00 P:2E SP:25 PPU:257, 35 CYC:714
CB15  A6 00     LDX $00 = 00                    A:00 X:00 Y:00 P:2E SP:25 PPU:273, 35 CYC:719
CB17  B4 14     LDY $14,X @ 14 = 00             A:00 X:00 Y:00 P:2E SP:25 PPU:281, 35 CYC:722
CB19  84 00     STY $00 = 00                    A:00 X:00 Y:00 P:2E SP:25 PPU:289, 35 CYC:726
CB1B  95 14     STA $14,X @ 14 = 00             A:00 X:00 Y:00 P:2E SP:25 PPU:297, 35 CYC:729
CB1D  95 15     STA $15,X @ 15 = 00             A:00 X:00 Y:00 P:2E SP:25 PPU:313, 35 CYC:733
CB1F  A0 04     LDY #$04                        A:00 X:00 Y:00 P:2E SP:25 PPU:321, 35 CYC:737
CB21  A5 02     LDA $02 = 80                    A:00 X:00 Y:04 P:2C SP:25 PPU:326, 35 CYC:739
CB23  24 00     BIT $00 = 00                    A:80 X:00 Y:04 P:AC SP:25 PPU:335, 35 CYC:742
CB25  F0 06     BEQ $CB2D                       A:80 X:00 Y:04 P:2E SP:25 PPU:345, 35 CYC:745
CB2D  38        SEC                             A:80 X:00 Y:04 P:2E SP:25 PPU:  9, 36 CYC:748
CB2E  66 01     ROR $01 = 7F                    A:80 X:00 Y:04 P:2F SP:25 PPU: 17, 36 CYC:750
CB30  46 02     LSR $02 = 80                    A:80 X:00 Y:04 P:AD SP:25 PPU: 33, 36 CYC:755
CB32  88        DEY                             A:80 X:00 Y:04 P:2C SP:25 PPU: 49, 36 CYC:760
CB33  D0 EC     BNE $CB21                       A:80 X:00 Y:03 P:2C SP:25 PPU: 57, 36 CYC:762
CB21  A5 02     LDA $02 = 40                    A:80 X:00 Y:03 P:2C SP:25 PPU: 65, 36 CYC:765
CB23  24 00     BIT $00 = 00                    A:40 X:00 Y:03 P:2C SP:25 PPU: 73, 36 CYC:768
CB25  F0 06     BEQ $CB2D                       A:40 X:00 Y:03 P:2E SP:25 PPU: 81, 36 CYC:771
CB2D  38        SEC                             A:40 X:00 Y:03 P:2E SP:25 PPU: 89, 36 CYC:774
CB2E  66 01     ROR $01 = BF                    A:40 X:00 Y:03 P:2F SP:25 PPU: 97, 36 CYC:776
CB30  46 02     LSR $02 = 40                    A:40 X:00 Y:03 P:AD SP:25 PPU:113, 36 CYC:781
CB32  88        DEY                             A:40 X:00 Y:03 P:2C SP:25 PPU:129, 36 CYC:786
CB33  D0 EC     BNE $CB21                       A:40 X:00 Y:02 P:2C SP:25 PPU:129, 36 CYC:788
CB21  A5 02     LDA $02 = 20                    A:40 X:00 Y:02 P:2C SP:25 PPU:137, 36 CYC:791
CB23  24 00     BIT $00 = 00                    A:20 X:00 Y:02 P:2C SP:25 PPU:153, 36 CYC:794
CB25  F0 06     BEQ $CB2D                       A:20 X:00 Y:02 P:2E SP:25 PPU:161, 36 CYC:797
CB2D  38        SEC                             A:20 X:00 Y:02 P:2E SP:25 PPU:169, 36 CYC:800
CB2E  66 01     ROR $01 = DF                    A:20 X:00 Y:02 P:2F SP:25 PPU:177, 36 CYC:802
CB30  46 02     LSR $02 = 20                    A:20 X:00 Y:02 P:AD SP:25 PPU:185, 36 CYC:807
CB32  88        DEY                             A:20 X:00 Y:02 P:2C SP:25 PPU:201, 36 CYC:812
CB33  D0 EC     BNE $CB21                       A:20 X:00 Y:01 P:2C SP:25 PPU:209, 36 CYC:814
CB21  A5 02     LDA $02 = 10                    A:20 X:00 Y:01 P:2C SP:25 PPU:217, 36 CYC:817
CB23  24 00     BIT $00 = 00                    A:10 X:00 Y:01 P:2C SP:25 PPU:225, 36 CYC:820
CB25  F0 06     BEQ $CB2D                       A:10 X:00 Y:01 P:2E SP:25 PPU:233, 36 CYC:823
CB2D  38        SEC                             A:10 X:00 Y:01 P:2E SP:25 PPU:249, 36 CYC:826
CB2E  66 01     ROR $01 = EF                    A:10 X:00 Y:01 P:2F SP:25 PPU:249, 36 CYC:828
CB30  46 02     LSR $02 = 10                    A:10 X:00 Y:01 P:AD SP:25 PPU:265, 36 CYC:833
CB32  88        DEY                             A:10 X:00 Y:01 P:2C SP:25 PPU:281, 36 CYC:838
CB33  D0 EC     BNE $CB21                       A:10 X:00 Y:00 P:2E SP:25 PPU:289, 36 CYC:840
CB35  A9 7F     LDA #$7F                        A:10 X:00 Y:00 P:2E SP:25 PPU:297, 36 CYC:842
CB37  85 01     STA $01 = F7                    A:7F X:00 Y:00 P:2C SP:25 PPU:297, 36 CYC:844
CB39  A9 80     LDA #$80                        A:7F X:00 Y:00 P:2C SP:25 PPU:305, 36 CYC:847
CB3B  85 02     STA $02 = 08                    A:80 X:00 Y:00 P:AC SP:25 PPU:313, 36 CYC:849
CB3D  60        RTS                             A:80 X:00 Y:00 P:AC SP:25 PPU:321, 36 CYC:852
CAFF  E8        INX                             A:80 X:00 Y:00 P:AC SP:27 PPU:345, 36 CYC:858
CB00  A0 08     LDY #$08                        A:80 X:01 Y:00 P:2C SP:27 PPU:345, 36 CYC:860
CB02  48        PHA                             A:80 X:01 Y:08 P:2C SP:27 PPU:  9, 37 CYC:862
CB03  BD 16 40  LDA $4016,X @ 4017 = 00         A:80 X:01 Y:08 P:2C SP:26 PPU: 17, 37 CYC:865
CB06  85 00     STA $00 = 00                    A:00 X:01 Y:08 P:2E SP:26 PPU: 33, 37 CYC:869
CB08  4A        LSR A                           A:00 X:01 Y:08 P:2E SP:26 PPU: 41, 37 CYC:872
CB09  05 00     ORA $00 = 00                    A:00 X:01 Y:08 P:2E SP:26 PPU: 41, 37 CYC:874
CB0B  4A        LSR A                           A:00 X:01 Y:08 P:2E SP:26 PPU: 57, 37 CYC:877
CB0C  68        PLA                             A:00 X:01 Y:08 P:2E SP:26 PPU: 57, 37 CYC:879
CB0D  2A        ROL A                           A:80 X:01 Y:08 P:AC SP:27 PPU: 73, 37 CYC:883
CB0E  88        DEY                             A:00 X:01 Y:08 P:2F SP:27 PPU: 81, 37 CYC:885
CB0F  D0 F1     BNE $CB02                       A:00 X:01 Y:07 P:2D SP:27 PPU: 81, 37 CYC:887
CB02  48        PHA                             A:00 X:01 Y:07 P:2D SP:27 PPU: 89, 37 CYC:890
CB03  BD 16 40  LDA $4016,X @ 4017 = 00         A:00 X:01 Y:07 P:2D SP:26 PPU:105, 37 CYC:893
CB06  85 00     STA $00 = 00                    A:00 X:01 Y:07 P:2F SP:26 PPU:113, 37 CYC:897
CB08  4A        LSR A                           A:00 X:01 Y:07 P:2F SP:26 PPU:121, 37 CYC:900
CB09  05 00     ORA $00 = 00                    A:00 X:01 Y:07 P:2E SP:26 PPU:129, 37 CYC:902
CB0B  4A        LSR A                           A:00 X:01 Y:07 P:2E SP:26 PPU:137, 37 CYC:905
CB0C  68        PLA                             A:00 X:01 Y:07 P:2E SP:26 PPU:145, 37 CYC:907
CB0D  2A        ROL A                           A:00 X:01 Y:07 P:2E SP:27 PPU:153, 37 CYC:911
CB0E  88        DEY                             A:00 X:01 Y:07 P:2E SP:27 PPU:161, 37 CYC:913
CB0F  D0 F1     BNE $CB02                       A:00 X:01 Y:06 P:2C SP:27 PPU:169, 37 CYC:915
CB02  48        PHA                             A:00 X:01 Y:06 P:2C SP:27 PPU:177, 37 CYC:918
CB03  BD 16 40  LDA $4016,X @ 4017 = 00         A:00 X:01 Y:06 P:2C SP:26 PPU:185, 37 CYC:921
CB06  85 00     STA $00 = 00                    A:00 X:01 Y:06 P:2E SP:26 PPU:201, 37 CYC:925
CB08  4A        LSR A                           A:00 X:01 Y:06 P:2E SP:26 PPU:209, 37 CYC:928
CB09  05 00     ORA $00 = 00                    A:00 X:01 Y:06 P:2E SP:26 PPU:209, 37 CYC:930
CB0B  4A        LSR A                           A:00 X:01 Y:06 P:2E SP:26 PPU:225, 37 CYC:933
CB0C  68        PLA                             A:00 X:01 Y:06 P:2E SP:26 PPU:225, 37 CYC:935
CB0D  2A        ROL A                           A:00 X:01 Y:06 P:2E SP:27 PPU:241, 37 CYC:939
CB0E  88        DEY                             A:00 X:01 Y:06 P:2E SP:27 PPU:249, 37 CYC:941
CB0F  D0 F1     BNE $CB02                       A:00 X:01 Y:05 P:2C SP:27 PPU:249, 37 CYC:943
CB02  48        PHA                             A:00 X:01 Y:05 P:2C SP:27 PPU:257, 37 CYC:946
CB03  BD 16 40  LDA $4016,X @ 4017 = 00         A:00 X:01 Y:05 P:2C SP:26 PPU:273, 37 CYC:949
CB06  85 00     STA $00 = 00                    A:00 X:01 Y:05 P:2E SP:26 PPU:281, 37 CYC:953
CB08  4A        LSR A                           A:00 X:01 Y:05 P:2E SP:26 PPU:289, 37 CYC:956
CB09  05 00     ORA $00 = 00                    A:00 X:01 Y:05 P:2E SP:26 PPU:297, 37 CYC:958
CB0B  4A        LSR A                           A:00 X:01 Y:05 P:2E SP:26 PPU:305, 37 CYC:961
CB0C  68        PLA                             A:00 X:01 Y:05 P:2E SP:26 PPU:313, 37 CYC:963
CB0D  2A        ROL A                           A:00 X:01 Y:05 P:2E SP:27 PPU:321, 37 CYC:967
CB0E  88        DEY                             A:00 X:01 Y:05 P:2E SP:27 PPU:326, 37 CYC:969
CB0F  D0 F1     BNE $CB02                       A:00 X:01 Y:04 P:2C SP:27 PPU:332, 37 CYC:971
CB02  48        PHA                             A:00 X:01 Y:04 P:2C SP:27 PPU:345, 37 CYC:974
CB03  BD 16 40  LDA $4016,X @ 4017 = 00         A:00 X:01 Y:04 P:2C SP:26 PPU:  9, 38 CYC:977
CB06  85 00     STA $00 = 00                    A:00 X:01 Y:04 P:2E SP:26 PPU: 17, 38 CYC:981
CB08  4A        LSR A                           A:00 X:01 Y:04 P:2E SP:26 PPU: 33, 38 CYC:984
CB09  05 00     ORA $00 = 00                    A:00 X:01 Y:04 P:2E SP:26 PPU: 33, 38 CYC:986
CB0B  4A        LSR A                           A:00 X:01 Y:04 P:2E SP:26 PPU: 41, 38 CYC:989
CB0C  68        PLA                             A:00 X:01 Y:04 P:2E SP:26 PPU: 49, 38 CYC:991
CB0D  2A        ROL A                           A:00 X:01 Y:04 P:2E SP:27 PPU: 65, 38 CYC:995
CB0E  88        DEY                             A:00 X:01 Y:04 P:2E SP:27 PPU: 65, 38 CYC:997
CB0F  D0 F1     BNE $CB02                       A:00 X:01 Y:03 P:2C SP:27 PPU: 73, 38 CYC:999
CB02  48        PHA                             A:00 X:01 Y:03 P:2C SP:27 PPU: 81, 38 CYC:1002
CB03  BD 16 40  LDA $4016,X @ 4017 = 00         A:00 X:01 Y:03 P:2C SP:26 PPU: 89, 38 CYC:1005
CB06  85 00     STA $00 = 00                    A:00 X:01 Y:03 P:2E SP:26 PPU:105, 38 CYC:1009
CB08  4A        LSR A                           A:00 X:01 Y:03 P:2E SP:26 PPU:113, 38 CYC:1012
CB09  05 00     ORA $00 = 00                    A:00 X:01 Y:03 P:2E SP:26 PPU:121, 38 CYC:1014
CB0B  4A        LSR A                           A:00 X:01 Y:03 P:2E SP:26 PPU:129, 38 CYC:1017
CB0C  68        PLA                             A:00 X:01 Y:03 P:2E SP:26 PPU:137, 38 CYC:1019
CB0D  2A        ROL A                           A:00 X:01 Y:03 P:2E SP:27 PPU:145, 38 CYC:1023
CB0E  88        DEY                             A:00 X:01 Y:03 P:2E SP:27 PPU:153, 38 CYC:1025
CB0F  D0 F1     BNE $CB02                       A:00 X:01 Y:02 P:2C SP:27 PPU:161, 38 CYC:1027
CB02  48        PHA                             A:00 X:01 Y:02 P:2C SP:27 PPU:169, 38 CYC:1030
CB03  BD 16 40  LDA $4016,X @ 4017 = 00         A:00 X:01 Y:02 P:2C SP:26 PPU:177, 38 CYC:1033
CB06  85 00     STA $00 = 00                    A:00 X:01 Y:02 P:2E SP:26 PPU:185, 38 CYC:1037
CB08  4A        LSR A                           A:00 X:01 Y:02 P:2E SP:26 PPU:201, 38 CYC:1040
CB09  05 00     ORA $00 = 00                    A:00 X:01 Y:02 P:2E SP:26 PPU:201, 38 CYC:1042
CB0B  4A        LSR A                           A:00 X:01 Y:02 P:2E SP:26 PPU:209, 38 CYC:1045
CB0C  68        PLA                             A:00 X:01 Y:02 P:2E SP:26 PPU:217, 38 CYC:1047
CB0D  2A        ROL A                           A:00 X:01 Y:02 P:2E SP:27 PPU:233, 38 CYC:1051
CB0E  88        DEY                             A:00 X:01 Y:02 P:2E SP:27 PPU:233, 38 CYC:1053
CB0F  D0 F1     BNE $CB02                       A:00 X:01 Y:01 P:2C SP:27 PPU:241, 38 CYC:1055
CB02  48        PHA                             A:00 X:01 Y:01 P:2C SP:27 PPU:249, 38 CYC:1058
CB03  BD 16 40  LDA $4016,X @ 4017 = 00         A:00 X:01 Y:01 P:2C SP:26 PPU:257, 38 CYC:1061
CB06  85 00     STA $00 = 00                    A:00 X:01 Y:01 P:2E SP:26 PPU:273, 38 CYC:1065
CB08  4A        LSR A                           A:00 X:01 Y:01 P:2E SP:26 PPU:281, 38 CYC:1068
CB09  05 00     ORA $00 = 00                    A:00 X:01 Y:01 P:2E SP:26 PPU:289, 38 CYC:1070
CB0B  4A        LSR A                           A:00 X:01 Y:01 P:2E SP:26 PPU:297, 38 CYC:1073
CB0C  68        PLA                             A:00 X:01 Y:01 P:2E SP:26 PPU:305, 38 CYC:1075
CB0D  2A        ROL A                           A:00 X:01 Y:01 P:2E SP:27 PPU:313, 38 CYC:1079
CB0E  88        DEY                             A:00 X:01 Y:01 P:2E SP:27 PPU:321, 38 CYC:1081
CB0F  D0 F1     BNE $CB02                       A:00 X:01 Y:00 P:2E SP:27 PPU:323, 38 CYC:1083
CB11  86 00     STX $00 = 00                    A:00 X:01 Y:00 P:2E SP:27 PPU:329, 38 CYC:1085
CB13  06 00     ASL $00 = 01                    A:00 X:01 Y:00 P:2E SP:27 PPU:345, 38 CYC:1088
CB15  A6 00     LDX $00 = 02                    A:00 X:01 Y:00 P:2C SP:27 PPU:  9, 39 CYC:1093
CB17  B4 14     LDY $14,X @ 16 = 00             A:00 X:02 Y:00 P:2C SP:27 PPU: 17, 39 CYC:1096
CB19  84 00     STY $00 = 02                    A:00 X:02 Y:00 P:2E SP:27 PPU: 33, 39 CYC:1100
CB1B  95 14     STA $14,X @ 16 = 00             A:00 X:02 Y:00 P:2E SP:27 PPU: 41, 39 CYC:1103
CB1D  95 15     STA $15,X @ 17 = 00             A:00 X:02 Y:00 P:2E SP:27 PPU: 57, 39 CYC:1107
CB1F  A0 04     LDY #$04                        A:00 X:02 Y:00 P:2E SP:27 PPU: 65, 39 CYC:1111
CB21  A5 02     LDA $02 = 80                    A:00 X:02 Y:04 P:2C SP:27 PPU: 73, 39 CYC:1113
CB23  24 00     BIT $00 = 00                    A:80 X:02 Y:04 P:AC SP:27 PPU: 81, 39 CYC:1116
CB25  F0 06     BEQ $CB2D                       A:80 X:02 Y:04 P:2E SP:27 PPU: 89, 39 CYC:1119
CB2D  38        SEC                             A:80 X:02 Y:04 P:2E SP:27 PPU: 97, 39 CYC:1122
CB2E  66 01     ROR $01 = 7F                    A:80 X:02 Y:04 P:2F SP:27 PPU:105, 39 CYC:1124
CB30  46 02     LSR $02 = 80                    A:80 X:02 Y:04 P:AD SP:27 PPU:121, 39 CYC:1129
CB32  88        DEY                             A:80 X:02 Y:04 P:2C SP:27 PPU:137, 39 CYC:1134
CB33  D0 EC     BNE $CB21                       A:80 X:02 Y:03 P:2C SP:27 PPU:137, 39 CYC:1136
CB21  A5 02     LDA $02 = 40                    A:80 X:02 Y:03 P:2C SP:27 PPU:153, 39 CYC:1139
CB23  24 00     BIT $00 = 00                    A:40 X:02 Y:03 P:2C SP:27 PPU:161, 39 CYC:1142
CB25  F0 06     BEQ $CB2D                       A:40 X:02 Y:03 P:2E SP:27 PPU:169, 39 CYC:1145
CB2D  38        SEC                             A:40 X:02 Y:03 P:2E SP:27 PPU:177, 39 CYC:1148
CB2E  66 01     ROR $01 = BF                    A:40 X:02 Y:03 P:2F SP:27 PPU:185, 39 CYC:1150
CB30  46 02     LSR $02 = 40                    A:40 X:02 Y:03 P:AD SP:27 PPU:201, 39 CYC:1155
CB32  88        DEY                             A:40 X:02 Y:03 P:2C SP:27 PPU:209, 39 CYC:1160
CB33  D0 EC     BNE $CB21                       A:40 X:02 Y:02 P:2C SP:27 PPU:217, 39 CYC:1162
CB21  A5 02     LDA $02 = 20                    A:40 X:02 Y:02 P:2C SP:27 PPU:225, 39 CYC:1165
CB23  24 00     BIT $00 = 00                    A:20 X:02 Y:02 P:2C SP:27 PPU:233, 39 CYC:1168
CB25  F0 06     BEQ $CB2D                       A:20 X:02 Y:02 P:2E SP:27 PPU:249, 39 CYC:1171
CB2D  38        SEC                             A:20 X:02 Y:02 P:2E SP:27 PPU:257, 39 CYC:1174
CB2E  66 01     ROR $01 = DF                    A:20 X:02 Y:02 P:2F SP:27 PPU:257, 39 CYC:1176
CB30  46 02     LSR $02 = 20                    A:20 X:02 Y:02 P:AD SP:27 PPU:273, 39 CYC:1181
CB32  88        DEY                             A:20 X:02 Y:02 P:2C SP:27 PPU:289, 39 CYC:1186
CB33  D0 EC     BNE $CB21                       A:20 X:02 Y:01 P:2C SP:27 PPU:297, 39 CYC:1188
CB21  A5 02     LDA $02 = 10                    A:20 X:02 Y:01 P:2C SP:27 PPU:305, 39 CYC:1191
CB23  24 00     BIT $00 = 00                    A:10 X:02 Y:01 P:2C SP:27 PPU:313, 39 CYC:1194
CB25  F0 06     BEQ $CB2D                       A:10 X:02 Y:01 P:2E SP:27 PPU:321, 39 CYC:1197
CB2D  38        SEC                             A:10 X:02 Y:01 P:2E SP:27 PPU:329, 39 CYC:1200
CB2E  66 01     ROR $01 = EF                    A:10 X:02 Y:01 P:2F SP:27 PPU:335, 39 CYC:1202
CB30  46 02     LSR $02 = 10                    A:10 X:02 Y:01 P:AD SP:27 PPU:  9, 40 CYC:1207
CB32  88        DEY                             A:10 X:02 Y:01 P:2C SP:27 PPU: 25, 40 CYC:1212
CB33  D0 EC     BNE $CB21                       A:10 X:02 Y:00 P:2E SP:27 PPU: 33, 40 CYC:1214
CB35  A9 7F     LDA #$7F                        A:10 X:02 Y:00 P:2E SP:27 PPU: 33, 40 CYC:1216
CB37  85 01     STA $01 = F7                    A:7F X:02 Y:00 P:2C SP:27 PPU: 41, 40 CYC:1218
CB39  A9 80     LDA #$80                        A:7F X:02 Y:00 P:2C SP:27 PPU: 49, 40 CYC:1221
CB3B  85 02     STA $02 = 08                    A:80 X:02 Y:00 P:AC SP:27 PPU: 57, 40 CYC:1223
CB3D  60        RTS                             A:80 X:02 Y:00 P:AC SP:27 PPU: 65, 40 CYC:1226
C0C6  20 1E F9  JSR $F91E                       A:80 X:02 Y:00 P:AC SP:29 PPU: 81, 40 CYC:1232
F91E  A9 FF     LDA #$FF                        A:80 X:02 Y:00 P:AC SP:27 PPU:105, 40 CYC:1238
F920  8D 17 40  STA $4017 = 00                  A:FF X:02 Y:00 P:AC SP:27 PPU:105, 40 CYC:1240
F923  20 EB F9  JSR $F9EB                       A:FF X:02 Y:00 P:AC SP:27 PPU:121, 40 CYC:1244
F9EB  A4 FF     LDY $FF = 00                    A:FF X:02 Y:00 P:AC SP:25 PPU:137, 40 CYC:1250
F9ED  A5 F0     LDA $F0 = 00                    A:FF X:02 Y:00 P:2E SP:25 PPU:145, 40 CYC:1253
F9EF  46 FF     LSR $FF = 00                    A:00 X:02 Y:00 P:2E SP:25 PPU:153, 40 CYC:1256
F9F1  B0 B8     BCS $F9AB                       A:00 X:02 Y:00 P:2E SP:25 PPU:169, 40 CYC:1261
F9F3  4A        LSR A                           A:00 X:02 Y:00 P:2E SP:25 PPU:177, 40 CYC:1263
F9F4  B0 BB     BCS $F9B1                       A:00 X:02 Y:00 P:2E SP:25 PPU:185, 40 CYC:1265
F9F6  46 FF     LSR $FF = 00                    A:00 X:02 Y:00 P:2E SP:25 PPU:185, 40 CYC:1267
F9F8  B0 CE     BCS $F9C8                       A:00 X:02 Y:00 P:2E SP:25 PPU:201, 40 CYC:1272
F9FA  4A        LSR A                           A:00 X:02 Y:00 P:2E SP:25 PPU:209, 40 CYC:1274
F9FB  B0 D3     BCS $F9D0                       A:00 X:02 Y:00 P:2E SP:25 PPU:217, 40 CYC:1276
F9FD  46 FF     LSR $FF = 00                    A:00 X:02 Y:00 P:2E SP:25 PPU:225, 40 CYC:1278
F9FF  B0 0B     BCS $FA0C                       A:00 X:02 Y:00 P:2E SP:25 PPU:233, 40 CYC:1283
FA01  4A        LSR A                           A:00 X:02 Y:00 P:2E SP:25 PPU:241, 40 CYC:1285
FA02  B0 17     BCS $FA1B                       A:00 X:02 Y:00 P:2E SP:25 PPU:249, 40 CYC:1287
FA04  46 FF     LSR $FF = 00                    A:00 X:02 Y:00 P:2E SP:25 PPU:257, 40 CYC:1289
FA06  B0 38     BCS $FA40                       A:00 X:02 Y:00 P:2E SP:25 PPU:273, 40 CYC:1294
FA08  4A        LSR A                           A:00 X:02 Y:00 P:2E SP:25 PPU:273, 40 CYC:1296
FA09  B0 3F     BCS $FA4A                       A:00 X:02 Y:00 P:2E SP:25 PPU:281, 40 CYC:1298
FA0B  60        RTS                             A:00 X:02 Y:00 P:2E SP:25 PPU:289, 40 CYC:1300
F926  20 C4 FA  JSR $FAC4                       A:00 X:02 Y:00 P:2E SP:27 PPU:305, 40 CYC:1306
FAC4  A4 FE     LDY $FE = 00                    A:00 X:02 Y:00 P:2E SP:25 PPU:321, 40 CYC:1312
FAC6  A5 F1     LDA $F1 = 00                    A:00 X:02 Y:00 P:2E SP:25 PPU:329, 40 CYC:1315
FAC8  46 FE     LSR $FE = 00                    A:00 X:02 Y:00 P:2E SP:25 PPU:345, 40 CYC:1318
FACA  B0 98     BCS $FA64                       A:00 X:02 Y:00 P:2E SP:25 PPU:  9, 41 CYC:1323
FACC  4A        LSR A                           A:00 X:02 Y:00 P:2E SP:25 PPU: 17, 41 CYC:1325
FACD  B0 9C     BCS $FA6B                       A:00 X:02 Y:00 P:2E SP:25 PPU: 25, 41 CYC:1327
FACF  46 FE     LSR $FE = 00                    A:00 X:02 Y:00 P:2E SP:25 PPU: 33, 41 CYC:1329
FAD1  B0 B0     BCS $FA83                       A:00 X:02 Y:00 P:2E SP:25 PPU: 41, 41 CYC:1334
FAD3  4A        LSR A                           A:00 X:02 Y:00 P:2E SP:25 PPU: 49, 41 CYC:1336
FAD4  B0 BE     BCS $FA94                       A:00 X:02 Y:00 P:2E SP:25 PPU: 57, 41 CYC:1338
FAD6  46 FE     LSR $FE = 00                    A:00 X:02 Y:00 P:2E SP:25 PPU: 65, 41 CYC:1340
FAD8  B0 12     BCS $FAEC                       A:00 X:02 Y:00 P:2E SP:25 PPU: 81, 41 CYC:1345
FADA  4A        LSR A                           A:00 X:02 Y:00 P:2E SP:25 PPU: 81, 41 CYC:1347
FADB  B0 D8     BCS $FAB5                       A:00 X:02 Y:00 P:2E SP:25 PPU: 89, 41 CYC:1349
FADD  4A        LSR A                           A:00 X:02 Y:00 P:2E SP:25 PPU: 97, 41 CYC:1351
FADE  B0 29     BCS $FB09                       A:00 X:02 Y:00 P:2E SP:25 PPU:105, 41 CYC:1353
FAE0  46 FE     LSR $FE = 00                    A:00 X:02 Y:00 P:2E SP:25 PPU:105, 41 CYC:1355
FAE2  B0 15     BCS $FAF9                       A:00 X:02 Y:00 P:2E SP:25 PPU:121, 41 CYC:1360
FAE4  46 FE     LSR $FE = 00                    A:00 X:02 Y:00 P:2E SP:25 PPU:129, 41 CYC:1362
FAE6  B0 2F     BCS $FB17                       A:00 X:02 Y:00 P:2E SP:25 PPU:145, 41 CYC:1367
FAE8  4A        LSR A                           A:00 X:02 Y:00 P:2E SP:25 PPU:153, 41 CYC:1369
FAE9  B0 CA     BCS $FAB5                       A:00 X:02 Y:00 P:2E SP:25 PPU:153, 41 CYC:1371
FAEB  60        RTS                             A:00 X:02 Y:00 P:2E SP:25 PPU:161, 41 CYC:1373
F929  20 A1 FB  JSR $FBA1                       A:00 X:02 Y:00 P:2E SP:27 PPU:177, 41 CYC:1379
FBA1  A4 FC     LDY $FC = 00                    A:00 X:02 Y:00 P:2E SP:25 PPU:201, 41 CYC:1385
FBA3  A5 F2     LDA $F2 = 00                    A:00 X:02 Y:00 P:2E SP:25 PPU:209, 41 CYC:1388
FBA5  46 FC     LSR $FC = 00                    A:00 X:02 Y:00 P:2E SP:25 PPU:217, 41 CYC:1391
FBA7  B0 C8     BCS $FB71                       A:00 X:02 Y:00 P:2E SP:25 PPU:233, 41 CYC:1396
FBA9  4A        LSR A                           A:00 X:02 Y:00 P:2E SP:25 PPU:233, 41 CYC:1398
FBAA  B0 CC     BCS $FB78                       A:00 X:02 Y:00 P:2E SP:25 PPU:241, 41 CYC:1400
FBAC  46 FC     LSR $FC = 00                    A:00 X:02 Y:00 P:2E SP:25 PPU:249, 41 CYC:1402
FBAE  B0 0B     BCS $FBBB                       A:00 X:02 Y:00 P:2E SP:25 PPU:265, 41 CYC:1407
FBB0  4A        LSR A                           A:00 X:02 Y:00 P:2E SP:25 PPU:273, 41 CYC:1409
FBB1  B0 18     BCS $FBCB                       A:00 X:02 Y:00 P:2E SP:25 PPU:273, 41 CYC:1411
FBB3  46 FC     LSR $FC = 00                    A:00 X:02 Y:00 P:2E SP:25 PPU:281, 41 CYC:1413
FBB5  B0 24     BCS $FBDB                       A:00 X:02 Y:00 P:2E SP:25 PPU:297, 41 CYC:1418
FBB7  4A        LSR A                           A:00 X:02 Y:00 P:2E SP:25 PPU:305, 41 CYC:1420
FBB8  B0 31     BCS $FBEB                       A:00 X:02 Y:00 P:2E SP:25 PPU:305, 41 CYC:1422
FBBA  60        RTS                             A:00 X:02 Y:00 P:2E SP:25 PPU:313, 41 CYC:1424
F92C  20 FC FB  JSR $FBFC                       A:00 X:02 Y:00 P:2E SP:27 PPU:329, 41 CYC:1430
FBFC  A5 FB     LDA $FB = 00                    A:00 X:02 Y:00 P:2E SP:25 PPU:  9, 42 CYC:1436
FBFE  D0 05     BNE $FC05                       A:00 X:02 Y:00 P:2E SP:25 PPU: 17, 42 CYC:1439
FC00  A5 F3     LDA $F3 = 00                    A:00 X:02 Y:00 P:2E SP:25 PPU: 17, 42 CYC:1441
FC02  D0 4D     BNE $FC51                       A:00 X:02 Y:00 P:2E SP:25 PPU: 33, 42 CYC:1444
FC04  60        RTS                             A:00 X:02 Y:00 P:2E SP:25 PPU: 33, 42 CYC:1446
F92F  A9 00     LDA #$00                        A:00 X:02 Y:00 P:2E SP:27 PPU: 57, 42 CYC:1452
F931  85 FF     STA $FF = 00                    A:00 X:02 Y:00 P:2E SP:27 PPU: 57, 42 CYC:1454
F933  85 FE     STA $FE = 00                    A:00 X:02 Y:00 P:2E SP:27 PPU: 65, 42 CYC:1457
F935  85 FC     STA $FC = 00                    A:00 X:02 Y:00 P:2E SP:27 PPU: 81, 42 CYC:1460
F937  85 FB     STA $FB = 00                    A:00 X:02 Y:00 P:2E SP:27 PPU: 89, 42 CYC:1463
F939  AC 11 07  LDY $0711 = 00                  A:00 X:02 Y:00 P:2E SP:27 PPU: 97, 42 CYC:1466
F93C  A5 F3     LDA $F3 = 00                    A:00 X:02 Y:00 P:2E SP:27 PPU:105, 42 CYC:1470
F93E  29 0C     AND #$0C                        A:00 X:02 Y:00 P:2E SP:27 PPU:113, 42 CYC:1473
F940  F0 07     BEQ $F949                       A:00 X:02 Y:00 P:2E SP:27 PPU:121, 42 CYC:1475
F949  98        TYA                             A:00 X:02 Y:00 P:2E SP:27 PPU:129, 42 CYC:1478
F94A  F0 03     BEQ $F94F                       A:00 X:02 Y:00 P:2E SP:27 PPU:137, 42 CYC:1480
F94F  8C 11 40  STY $4011 = 00                  A:00 X:02 Y:00 P:2E SP:27 PPU:145, 42 CYC:1483
F952  60        RTS                             A:00 X:02 Y:00 P:2E SP:27 PPU:161, 42 CYC:1487
C0C9  A5 53     LDA $53 = 00                    A:00 X:02 Y:00 P:2E SP:29 PPU:177, 42 CYC:1493
C0CB  F0 06     BEQ $C0D3                       A:00 X:02 Y:00 P:2E SP:29 PPU:185, 42 CYC:1496
C0D3  A5 51     LDA $51 = 01                    A:00 X:02 Y:00 P:2E SP:29 PPU:193, 42 CYC:1499
C0D5  F0 4F     BEQ $C126                       A:01 X:02 Y:00 P:2C SP:29 PPU:201, 42 CYC:1502
C0D7  AE 4C 03  LDX $034C = 02                  A:01 X:02 Y:00 P:2C SP:29 PPU:209, 42 CYC:1504
C0DA  F0 3E     BEQ $C11A                       A:01 X:02 Y:00 P:2C SP:29 PPU:225, 42 CYC:1508
C0DC  CA        DEX                             A:01 X:02 Y:00 P:2C SP:29 PPU:225, 42 CYC:1510
C0DD  F0 24     BEQ $C103                       A:01 X:01 Y:00 P:2C SP:29 PPU:233, 42 CYC:1512
C0DF  CA        DEX                             A:01 X:01 Y:00 P:2C SP:29 PPU:241, 42 CYC:1514
C0E0  D0 1E     BNE $C100                       A:01 X:00 Y:00 P:2E SP:29 PPU:249, 42 CYC:1516
C0E2  A5 11     LDA $11 = 1F                    A:01 X:00 Y:00 P:2E SP:29 PPU:249, 42 CYC:1518
C0E4  29 EF     AND #$EF                        A:1F X:00 Y:00 P:2C SP:29 PPU:257, 42 CYC:1521
C0E6  8D 01 20  STA $2001 = 1F                  A:0F X:00 Y:00 P:2C SP:29 PPU:265, 42 CYC:1523
C0E9  85 11     STA $11 = 1F                    A:0F X:00 Y:00 P:2C SP:29 PPU:281, 42 CYC:1527
C0EB  A5 15     LDA $15 = 00                    A:0F X:00 Y:00 P:2C SP:29 PPU:289, 42 CYC:1530
C0ED  29 10     AND #$10                        A:00 X:00 Y:00 P:2E SP:29 PPU:297, 42 CYC:1533
C0EF  F0 47     BEQ $C138                       A:00 X:00 Y:00 P:2E SP:29 PPU:305, 42 CYC:1535
C138  20 41 C1  JSR $C141                       A:00 X:00 Y:00 P:2E SP:29 PPU:313, 42 CYC:1539
C141  AD 02 20  LDA $2002 = 0F                  A:00 X:00 Y:00 P:2E SP:27 PPU:329, 42 CYC:1545
C144  A5 10     LDA $10 = 11                    A:0F X:00 Y:00 P:2C SP:27 PPU:345, 42 CYC:1549
C146  09 80     ORA #$80                        A:11 X:00 Y:00 P:2C SP:27 PPU:  9, 43 CYC:1552
C148  85 10     STA $10 = 11                    A:91 X:00 Y:00 P:AC SP:27 PPU: 17, 43 CYC:1554
C14A  8D 00 20  STA $2000 = 11                  A:91 X:00 Y:00 P:AC SP:27 PPU: 25, 43 CYC:1557
C14D  60        RTS                             A:91 X:00 Y:00 P:AC SP:27 PPU: 33, 43 CYC:1561
C13B  68        PLA                             A:91 X:00 Y:00 P:AC SP:29 PPU: 57, 43 CYC:1567
C13C  A8        TAY                             A:10 X:00 Y:00 P:2C SP:2A PPU: 65, 43 CYC:1571
C13D  68        PLA                             A:10 X:00 Y:10 P:2C SP:2A PPU: 73, 43 CYC:1573
C13E  AA        TAX                             A:2D X:00 Y:10 P:2C SP:2B PPU: 81, 43 CYC:1577
C13F  68        PLA                             A:2D X:2D Y:10 P:2C SP:2B PPU: 89, 43 CYC:1579
C140  40        RTI                             A:00 X:2D Y:10 P:2E SP:2C PPU:105, 43 CYC:1583
00B4  01 03     ORA ($03,X) @ 30 = 0500 = FF    A:00 X:2D Y:10 P:2A SP:2F PPU:121, 43 CYC:1589
00B6  00        BRK                             A:FF X:2D Y:10 P:A8 SP:2F PPU:137, 43 CYC:1595
C076  48        PHA                             A:FF X:2D Y:10 P:AC SP:2C PPU:161, 43 CYC:1602
C077  8A        TXA                             A:FF X:2D Y:10 P:AC SP:2B PPU:169, 43 CYC:1605
C078  48        PHA                             A:2D X:2D Y:10 P:2C SP:2B PPU:177, 43 CYC:1607
C079  98        TYA                             A:2D X:2D Y:10 P:2C SP:2A PPU:185, 43 CYC:1610
C07A  48        PHA                             A:10 X:2D Y:10 P:2C SP:2A PPU:185, 43 CYC:1612
C07B  A5 10     LDA $10 = 91                    A:10 X:2D Y:10 P:2C SP:29 PPU:201, 43 CYC:1615
C07D  A6 DE     LDX $DE = 00                    A:91 X:2D Y:10 P:AC SP:29 PPU:209, 43 CYC:1618
C07F  F0 02     BEQ $C083                       A:91 X:00 Y:10 P:2E SP:29 PPU:217, 43 CYC:1621
C083  29 7F     AND #$7F                        A:91 X:00 Y:10 P:2E SP:29 PPU:225, 43 CYC:1624
C085  20 48 C1  JSR $C148                       A:11 X:00 Y:10 P:2C SP:29 PPU:233, 43 CYC:1626
C148  85 10     STA $10 = 91                    A:11 X:00 Y:10 P:2C SP:27 PPU:249, 43 CYC:1632
C14A  8D 00 20  STA $2000 = 91                  A:11 X:00 Y:10 P:2C SP:27 PPU:257, 43 CYC:1635
C14D  60        RTS                             A:11 X:00 Y:10 P:2C SP:27 PPU:273, 43 CYC:1639
C088  A5 52     LDA $52 = 00                    A:11 X:00 Y:10 P:2C SP:29 PPU:289, 43 CYC:1645
C08A  D0 09     BNE $C095                       A:00 X:00 Y:10 P:2E SP:29 PPU:297, 43 CYC:1648
C08C  A5 11     LDA $11 = 0F                    A:00 X:00 Y:10 P:2E SP:29 PPU:305, 43 CYC:1650
C08E  09 1E     ORA #$1E                        A:0F X:00 Y:10 P:2C SP:29 PPU:313, 43 CYC:1653
C090  8D 01 20  STA $2001 = 0F                  A:1F X:00 Y:10 P:2C SP:29 PPU:321, 43 CYC:1655
C093  85 11     STA $11 = 0F                    A:1F X:00 Y:10 P:2C SP:29 PPU:326, 43 CYC:1659
C095  A9 00     LDA #$00                        A:1F X:00 Y:10 P:2C SP:29 PPU:335, 43 CYC:1662
C097  8D 03 20  STA $2003 = 00                  A:00 X:00 Y:10 P:2E SP:29 PPU:345, 43 CYC:1664
C09A  A9 02     LDA #$02                        A:00 X:00 Y:10 P:2E SP:29 PPU:  9, 44 CYC:1668
C09C  8D 14 40  STA $4014 = 00                  A:02 X:00 Y:10 P:2C SP:29 PPU: 17, 44 CYC:1670
C09F  A6 52     LDX $52 = 00                    A:02 X:00 Y:10 P:2C SP:29 PPU:185, 48 CYC:2187
C0A1  20 50 C1  JSR $C150                       A:02 X:00 Y:10 P:2E SP:29 PPU:201, 48 CYC:2190
C150  BD 00 C0  LDA $C000,X @ C000 = 01         A:02 X:00 Y:10 P:2E SP:27 PPU:217, 48 CYC:2196
C153  85 00     STA $00 = 00                    A:01 X:00 Y:10 P:2C SP:27 PPU:225, 48 CYC:2200
C155  BD 0A C0  LDA $C00A,X @ C00A = 03         A:01 X:00 Y:10 P:2C SP:27 PPU:233, 48 CYC:2203
C158  85 01     STA $01 = 7F                    A:03 X:00 Y:10 P:2C SP:27 PPU:249, 48 CYC:2207
C15A  20 78 CB  JSR $CB78                       A:03 X:00 Y:10 P:2C SP:27 PPU:257, 48 CYC:2210
CB78  AE 02 20  LDX $2002 = 00                  A:03 X:00 Y:10 P:2C SP:25 PPU:273, 48 CYC:2216
CB7B  A0 00     LDY #$00                        A:03 X:00 Y:10 P:2E SP:25 PPU:289, 48 CYC:2220
CB7D  B1 00     LDA ($00),Y = 0301 @ 0301 = 00  A:03 X:00 Y:00 P:2E SP:25 PPU:297, 48 CYC:2222
CB7F  D0 BD     BNE $CB3E                       A:00 X:00 Y:00 P:2E SP:25 PPU:305, 48 CYC:2227
CB81  A5 12     LDA $12 = 01                    A:00 X:00 Y:00 P:2E SP:25 PPU:313, 48 CYC:2229
CB83  8D 05 20  STA $2005 = 9F                  A:01 X:00 Y:00 P:2C SP:25 PPU:321, 48 CYC:2232
CB86  A5 13     LDA $13 = 9F                    A:01 X:00 Y:00 P:2C SP:25 PPU:332, 48 CYC:2236
CB88  8D 05 20  STA $2005 = 01                  A:9F X:00 Y:00 P:AC SP:25 PPU:345, 48 CYC:2239
CB8B  60        RTS                             A:9F X:00 Y:00 P:AC SP:25 PPU:  9, 49 CYC:2243
C15D  A9 00     LDA #$00                        A:9F X:00 Y:00 P:AC SP:27 PPU: 33, 49 CYC:2249
C15F  8D 00 03  STA $0300 = 00                  A:00 X:00 Y:00 P:2E SP:27 PPU: 33, 49 CYC:2251
C162  8D 01 03  STA $0301 = 00                  A:00 X:00 Y:00 P:2E SP:27 PPU: 49, 49 CYC:2255
C165  60        RTS                             A:00 X:00 Y:00 P:2E SP:27 PPU: 57, 49 CYC:2259
C0A4  85 52     STA $52 = 00                    A:00 X:00 Y:00 P:2E SP:29 PPU: 81, 49 CYC:2265
C0A6  85 DE     STA $DE = 00                    A:00 X:00 Y:00 P:2E SP:29 PPU: 89, 49 CYC:2268
C0A8  A9 3F     LDA #$3F                        A:00 X:00 Y:00 P:2E SP:29 PPU: 97, 49 CYC:2271
C0AA  8D 06 20  STA $2006 = 00                  A:3F X:00 Y:00 P:2C SP:29 PPU:105, 49 CYC:2273
C0AD  A9 00     LDA #$00                        A:3F X:00 Y:00 P:2C SP:29 PPU:113, 49 CYC:2277
C0AF  8D 06 20  STA $2006 = 3F                  A:00 X:00 Y:00 P:2E SP:29 PPU:121, 49 CYC:2279
C0B2  8D 06 20  STA $2006 = 00                  A:00 X:00 Y:00 P:2E SP:29 PPU:129, 49 CYC:2283
C0B5  8D 06 20  STA $2006 = 00                  A:00 X:00 Y:00 P:2E SP:29 PPU:145, 49 CYC:2287
C0B8  AD 02 20  LDA $2002 = 00                  A:00 X:00 Y:00 P:2E SP:29 PPU:153, 49 CYC:2291
C0BB  20 81 CB  JSR $CB81                       A:00 X:00 Y:00 P:2E SP:29 PPU:169, 49 CYC:2295
CB81  A5 12     LDA $12 = 01                    A:00 X:00 Y:00 P:2E SP:27 PPU:185, 49 CYC:2301
CB83  8D 05 20  STA $2005 = 9F                  A:01 X:00 Y:00 P:2C SP:27 PPU:193, 49 CYC:2304
CB86  A5 13     LDA $13 = 9F                    A:01 X:00 Y:00 P:2C SP:27 PPU:209, 49 CYC:2308
CB88  8D 05 20  STA $2005 = 01                  A:9F X:00 Y:00 P:AC SP:27 PPU:217, 49 CYC:2311
CB8B  60        RTS                             A:9F X:00 Y:00 P:AC SP:27 PPU:225, 49 CYC:2315
C0BE  A5 10     LDA $10 = 11                    A:9F X:00 Y:00 P:AC SP:29 PPU:249, 49 CYC:2321
C0C0  8D 00 20  STA $2000 = 11                  A:11 X:00 Y:00 P:2C SP:29 PPU:257, 49 CYC:2324
C0C3  20 ED CA  JSR $CAED                       A:11 X:00 Y:00 P:2C SP:29 PPU:265, 49 CYC:2328
CAED  20 35 CB  JSR $CB35                       A:11 X:00 Y:00 P:2C SP:27 PPU:281, 49 CYC:2334
CB35  A9 7F     LDA #$7F                        A:11 X:00 Y:00 P:2C SP:25 PPU:305, 49 CYC:2340
CB37  85 01     STA $01 = 03                    A:7F X:00 Y:00 P:2C SP:25 PPU:305, 49 CYC:2342
CB39  A9 80     LDA #$80                        A:7F X:00 Y:00 P:2C SP:25 PPU:321, 49 CYC:2345
CB3B  85 02     STA $02 = 80                    A:80 X:00 Y:00 P:AC SP:25 PPU:321, 49 CYC:2347
CB3D  60        RTS                             A:80 X:00 Y:00 P:AC SP:25 PPU:329, 49 CYC:2350
CAF0  A9 01     LDA #$01                        A:80 X:00 Y:00 P:AC SP:27 PPU:  9, 50 CYC:2356
CAF2  8D 16 40  STA $4016 = 00                  A:01 X:00 Y:00 P:2C SP:27 PPU:  9, 50 CYC:2358
CAF5  A2 00     LDX #$00                        A:01 X:00 Y:00 P:2C SP:27 PPU: 25, 50 CYC:2362
CAF7  A9 00     LDA #$00                        A:01 X:00 Y:00 P:2E SP:27 PPU: 33, 50 CYC:2364
CAF9  8D 16 40  STA $4016 = 00                  A:00 X:00 Y:00 P:2E SP:27 PPU: 33, 50 CYC:2366
CAFC  20 00 CB  JSR $CB00                       A:00 X:00 Y:00 P:2E SP:27 PPU: 49, 50 CYC:2370
CB00  A0 08     LDY #$08                        A:00 X:00 Y:00 P:2E SP:25 PPU: 65, 50 CYC:2376
CB02  48        PHA                             A:00 X:00 Y:08 P:2C SP:25 PPU: 73, 50 CYC:2378
CB03  BD 16 40  LDA $4016,X @ 4016 = 00         A:00 X:00 Y:08 P:2C SP:24 PPU: 81, 50 CYC:2381
CB06  85 00     STA $00 = 01                    A:00 X:00 Y:08 P:2E SP:24 PPU: 89, 50 CYC:2385
CB08  4A        LSR A                           A:00 X:00 Y:08 P:2E SP:24 PPU:105, 50 CYC:2388
CB09  05 00     ORA $00 = 00                    A:00 X:00 Y:08 P:2E SP:24 PPU:105, 50 CYC:2390
CB0B  4A        LSR A                           A:00 X:00 Y:08 P:2E SP:24 PPU:113, 50 CYC:2393
CB0C  68        PLA                             A:00 X:00 Y:08 P:2E SP:24 PPU:121, 50 CYC:2395
CB0D  2A        ROL A                           A:00 X:00 Y:08 P:2E SP:25 PPU:137, 50 CYC:2399
CB0E  88        DEY                             A:00 X:00 Y:08 P:2E SP:25 PPU:137, 50 CYC:2401
CB0F  D0 F1     BNE $CB02                       A:00 X:00 Y:07 P:2C SP:25 PPU:145, 50 CYC:2403
CB02  48        PHA                             A:00 X:00 Y:07 P:2C SP:25 PPU:153, 50 CYC:2406
CB03  BD 16 40  LDA $4016,X @ 4016 = 00         A:00 X:00 Y:07 P:2C SP:24 PPU:161, 50 CYC:2409
CB06  85 00     STA $00 = 00                    A:00 X:00 Y:07 P:2E SP:24 PPU:177, 50 CYC:2413
CB08  4A        LSR A                           A:00 X:00 Y:07 P:2E SP:24 PPU:185, 50 CYC:2416
CB09  05 00     ORA $00 = 00                    A:00 X:00 Y:07 P:2E SP:24 PPU:193, 50 CYC:2418
CB0B  4A        LSR A                           A:00 X:00 Y:07 P:2E SP:24 PPU:201, 50 CYC:2421
CB0C  68        PLA                             A:00 X:00 Y:07 P:2E SP:24 PPU:209, 50 CYC:2423
CB0D  2A        ROL A                           A:00 X:00 Y:07 P:2E SP:25 PPU:217, 50 CYC:2427
CB0E  88        DEY                             A:00 X:00 Y:07 P:2E SP:25 PPU:225, 50 CYC:2429
CB0F  D0 F1     BNE $CB02                       A:00 X:00 Y:06 P:2C SP:25 PPU:233, 50 CYC:2431
CB02  48        PHA                             A:00 X:00 Y:06 P:2C SP:25 PPU:241, 50 CYC:2434
CB03  BD 16 40  LDA $4016,X @ 4016 = 00         A:00 X:00 Y:06 P:2C SP:24 PPU:249, 50 CYC:2437
CB06  85 00     STA $00 = 00                    A:00 X:00 Y:06 P:2E SP:24 PPU:257, 50 CYC:2441
CB08  4A        LSR A                           A:00 X:00 Y:06 P:2E SP:24 PPU:273, 50 CYC:2444
CB09  05 00     ORA $00 = 00                    A:00 X:00 Y:06 P:2E SP:24 PPU:273, 50 CYC:2446
CB0B  4A        LSR A                           A:00 X:00 Y:06 P:2E SP:24 PPU:281, 50 CYC:2449
CB0C  68        PLA                             A:00 X:00 Y:06 P:2E SP:24 PPU:289, 50 CYC:2451
CB0D  2A        ROL A                           A:00 X:00 Y:06 P:2E SP:25 PPU:305, 50 CYC:2455
CB0E  88        DEY                             A:00 X:00 Y:06 P:2E SP:25 PPU:305, 50 CYC:2457
CB0F  D0 F1     BNE $CB02                       A:00 X:00 Y:05 P:2C SP:25 PPU:313, 50 CYC:2459
CB02  48        PHA                             A:00 X:00 Y:05 P:2C SP:25 PPU:321, 50 CYC:2462
CB03  BD 16 40  LDA $4016,X @ 4016 = 00         A:00 X:00 Y:05 P:2C SP:24 PPU:329, 50 CYC:2465
CB06  85 00     STA $00 = 00                    A:00 X:00 Y:05 P:2E SP:24 PPU:345, 50 CYC:2469
CB08  4A        LSR A                           A:00 X:00 Y:05 P:2E SP:24 PPU:  9, 51 CYC:2472
CB09  05 00     ORA $00 = 00                    A:00 X:00 Y:05 P:2E SP:24 PPU: 17, 51 CYC:2474
CB0B  4A        LSR A                           A:00 X:00 Y:05 P:2E SP:24 PPU: 25, 51 CYC:2477
CB0C  68        PLA                             A:00 X:00 Y:05 P:2E SP:24 PPU: 33, 51 CYC:2479
CB0D  2A        ROL A                           A:00 X:00 Y:05 P:2E SP:25 PPU: 41, 51 CYC:2483
CB0E  88        DEY                             A:00 X:00 Y:05 P:2E SP:25 PPU: 49, 51 CYC:2485
CB0F  D0 F1     BNE $CB02                       A:00 X:00 Y:04 P:2C SP:25 PPU: 57, 51 CYC:2487
CB02  48        PHA                             A:00 X:00 Y:04 P:2C SP:25 PPU: 65, 51 CYC:2490
CB03  BD 16 40  LDA $4016,X @ 4016 = 00         A:00 X:00 Y:04 P:2C SP:24 PPU: 73, 51 CYC:2493
CB06  85 00     STA $00 = 00                    A:00 X:00 Y:04 P:2E SP:24 PPU: 81, 51 CYC:2497
CB08  4A        LSR A                           A:00 X:00 Y:04 P:2E SP:24 PPU: 89, 51 CYC:2500
CB09  05 00     ORA $00 = 00                    A:00 X:00 Y:04 P:2E SP:24 PPU: 97, 51 CYC:2502
CB0B  4A        LSR A                           A:00 X:00 Y:04 P:2E SP:24 PPU:105, 51 CYC:2505
CB0C  68        PLA                             A:00 X:00 Y:04 P:2E SP:24 PPU:113, 51 CYC:2507
CB0D  2A        ROL A                           A:00 X:00 Y:04 P:2E SP:25 PPU:129, 51 CYC:2511
CB0E  88        DEY                             A:00 X:00 Y:04 P:2E SP:25 PPU:129, 51 CYC:2513
CB0F  D0 F1     BNE $CB02                       A:00 X:00 Y:03 P:2C SP:25 PPU:137, 51 CYC:2515
CB02  48        PHA                             A:00 X:00 Y:03 P:2C SP:25 PPU:145, 51 CYC:2518
CB03  BD 16 40  LDA $4016,X @ 4016 = 00         A:00 X:00 Y:03 P:2C SP:24 PPU:153, 51 CYC:2521
CB06  85 00     STA $00 = 00                    A:00 X:00 Y:03 P:2E SP:24 PPU:169, 51 CYC:2525
CB08  4A        LSR A                           A:00 X:00 Y:03 P:2E SP:24 PPU:177, 51 CYC:2528
CB09  05 00     ORA $00 = 00                    A:00 X:00 Y:03 P:2E SP:24 PPU:185, 51 CYC:2530
CB0B  4A        LSR A                           A:00 X:00 Y:03 P:2E SP:24 PPU:193, 51 CYC:2533
CB0C  68        PLA                             A:00 X:00 Y:03 P:2E SP:24 PPU:201, 51 CYC:2535
CB0D  2A        ROL A                           A:00 X:00 Y:03 P:2E SP:25 PPU:209, 51 CYC:2539
CB0E  88        DEY                             A:00 X:00 Y:03 P:2E SP:25 PPU:217, 51 CYC:2541
CB0F  D0 F1     BNE $CB02                       A:00 X:00 Y:02 P:2C SP:25 PPU:225, 51 CYC:2543
CB02  48        PHA                             A:00 X:00 Y:02 P:2C SP:25 PPU:233, 51 CYC:2546
CB03  BD 16 40  LDA $4016,X @ 4016 = 00         A:00 X:00 Y:02 P:2C SP:24 PPU:241, 51 CYC:2549
CB06  85 00     STA $00 = 00                    A:00 X:00 Y:02 P:2E SP:24 PPU:249, 51 CYC:2553
CB08  4A        LSR A                           A:00 X:00 Y:02 P:2E SP:24 PPU:257, 51 CYC:2556
CB09  05 00     ORA $00 = 00                    A:00 X:00 Y:02 P:2E SP:24 PPU:265, 51 CYC:2558
CB0B  4A        LSR A                           A:00 X:00 Y:02 P:2E SP:24 PPU:273, 51 CYC:2561
CB0C  68        PLA                             A:00 X:00 Y:02 P:2E SP:24 PPU:281, 51 CYC:2563
CB0D  2A        ROL A                           A:00 X:00 Y:02 P:2E SP:25 PPU:297, 51 CYC:2567
CB0E  88        DEY                             A:00 X:00 Y:02 P:2E SP:25 PPU:297, 51 CYC:2569
CB0F  D0 F1     BNE $CB02                       A:00 X:00 Y:01 P:2C SP:25 PPU:305, 51 CYC:2571
CB02  48        PHA                             A:00 X:00 Y:01 P:2C SP:25 PPU:313, 51 CYC:2574
CB03  BD 16 40  LDA $4016,X @ 4016 = 00         A:00 X:00 Y:01 P:2C SP:24 PPU:321, 51 CYC:2577
CB06  85 00     STA $00 = 00                    A:00 X:00 Y:01 P:2E SP:24 PPU:332, 51 CYC:2581
CB08  4A        LSR A                           A:00 X:00 Y:01 P:2E SP:24 PPU:345, 51 CYC:2584
CB09  05 00     ORA $00 = 00                    A:00 X:00 Y:01 P:2E SP:24 PPU:  9, 52 CYC:2586
CB0B  4A        LSR A                           A:00 X:00 Y:01 P:2E SP:24 PPU: 17, 52 CYC:2589
CB0C  68        PLA                             A:00 X:00 Y:01 P:2E SP:24 PPU: 17, 52 CYC:2591
CB0D  2A        ROL A                           A:00 X:00 Y:01 P:2E SP:25 PPU: 33, 52 CYC:2595
CB0E  88        DEY                             A:00 X:00 Y:01 P:2E SP:25 PPU: 41, 52 CYC:2597
CB0F  D0 F1     BNE $CB02                       A:00 X:00 Y:00 P:2E SP:25 PPU: 41, 52 CYC:2599
CB11  86 00     STX $00 = 00                    A:00 X:00 Y:00 P:2E SP:25 PPU: 49, 52 CYC:2601
CB13  06 00     ASL $00 = 00                    A:00 X:00 Y:00 P:2E SP:25 PPU: 57, 52 CYC:2604
CB15  A6 00     LDX $00 = 00                    A:00 X:00 Y:00 P:2E SP:25 PPU: 73, 52 CYC:2609
CB17  B4 14     LDY $14,X @ 14 = 00             A:00 X:00 Y:00 P:2E SP:25 PPU: 81, 52 CYC:2612
CB19  84 00     STY $00 = 00                    A:00 X:00 Y:00 P:2E SP:25 PPU: 97, 52 CYC:2616
CB1B  95 14     STA $14,X @ 14 = 00             A:00 X:00 Y:00 P:2E SP:25 PPU:105, 52 CYC:2619
CB1D  95 15     STA $15,X @ 15 = 00             A:00 X:00 Y:00 P:2E SP:25 PPU:113, 52 CYC:2623
CB1F  A0 04     LDY #$04                        A:00 X:00 Y:00 P:2E SP:25 PPU:129, 52 CYC:2627
CB21  A5 02     LDA $02 = 80                    A:00 X:00 Y:04 P:2C SP:25 PPU:137, 52 CYC:2629
CB23  24 00     BIT $00 = 00                    A:80 X:00 Y:04 P:AC SP:25 PPU:145, 52 CYC:2632
CB25  F0 06     BEQ $CB2D                       A:80 X:00 Y:04 P:2E SP:25 PPU:153, 52 CYC:2635
CB2D  38        SEC                             A:80 X:00 Y:04 P:2E SP:25 PPU:161, 52 CYC:2638
CB2E  66 01     ROR $01 = 7F                    A:80 X:00 Y:04 P:2F SP:25 PPU:169, 52 CYC:2640
CB30  46 02     LSR $02 = 80                    A:80 X:00 Y:04 P:AD SP:25 PPU:185, 52 CYC:2645
CB32  88        DEY                             A:80 X:00 Y:04 P:2C SP:25 PPU:201, 52 CYC:2650
CB33  D0 EC     BNE $CB21                       A:80 X:00 Y:03 P:2C SP:25 PPU:201, 52 CYC:2652
CB21  A5 02     LDA $02 = 40                    A:80 X:00 Y:03 P:2C SP:25 PPU:209, 52 CYC:2655
CB23  24 00     BIT $00 = 00                    A:40 X:00 Y:03 P:2C SP:25 PPU:225, 52 CYC:2658
CB25  F0 06     BEQ $CB2D                       A:40 X:00 Y:03 P:2E SP:25 PPU:233, 52 CYC:2661
CB2D  38        SEC                             A:40 X:00 Y:03 P:2E SP:25 PPU:241, 52 CYC:2664
CB2E  66 01     ROR $01 = BF                    A:40 X:00 Y:03 P:2F SP:25 PPU:249, 52 CYC:2666
CB30  46 02     LSR $02 = 40                    A:40 X:00 Y:03 P:AD SP:25 PPU:257, 52 CYC:2671
CB32  88        DEY                             A:40 X:00 Y:03 P:2C SP:25 PPU:273, 52 CYC:2676
CB33  D0 EC     BNE $CB21                       A:40 X:00 Y:02 P:2C SP:25 PPU:281, 52 CYC:2678
CB21  A5 02     LDA $02 = 20                    A:40 X:00 Y:02 P:2C SP:25 PPU:289, 52 CYC:2681
CB23  24 00     BIT $00 = 00                    A:20 X:00 Y:02 P:2C SP:25 PPU:297, 52 CYC:2684
CB25  F0 06     BEQ $CB2D                       A:20 X:00 Y:02 P:2E SP:25 PPU:305, 52 CYC:2687
CB2D  38        SEC                             A:20 X:00 Y:02 P:2E SP:25 PPU:321, 52 CYC:2690
CB2E  66 01     ROR $01 = DF                    A:20 X:00 Y:02 P:2F SP:25 PPU:321, 52 CYC:2692
CB30  46 02     LSR $02 = 20                    A:20 X:00 Y:02 P:AD SP:25 PPU:335, 52 CYC:2697
CB32  88        DEY                             A:20 X:00 Y:02 P:2C SP:25 PPU:  9, 53 CYC:2702
CB33  D0 EC     BNE $CB21                       A:20 X:00 Y:01 P:2C SP:25 PPU: 17, 53 CYC:2704
CB21  A5 02     LDA $02 = 10                    A:20 X:00 Y:01 P:2C SP:25 PPU: 25, 53 CYC:2707
CB23  24 00     BIT $00 = 00                    A:10 X:00 Y:01 P:2C SP:25 PPU: 33, 53 CYC:2710
CB25  F0 06     BEQ $CB2D                       A:10 X:00 Y:01 P:2E SP:25 PPU: 41, 53 CYC:2713
CB2D  38        SEC                             A:10 X:00 Y:01 P:2E SP:25 PPU: 49, 53 CYC:2716
CB2E  66 01     ROR $01 = EF                    A:10 X:00 Y:01 P:2F SP:25 PPU: 57, 53 CYC:2718
CB30  46 02     LSR $02 = 10                    A:10 X:00 Y:01 P:AD SP:25 PPU: 73, 53 CYC:2723
CB32  88        DEY                             A:10 X:00 Y:01 P:2C SP:25 PPU: 89, 53 CYC:2728
CB33  D0 EC     BNE $CB21                       A:10 X:00 Y:00 P:2E SP:25 PPU: 89, 53 CYC:2730
CB35  A9 7F     LDA #$7F                        A:10 X:00 Y:00 P:2E SP:25 PPU: 97, 53 CYC:2732
CB37  85 01     STA $01 = F7                    A:7F X:00 Y:00 P:2C SP:25 PPU:105, 53 CYC:2734
CB39  A9 80     LDA #$80                        A:7F X:00 Y:00 P:2C SP:25 PPU:113, 53 CYC:2737
CB3B  85 02     STA $02 = 08                    A:80 X:00 Y:00 P:AC SP:25 PPU:121, 53 CYC:2739
CB3D  60        RTS                             A:80 X:00 Y:00 P:AC SP:25 PPU:129, 53 CYC:2742
CAFF  E8        INX                             A:80 X:00 Y:00 P:AC SP:27 PPU:145, 53 CYC:2748
CB00  A0 08     LDY #$08                        A:80 X:01 Y:00 P:2C SP:27 PPU:153, 53 CYC:2750
CB02  48        PHA                             A:80 X:01 Y:08 P:2C SP:27 PPU:161, 53 CYC:2752
CB03  BD 16 40  LDA $4016,X @ 4017 = 00         A:80 X:01 Y:08 P:2C SP:26 PPU:169, 53 CYC:2755
CB06  85 00     STA $00 = 00                    A:00 X:01 Y:08 P:2E SP:26 PPU:177, 53 CYC:2759
CB08  4A        LSR A                           A:00 X:01 Y:08 P:2E SP:26 PPU:185, 53 CYC:2762
CB09  05 00     ORA $00 = 00                    A:00 X:01 Y:08 P:2E SP:26 PPU:193, 53 CYC:2764
CB0B  4A        LSR A                           A:00 X:01 Y:08 P:2E SP:26 PPU:201, 53 CYC:2767
CB0C  68        PLA                             A:00 X:01 Y:08 P:2E SP:26 PPU:209, 53 CYC:2769
CB0D  2A        ROL A                           A:80 X:01 Y:08 P:AC SP:27 PPU:225, 53 CYC:2773
CB0E  88        DEY                             A:00 X:01 Y:08 P:2F SP:27 PPU:225, 53 CYC:2775
CB0F  D0 F1     BNE $CB02                       A:00 X:01 Y:07 P:2D SP:27 PPU:233, 53 CYC:2777
CB02  48        PHA                             A:00 X:01 Y:07 P:2D SP:27 PPU:241, 53 CYC:2780
CB03  BD 16 40  LDA $4016,X @ 4017 = 00         A:00 X:01 Y:07 P:2D SP:26 PPU:249, 53 CYC:2783
CB06  85 00     STA $00 = 00                    A:00 X:01 Y:07 P:2F SP:26 PPU:265, 53 CYC:2787
CB08  4A        LSR A                           A:00 X:01 Y:07 P:2F SP:26 PPU:273, 53 CYC:2790
CB09  05 00     ORA $00 = 00                    A:00 X:01 Y:07 P:2E SP:26 PPU:281, 53 CYC:2792
CB0B  4A        LSR A                           A:00 X:01 Y:07 P:2E SP:26 PPU:289, 53 CYC:2795
CB0C  68        PLA                             A:00 X:01 Y:07 P:2E SP:26 PPU:297, 53 CYC:2797
CB0D  2A        ROL A                           A:00 X:01 Y:07 P:2E SP:27 PPU:305, 53 CYC:2801
CB0E  88        DEY                             A:00 X:01 Y:07 P:2E SP:27 PPU:313, 53 CYC:2803
CB0F  D0 F1     BNE $CB02                       A:00 X:01 Y:06 P:2C SP:27 PPU:321, 53 CYC:2805
CB02  48        PHA                             A:00 X:01 Y:06 P:2C SP:27 PPU:323, 53 CYC:2808
CB03  BD 16 40  LDA $4016,X @ 4017 = 00         A:00 X:01 Y:06 P:2C SP:26 PPU:332, 53 CYC:2811
CB06  85 00     STA $00 = 00                    A:00 X:01 Y:06 P:2E SP:26 PPU:345, 53 CYC:2815
CB08  4A        LSR A                           A:00 X:01 Y:06 P:2E SP:26 PPU:  9, 54 CYC:2818
CB09  05 00     ORA $00 = 00                    A:00 X:01 Y:06 P:2E SP:26 PPU: 17, 54 CYC:2820
CB0B  4A        LSR A                           A:00 X:01 Y:06 P:2E SP:26 PPU: 25, 54 CYC:2823
CB0C  68        PLA                             A:00 X:01 Y:06 P:2E SP:26 PPU: 33, 54 CYC:2825
CB0D  2A        ROL A                           A:00 X:01 Y:06 P:2E SP:27 PPU: 41, 54 CYC:2829
CB0E  88        DEY                             A:00 X:01 Y:06 P:2E SP:27 PPU: 49, 54 CYC:2831
CB0F  D0 F1     BNE $CB02                       A:00 X:01 Y:05 P:2C SP:27 PPU: 57, 54 CYC:2833
CB02  48        PHA                             A:00 X:01 Y:05 P:2C SP:27 PPU: 65, 54 CYC:2836
CB03  BD 16 40  LDA $4016,X @ 4017 = 00         A:00 X:01 Y:05 P:2C SP:26 PPU: 73, 54 CYC:2839
CB06  85 00     STA $00 = 00                    A:00 X:01 Y:05 P:2E SP:26 PPU: 89, 54 CYC:2843
CB08  4A        LSR A                           A:00 X:01 Y:05 P:2E SP:26 PPU: 97, 54 CYC:2846
CB09  05 00     ORA $00 = 00                    A:00 X:01 Y:05 P:2E SP:26 PPU:105, 54 CYC:2848
CB0B  4A        LSR A                           A:00 X:01 Y:05 P:2E SP:26 PPU:113, 54 CYC:2851
CB0C  68        PLA                             A:00 X:01 Y:05 P:2E SP:26 PPU:113, 54 CYC:2853
CB0D  2A        ROL A                           A:00 X:01 Y:05 P:2E SP:27 PPU:129, 54 CYC:2857
CB0E  88        DEY                             A:00 X:01 Y:05 P:2E SP:27 PPU:137, 54 CYC:2859
CB0F  D0 F1     BNE $CB02                       A:00 X:01 Y:04 P:2C SP:27 PPU:137, 54 CYC:2861
CB02  48        PHA                             A:00 X:01 Y:04 P:2C SP:27 PPU:153, 54 CYC:2864
CB03  BD 16 40  LDA $4016,X @ 4017 = 00         A:00 X:01 Y:04 P:2C SP:26 PPU:161, 54 CYC:2867
CB06  85 00     STA $00 = 00                    A:00 X:01 Y:04 P:2E SP:26 PPU:169, 54 CYC:2871
CB08  4A        LSR A                           A:00 X:01 Y:04 P:2E SP:26 PPU:177, 54 CYC:2874
CB09  05 00     ORA $00 = 00                    A:00 X:01 Y:04 P:2E SP:26 PPU:185, 54 CYC:2876
CB0B  4A        LSR A                           A:00 X:01 Y:04 P:2E SP:26 PPU:193, 54 CYC:2879
CB0C  68        PLA                             A:00 X:01 Y:04 P:2E SP:26 PPU:201, 54 CYC:2881
CB0D  2A        ROL A                           A:00 X:01 Y:04 P:2E SP:27 PPU:209, 54 CYC:2885
CB0E  88        DEY                             A:00 X:01 Y:04 P:2E SP:27 PPU:217, 54 CYC:2887
CB0F  D0 F1     BNE $CB02                       A:00 X:01 Y:03 P:2C SP:27 PPU:225, 54 CYC:2889
CB02  48        PHA                             A:00 X:01 Y:03 P:2C SP:27 PPU:233, 54 CYC:2892
CB03  BD 16 40  LDA $4016,X @ 4017 = 00         A:00 X:01 Y:03 P:2C SP:26 PPU:241, 54 CYC:2895
CB06  85 00     STA $00 = 00                    A:00 X:01 Y:03 P:2E SP:26 PPU:257, 54 CYC:2899
CB08  4A        LSR A                           A:00 X:01 Y:03 P:2E SP:26 PPU:265, 54 CYC:2902
CB09  05 00     ORA $00 = 00                    A:00 X:01 Y:03 P:2E SP:26 PPU:273, 54 CYC:2904
CB0B  4A        LSR A                           A:00 X:01 Y:03 P:2E SP:26 PPU:281, 54 CYC:2907
CB0C  68        PLA                             A:00 X:01 Y:03 P:2E SP:26 PPU:281, 54 CYC:2909
CB0D  2A        ROL A                           A:00 X:01 Y:03 P:2E SP:27 PPU:297, 54 CYC:2913
CB0E  88        DEY                             A:00 X:01 Y:03 P:2E SP:27 PPU:305, 54 CYC:2915
CB0F  D0 F1     BNE $CB02                       A:00 X:01 Y:02 P:2C SP:27 PPU:305, 54 CYC:2917
CB02  48        PHA                             A:00 X:01 Y:02 P:2C SP:27 PPU:321, 54 CYC:2920
CB03  BD 16 40  LDA $4016,X @ 4017 = 00         A:00 X:01 Y:02 P:2C SP:26 PPU:323, 54 CYC:2923
CB06  85 00     STA $00 = 00                    A:00 X:01 Y:02 P:2E SP:26 PPU:335, 54 CYC:2927
CB08  4A        LSR A                           A:00 X:01 Y:02 P:2E SP:26 PPU:345, 54 CYC:2930
CB09  05 00     ORA $00 = 00                    A:00 X:01 Y:02 P:2E SP:26 PPU:  9, 55 CYC:2932
CB0B  4A        LSR A                           A:00 X:01 Y:02 P:2E SP:26 PPU: 17, 55 CYC:2935
CB0C  68        PLA                             A:00 X:01 Y:02 P:2E SP:26 PPU: 25, 55 CYC:2937
CB0D  2A        ROL A                           A:00 X:01 Y:02 P:2E SP:27 PPU: 33, 55 CYC:2941
CB0E  88        DEY                             A:00 X:01 Y:02 P:2E SP:27 PPU: 41, 55 CYC:2943
CB0F  D0 F1     BNE $CB02                       A:00 X:01 Y:01 P:2C SP:27 PPU: 49, 55 CYC:2945
CB02  48        PHA                             A:00 X:01 Y:01 P:2C SP:27 PPU: 57, 55 CYC:2948
CB03  BD 16 40  LDA $4016,X @ 4017 = 00         A:00 X:01 Y:01 P:2C SP:26 PPU: 65, 55 CYC:2951
CB06  85 00     STA $00 = 00                    A:00 X:01 Y:01 P:2E SP:26 PPU: 81, 55 CYC:2955
CB08  4A        LSR A                           A:00 X:01 Y:01 P:2E SP:26 PPU: 89, 55 CYC:2958
CB09  05 00     ORA $00 = 00                    A:00 X:01 Y:01 P:2E SP:26 PPU: 89, 55 CYC:2960
CB0B  4A        LSR A                           A:00 X:01 Y:01 P:2E SP:26 PPU:105, 55 CYC:2963
CB0C  68        PLA                             A:00 X:01 Y:01 P:2E SP:26 PPU:105, 55 CYC:2965
CB0D  2A        ROL A                           A:00 X:01 Y:01 P:2E SP:27 PPU:121, 55 CYC:2969
CB0E  88        DEY                             A:00 X:01 Y:01 P:2E SP:27 PPU:129, 55 CYC:2971
CB0F  D0 F1     BNE $CB02                       A:00 X:01 Y:00 P:2E SP:27 PPU:129, 55 CYC:2973
CB11  86 00     STX $00 = 00                    A:00 X:01 Y:00 P:2E SP:27 PPU:137, 55 CYC:2975
CB13  06 00     ASL $00 = 01                    A:00 X:01 Y:00 P:2E SP:27 PPU:145, 55 CYC:2978
CB15  A6 00     LDX $00 = 02                    A:00 X:01 Y:00 P:2C SP:27 PPU:161, 55 CYC:2983
CB17  B4 14     LDY $14,X @ 16 = 00             A:00 X:02 Y:00 P:2C SP:27 PPU:169, 55 CYC:2986
CB19  84 00     STY $00 = 02                    A:00 X:02 Y:00 P:2E SP:27 PPU:185, 55 CYC:2990
CB1B  95 14     STA $14,X @ 16 = 00             A:00 X:02 Y:00 P:2E SP:27 PPU:193, 55 CYC:2993
CB1D  95 15     STA $15,X @ 17 = 00             A:00 X:02 Y:00 P:2E SP:27 PPU:201, 55 CYC:2997
CB1F  A0 04     LDY #$04                        A:00 X:02 Y:00 P:2E SP:27 PPU:217, 55 CYC:3001
CB21  A5 02     LDA $02 = 80                    A:00 X:02 Y:04 P:2C SP:27 PPU:225, 55 CYC:3003
CB23  24 00     BIT $00 = 00                    A:80 X:02 Y:04 P:AC SP:27 PPU:233, 55 CYC:3006
CB25  F0 06     BEQ $CB2D                       A:80 X:02 Y:04 P:2E SP:27 PPU:241, 55 CYC:3009
CB2D  38        SEC                             A:80 X:02 Y:04 P:2E SP:27 PPU:249, 55 CYC:3012
CB2E  66 01     ROR $01 = 7F                    A:80 X:02 Y:04 P:2F SP:27 PPU:257, 55 CYC:3014
CB30  46 02     LSR $02 = 80                    A:80 X:02 Y:04 P:AD SP:27 PPU:273, 55 CYC:3019
CB32  88        DEY                             A:80 X:02 Y:04 P:2C SP:27 PPU:281, 55 CYC:3024
CB33  D0 EC     BNE $CB21                       A:80 X:02 Y:03 P:2C SP:27 PPU:289, 55 CYC:3026
CB21  A5 02     LDA $02 = 40                    A:80 X:02 Y:03 P:2C SP:27 PPU:297, 55 CYC:3029
CB23  24 00     BIT $00 = 00                    A:40 X:02 Y:03 P:2C SP:27 PPU:305, 55 CYC:3032
CB25  F0 06     BEQ $CB2D                       A:40 X:02 Y:03 P:2E SP:27 PPU:321, 55 CYC:3035
CB2D  38        SEC                             A:40 X:02 Y:03 P:2E SP:27 PPU:323, 55 CYC:3038
CB2E  66 01     ROR $01 = BF                    A:40 X:02 Y:03 P:2F SP:27 PPU:329, 55 CYC:3040
CB30  46 02     LSR $02 = 40                    A:40 X:02 Y:03 P:AD SP:27 PPU:345, 55 CYC:3045
CB32  88        DEY                             A:40 X:02 Y:03 P:2C SP:27 PPU: 17, 56 CYC:3050
CB33  D0 EC     BNE $CB21                       A:40 X:02 Y:02 P:2C SP:27 PPU: 25, 56 CYC:3052
CB21  A5 02     LDA $02 = 20                    A:40 X:02 Y:02 P:2C SP:27 PPU: 33, 56 CYC:3055
CB23  24 00     BIT $00 = 00                    A:20 X:02 Y:02 P:2C SP:27 PPU: 41, 56 CYC:3058
CB25  F0 06     BEQ $CB2D                       A:20 X:02 Y:02 P:2E SP:27 PPU: 49, 56 CYC:3061
CB2D  38        SEC                             A:20 X:02 Y:02 P:2E SP:27 PPU: 57, 56 CYC:3064
CB2E  66 01     ROR $01 = DF                    A:20 X:02 Y:02 P:2F SP:27 PPU: 65, 56 CYC:3066
CB30  46 02     LSR $02 = 20                    A:20 X:02 Y:02 P:AD SP:27 PPU: 81, 56 CYC:3071
CB32  88        DEY                             A:20 X:02 Y:02 P:2C SP:27 PPU: 97, 56 CYC:3076
CB33  D0 EC     BNE $CB21                       A:20 X:02 Y:01 P:2C SP:27 PPU:105, 56 CYC:3078
CB21  A5 02     LDA $02 = 10                    A:20 X:02 Y:01 P:2C SP:27 PPU:113, 56 CYC:3081
CB23  24 00     BIT $00 = 00                    A:10 X:02 Y:01 P:2C SP:27 PPU:121, 56 CYC:3084
CB25  F0 06     BEQ $CB2D                       A:10 X:02 Y:01 P:2E SP:27 PPU:129, 56 CYC:3087
CB2D  38        SEC                             A:10 X:02 Y:01 P:2E SP:27 PPU:137, 56 CYC:3090
CB2E  66 01     ROR $01 = EF                    A:10 X:02 Y:01 P:2F SP:27 PPU:145, 56 CYC:3092
CB30  46 02     LSR $02 = 10                    A:10 X:02 Y:01 P:AD SP:27 PPU:161, 56 CYC:3097
CB32  88        DEY                             A:10 X:02 Y:01 P:2C SP:27 PPU:177, 56 CYC:3102
CB33  D0 EC     BNE $CB21                       A:10 X:02 Y:00 P:2E SP:27 PPU:177, 56 CYC:3104
CB35  A9 7F     LDA #$7F                        A:10 X:02 Y:00 P:2E SP:27 PPU:185, 56 CYC:3106
CB37  85 01     STA $01 = F7                    A:7F X:02 Y:00 P:2C SP:27 PPU:193, 56 CYC:3108
CB39  A9 80     LDA #$80                        A:7F X:02 Y:00 P:2C SP:27 PPU:201, 56 CYC:3111
CB3B  85 02     STA $02 = 08                    A:80 X:02 Y:00 P:AC SP:27 PPU:209, 56 CYC:3113
CB3D  60        RTS                             A:80 X:02 Y:00 P:AC SP:27 PPU:217, 56 CYC:3116
C0C6  20 1E F9  JSR $F91E                       A:80 X:02 Y:00 P:AC SP:29 PPU:233, 56 CYC:3122
F91E  A9 FF     LDA #$FF                        A:80 X:02 Y:00 P:AC SP:27 PPU:249, 56 CYC:3128
F920  8D 17 40  STA $4017 = 00                  A:FF X:02 Y:00 P:AC SP:27 PPU:257, 56 CYC:3130
F923  20 EB F9  JSR $F9EB                       A:FF X:02 Y:00 P:AC SP:27 PPU:273, 56 CYC:3134
F9EB  A4 FF     LDY $FF = 00                    A:FF X:02 Y:00 P:AC SP:25 PPU:289, 56 CYC:3140
F9ED  A5 F0     LDA $F0 = 00                    A:FF X:02 Y:00 P:2E SP:25 PPU:297, 56 CYC:3143
F9EF  46 FF     LSR $FF = 00                    A:00 X:02 Y:00 P:2E SP:25 PPU:305, 56 CYC:3146
F9F1  B0 B8     BCS $F9AB                       A:00 X:02 Y:00 P:2E SP:25 PPU:321, 56 CYC:3151
F9F3  4A        LSR A                           A:00 X:02 Y:00 P:2E SP:25 PPU:323, 56 CYC:3153
F9F4  B0 BB     BCS $F9B1                       A:00 X:02 Y:00 P:2E SP:25 PPU:329, 56 CYC:3155
F9F6  46 FF     LSR $FF = 00                    A:00 X:02 Y:00 P:2E SP:25 PPU:335, 56 CYC:3157
F9F8  B0 CE     BCS $F9C8                       A:00 X:02 Y:00 P:2E SP:25 PPU:  9, 57 CYC:3162
F9FA  4A        LSR A                           A:00 X:02 Y:00 P:2E SP:25 PPU: 17, 57 CYC:3164
F9FB  B0 D3     BCS $F9D0                       A:00 X:02 Y:00 P:2E SP:25 PPU: 17, 57 CYC:3166
F9FD  46 FF     LSR $FF = 00                    A:00 X:02 Y:00 P:2E SP:25 PPU: 25, 57 CYC:3168
F9FF  B0 0B     BCS $FA0C                       A:00 X:02 Y:00 P:2E SP:25 PPU: 41, 57 CYC:3173
FA01  4A        LSR A                           A:00 X:02 Y:00 P:2E SP:25 PPU: 49, 57 CYC:3175
FA02  B0 17     BCS $FA1B                       A:00 X:02 Y:00 P:2E SP:25 PPU: 57, 57 CYC:3177
FA04  46 FF     LSR $FF = 00                    A:00 X:02 Y:00 P:2E SP:25 PPU: 57, 57 CYC:3179
FA06  B0 38     BCS $FA40                       A:00 X:02 Y:00 P:2E SP:25 PPU: 73, 57 CYC:3184
FA08  4A        LSR A                           A:00 X:02 Y:00 P:2E SP:25 PPU: 81, 57 CYC:3186
FA09  B0 3F     BCS $FA4A                       A:00 X:02 Y:00 P:2E SP:25 PPU: 89, 57 CYC:3188
FA0B  60        RTS                             A:00 X:02 Y:00 P:2E SP:25 PPU: 89, 57 CYC:3190
F926  20 C4 FA  JSR $FAC4                       A:00 X:02 Y:00 P:2E SP:27 PPU:113, 57 CYC:3196
FAC4  A4 FE     LDY $FE = 00                    A:00 X:02 Y:00 P:2E SP:25 PPU:129, 57 CYC:3202
FAC6  A5 F1     LDA $F1 = 00                    A:00 X:02 Y:00 P:2E SP:25 PPU:137, 57 CYC:3205
FAC8  46 FE     LSR $FE = 00                    A:00 X:02 Y:00 P:2E SP:25 PPU:145, 57 CYC:3208
FACA  B0 98     BCS $FA64                       A:00 X:02 Y:00 P:2E SP:25 PPU:161, 57 CYC:3213
FACC  4A        LSR A                           A:00 X:02 Y:00 P:2E SP:25 PPU:169, 57 CYC:3215
FACD  B0 9C     BCS $FA6B                       A:00 X:02 Y:00 P:2E SP:25 PPU:177, 57 CYC:3217
FACF  46 FE     LSR $FE = 00                    A:00 X:02 Y:00 P:2E SP:25 PPU:177, 57 CYC:3219
FAD1  B0 B0     BCS $FA83                       A:00 X:02 Y:00 P:2E SP:25 PPU:193, 57 CYC:3224
FAD3  4A        LSR A                           A:00 X:02 Y:00 P:2E SP:25 PPU:201, 57 CYC:3226
FAD4  B0 BE     BCS $FA94                       A:00 X:02 Y:00 P:2E SP:25 PPU:209, 57 CYC:3228
FAD6  46 FE     LSR $FE = 00                    A:00 X:02 Y:00 P:2E SP:25 PPU:209, 57 CYC:3230
FAD8  B0 12     BCS $FAEC                       A:00 X:02 Y:00 P:2E SP:25 PPU:225, 57 CYC:3235
FADA  4A        LSR A                           A:00 X:02 Y:00 P:2E SP:25 PPU:233, 57 CYC:3237
FADB  B0 D8     BCS $FAB5                       A:00 X:02 Y:00 P:2E SP:25 PPU:241, 57 CYC:3239
FADD  4A        LSR A                           A:00 X:02 Y:00 P:2E SP:25 PPU:249, 57 CYC:3241
FADE  B0 29     BCS $FB09                       A:00 X:02 Y:00 P:2E SP:25 PPU:249, 57 CYC:3243
FAE0  46 FE     LSR $FE = 00                    A:00 X:02 Y:00 P:2E SP:25 PPU:257, 57 CYC:3245
FAE2  B0 15     BCS $FAF9                       A:00 X:02 Y:00 P:2E SP:25 PPU:273, 57 CYC:3250
FAE4  46 FE     LSR $FE = 00                    A:00 X:02 Y:00 P:2E SP:25 PPU:281, 57 CYC:3252
FAE6  B0 2F     BCS $FB17                       A:00 X:02 Y:00 P:2E SP:25 PPU:297, 57 CYC:3257
FAE8  4A        LSR A                           A:00 X:02 Y:00 P:2E SP:25 PPU:297, 57 CYC:3259
FAE9  B0 CA     BCS $FAB5                       A:00 X:02 Y:00 P:2E SP:25 PPU:305, 57 CYC:3261
FAEB  60        RTS                             A:00 X:02 Y:00 P:2E SP:25 PPU:313, 57 CYC:3263
F929  20 A1 FB  JSR $FBA1                       A:00 X:02 Y:00 P:2E SP:27 PPU:326, 57 CYC:3269
FBA1  A4 FC     LDY $FC = 00                    A:00 X:02 Y:00 P:2E SP:25 PPU:345, 57 CYC:3275
FBA3  A5 F2     LDA $F2 = 00                    A:00 X:02 Y:00 P:2E SP:25 PPU:  9, 58 CYC:3278
FBA5  46 FC     LSR $FC = 00                    A:00 X:02 Y:00 P:2E SP:25 PPU: 17, 58 CYC:3281
FBA7  B0 C8     BCS $FB71                       A:00 X:02 Y:00 P:2E SP:25 PPU: 33, 58 CYC:3286
FBA9  4A        LSR A                           A:00 X:02 Y:00 P:2E SP:25 PPU: 41, 58 CYC:3288
FBAA  B0 CC     BCS $FB78                       A:00 X:02 Y:00 P:2E SP:25 PPU: 49, 58 CYC:3290
FBAC  46 FC     LSR $FC = 00                    A:00 X:02 Y:00 P:2E SP:25 PPU: 57, 58 CYC:3292
FBAE  B0 0B     BCS $FBBB                       A:00 X:02 Y:00 P:2E SP:25 PPU: 65, 58 CYC:3297
FBB0  4A        LSR A                           A:00 X:02 Y:00 P:2E SP:25 PPU: 73, 58 CYC:3299
FBB1  B0 18     BCS $FBCB                       A:00 X:02 Y:00 P:2E SP:25 PPU: 81, 58 CYC:3301
FBB3  46 FC     LSR $FC = 00                    A:00 X:02 Y:00 P:2E SP:25 PPU: 89, 58 CYC:3303
FBB5  B0 24     BCS $FBDB                       A:00 X:02 Y:00 P:2E SP:25 PPU:105, 58 CYC:3308
FBB7  4A        LSR A                           A:00 X:02 Y:00 P:2E SP:25 PPU:105, 58 CYC:3310
FBB8  B0 31     BCS $FBEB                       A:00 X:02 Y:00 P:2E SP:25 PPU:113, 58 CYC:3312
FBBA  60        RTS                             A:00 X:02 Y:00 P:2E SP:25 PPU:121, 58 CYC:3314
F92C  20 FC FB  JSR $FBFC                       A:00 X:02 Y:00 P:2E SP:27 PPU:137, 58 CYC:3320
FBFC  A5 FB     LDA $FB = 00                    A:00 X:02 Y:00 P:2E SP:25 PPU:153, 58 CYC:3326
FBFE  D0 05     BNE $FC05                       A:00 X:02 Y:00 P:2E SP:25 PPU:161, 58 CYC:3329
FC00  A5 F3     LDA $F3 = 00                    A:00 X:02 Y:00 P:2E SP:25 PPU:169, 58 CYC:3331
FC02  D0 4D     BNE $FC51                       A:00 X:02 Y:00 P:2E SP:25 PPU:177, 58 CYC:3334
FC04  60        RTS                             A:00 X:02 Y:00 P:2E SP:25 PPU:185, 58 CYC:3336
F92F  A9 00     LDA #$00                        A:00 X:02 Y:00 P:2E SP:27 PPU:201, 58 CYC:3342
F931  85 FF     STA $FF = 00                    A:00 X:02 Y:00 P:2E SP:27 PPU:209, 58 CYC:3344
F933  85 FE     STA $FE = 00                    A:00 X:02 Y:00 P:2E SP:27 PPU:217, 58 CYC:3347
F935  85 FC     STA $FC = 00                    A:00 X:02 Y:00 P:2E SP:27 PPU:225, 58 CYC:3350
F937  85 FB     STA $FB = 00                    A:00 X:02 Y:00 P:2E SP:27 PPU:233, 58 CYC:3353
F939  AC 11 07  LDY $0711 = 00                  A:00 X:02 Y:00 P:2E SP:27 PPU:249, 58 CYC:3356
F93C  A5 F3     LDA $F3 = 00                    A:00 X:02 Y:00 P:2E SP:27 PPU:257, 58 CYC:3360
F93E  29 0C     AND #$0C                        A:00 X:02 Y:00 P:2E SP:27 PPU:265, 58 CYC:3363
F940  F0 07     BEQ $F949                       A:00 X:02 Y:00 P:2E SP:27 PPU:273, 58 CYC:3365
F949  98        TYA                             A:00 X:02 Y:00 P:2E SP:27 PPU:281, 58 CYC:3368
F94A  F0 03     BEQ $F94F                       A:00 X:02 Y:00 P:2E SP:27 PPU:289, 58 CYC:3370
F94F  8C 11 40  STY $4011 = 00                  A:00 X:02 Y:00 P:2E SP:27 PPU:297, 58 CYC:3373
F952  60        RTS                             A:00 X:02 Y:00 P:2E SP:27 PPU:305, 58 CYC:3377
C0C9  A5 53     LDA $53 = 00                    A:00 X:02 Y:00 P:2E SP:29 PPU:323, 58 CYC:3383
C0CB  F0 06     BEQ $C0D3                       A:00 X:02 Y:00 P:2E SP:29 PPU:332, 58 CYC:3386
C0D3  A5 51     LDA $51 = 01                    A:00 X:02 Y:00 P:2E SP:29 PPU:345, 58 CYC:3389
C0D5  F0 4F     BEQ $C126                       A:01 X:02 Y:00 P:2C SP:29 PPU:  9, 59 CYC:3392
C0D7  AE 4C 03  LDX $034C = 02                  A:01 X:02 Y:00 P:2C SP:29 PPU: 17, 59 CYC:3394
C0DA  F0 3E     BEQ $C11A                       A:01 X:02 Y:00 P:2C SP:29 PPU: 25, 59 CYC:3398
C0DC  CA        DEX                             A:01 X:02 Y:00 P:2C SP:29 PPU: 33, 59 CYC:3400
C0DD  F0 24     BEQ $C103                       A:01 X:01 Y:00 P:2C SP:29 PPU: 41, 59 CYC:3402
C0DF  CA        DEX                             A:01 X:01 Y:00 P:2C SP:29 PPU: 41, 59 CYC:3404
C0E0  D0 1E     BNE $C100                       A:01 X:00 Y:00 P:2E SP:29 PPU: 49, 59 CYC:3406
C0E2  A5 11     LDA $11 = 1F                    A:01 X:00 Y:00 P:2E SP:29 PPU: 57, 59 CYC:3408
C0E4  29 EF     AND #$EF                        A:1F X:00 Y:00 P:2C SP:29 PPU: 65, 59 CYC:3411
C0E6  8D 01 20  STA $2001 = 1F                  A:0F X:00 Y:00 P:2C SP:29 PPU: 73, 59 CYC:3413
C0E9  85 11     STA $11 = 1F                    A:0F X:00 Y:00 P:2C SP:29 PPU: 81, 59 CYC:3417
C0EB  A5 15     LDA $15 = 00                    A:0F X:00 Y:00 P:2C SP:29 PPU: 89, 59 CYC:3420
C0ED  29 10     AND #$10                        A:00 X:00 Y:00 P:2E SP:29 PPU:105, 59 CYC:3423
C0EF  F0 47     BEQ $C138                       A:00 X:00 Y:00 P:2E SP:29 PPU:105, 59 CYC:3425
C138  20 41 C1  JSR $C141                       A:00 X:00 Y:00 P:2E SP:29 PPU:121, 59 CYC:3429
C141  AD 02 20  LDA $2002 = 0F                  A:00 X:00 Y:00 P:2E SP:27 PPU:137, 59 CYC:3435
C144  A5 10     LDA $10 = 11                    A:0F X:00 Y:00 P:2C SP:27 PPU:153, 59 CYC:3439
C146  09 80     ORA #$80                        A:11 X:00 Y:00 P:2C SP:27 PPU:161, 59 CYC:3442
C148  85 10     STA $10 = 11                    A:91 X:00 Y:00 P:AC SP:27 PPU:161, 59 CYC:3444
C14A  8D 00 20  STA $2000 = 11                  A:91 X:00 Y:00 P:AC SP:27 PPU:177, 59 CYC:3447
C14D  60        RTS                             A:91 X:00 Y:00 P:AC SP:27 PPU:185, 59 CYC:3451
C13B  68        PLA                             A:91 X:00 Y:00 P:AC SP:29 PPU:201, 59 CYC:3457
C13C  A8        TAY                             A:10 X:00 Y:00 P:2C SP:2A PPU:217, 59 CYC:3461
C13D  68        PLA                             A:10 X:00 Y:10 P:2C SP:2A PPU:225, 59 CYC:3463
C13E  AA        TAX                             A:2D X:00 Y:10 P:2C SP:2B PPU:233, 59 CYC:3467
C13F  68        PLA                             A:2D X:2D Y:10 P:2C SP:2B PPU:241, 59 CYC:3469
C140  40        RTI                             A:FF X:2D Y:10 P:AC SP:2C PPU:249, 59 CYC:3473
00B7  00        BRK                             A:FF X:2D Y:10 P:A8 SP:2F PPU:273, 59 CYC:3479
C076  48        PHA                             A:FF X:2D Y:10 P:AC SP:2C PPU:289, 59 CYC:3486
C077  8A        TXA                             A:FF X:2D Y:10 P:AC SP:2B PPU:297, 59 CYC:3489
C078  48        PHA                             A:2D X:2D Y:10 P:2C SP:2B PPU:305, 59 CYC:3491
C079  98        TYA                             A:2D X:2D Y:10 P:2C SP:2A PPU:313, 59 CYC:3494
C07A  48        PHA                             A:10 X:2D Y:10 P:2C SP:2A PPU:321, 59 CYC:3496
C07B  A5 10     LDA $10 = 91                    A:10 X:2D Y:10 P:2C SP:29 PPU:326, 59 CYC:3499
C07D  A6 DE     LDX $DE = 00                    A:91 X:2D Y:10 P:AC SP:29 PPU:335, 59 CYC:3502
C07F  F0 02     BEQ $C083                       A:91 X:00 Y:10 P:2E SP:29 PPU:345, 59 CYC:3505
C083  29 7F     AND #$7F                        A:91 X:00 Y:10 P:2E SP:29 PPU:  9, 60 CYC:3508
C085  20 48 C1  JSR $C148                       A:11 X:00 Y:10 P:2C SP:29 PPU: 17, 60 CYC:3510
C148  85 10     STA $10 = 91                    A:11 X:00 Y:10 P:2C SP:27 PPU: 33, 60 CYC:3516
C14A  8D 00 20  STA $2000 = 91                  A:11 X:00 Y:10 P:2C SP:27 PPU: 41, 60 CYC:3519
C14D  60        RTS                             A:11 X:00 Y:10 P:2C SP:27 PPU: 57, 60 CYC:3523
C088  A5 52     LDA $52 = 00                    A:11 X:00 Y:10 P:2C SP:29 PPU: 73, 60 CYC:3529
C08A  D0 09     BNE $C095                       A:00 X:00 Y:10 P:2E SP:29 PPU: 81, 60 CYC:3532
C08C  A5 11     LDA $11 = 0F                    A:00 X:00 Y:10 P:2E SP:29 PPU: 89, 60 CYC:3534
C08E  09 1E     ORA #$1E                        A:0F X:00 Y:10 P:2C SP:29 PPU: 97, 60 CYC:3537
C090  8D 01 20  STA $2001 = 0F                  A:1F X:00 Y:10 P:2C SP:29 PPU:105, 60 CYC:3539
C093  85 11     STA $11 = 0F                    A:1F X:00 Y:10 P:2C SP:29 PPU:113, 60 CYC:3543
C095  A9 00     LDA #$00                        A:1F X:00 Y:10 P:2C SP:29 PPU:129, 60 CYC:3546
C097  8D 03 20  STA $2003 = 00                  A:00 X:00 Y:10 P:2E SP:29 PPU:129, 60 CYC:3548
C09A  A9 02     LDA #$02                        A:00 X:00 Y:10 P:2E SP:29 PPU:145, 60 CYC:3552
C09C  8D 14 40  STA $4014 = 00                  A:02 X:00 Y:10 P:2C SP:29 PPU:153, 60 CYC:3554
C09F  A6 52     LDX $52 = 00                    A:02 X:00 Y:10 P:2C SP:29 PPU:321, 64 CYC:4071
C0A1  20 50 C1  JSR $C150                       A:02 X:00 Y:10 P:2E SP:29 PPU:326, 64 CYC:4074
C150  BD 00 C0  LDA $C000,X @ C000 = 01         A:02 X:00 Y:10 P:2E SP:27 PPU:345, 64 CYC:4080
C153  85 00     STA $00 = 00                    A:01 X:00 Y:10 P:2C SP:27 PPU: 17, 65 CYC:4084
C155  BD 0A C0  LDA $C00A,X @ C00A = 03         A:01 X:00 Y:10 P:2C SP:27 PPU: 25, 65 CYC:4087
C158  85 01     STA $01 = 7F                    A:03 X:00 Y:10 P:2C SP:27 PPU: 33, 65 CYC:4091
C15A  20 78 CB  JSR $CB78                       A:03 X:00 Y:10 P:2C SP:27 PPU: 41, 65 CYC:4094
CB78  AE 02 20  LDX $2002 = 00                  A:03 X:00 Y:10 P:2C SP:25 PPU: 65, 65 CYC:4100
CB7B  A0 00     LDY #$00                        A:03 X:00 Y:10 P:2E SP:25 PPU: 73, 65 CYC:4104
CB7D  B1 00     LDA ($00),Y = 0301 @ 0301 = 00  A:03 X:00 Y:00 P:2E SP:25 PPU: 81, 65 CYC:4106
CB7F  D0 BD     BNE $CB3E                       A:00 X:00 Y:00 P:2E SP:25 PPU: 97, 65 CYC:4111
CB81  A5 12     LDA $12 = 01                    A:00 X:00 Y:00 P:2E SP:25 PPU:105, 65 CYC:4113
CB83  8D 05 20  STA $2005 = 9F                  A:01 X:00 Y:00 P:2C SP:25 PPU:113, 65 CYC:4116
CB86  A5 13     LDA $13 = 9F                    A:01 X:00 Y:00 P:2C SP:25 PPU:121, 65 CYC:4120
CB88  8D 05 20  STA $2005 = 01                  A:9F X:00 Y:00 P:AC SP:25 PPU:129, 65 CYC:4123
CB8B  60        RTS                             A:9F X:00 Y:00 P:AC SP:25 PPU:145, 65 CYC:4127
C15D  A9 00     LDA #$00                        A:9F X:00 Y:00 P:AC SP:27 PPU:161, 65 CYC:4133
C15F  8D 00 03  STA $0300 = 00                  A:00 X:00 Y:00 P:2E SP:27 PPU:169, 65 CYC:4135
C162  8D 01 03  STA $0301 = 00                  A:00 X:00 Y:00 P:2E SP:27 PPU:177, 65 CYC:4139
C165  60        RTS                             A:00 X:00 Y:00 P:2E SP:27 PPU:193, 65 CYC:4143
C0A4  85 52     STA $52 = 00                    A:00 X:00 Y:00 P:2E SP:29 PPU:209, 65 CYC:4149
C0A6  85 DE     STA $DE = 00                    A:00 X:00 Y:00 P:2E SP:29 PPU:217, 65 CYC:4152
C0A8  A9 3F     LDA #$3F                        A:00 X:00 Y:00 P:2E SP:29 PPU:225, 65 CYC:4155
C0AA  8D 06 20  STA $2006 = 00                  A:3F X:00 Y:00 P:2C SP:29 PPU:233, 65 CYC:4157
C0AD  A9 00     LDA #$00                        A:3F X:00 Y:00 P:2C SP:29 PPU:249, 65 CYC:4161
C0AF  8D 06 20  STA $2006 = 3F                  A:00 X:00 Y:00 P:2E SP:29 PPU:249, 65 CYC:4163
C0B2  8D 06 20  STA $2006 = 00                  A:00 X:00 Y:00 P:2E SP:29 PPU:265, 65 CYC:4167
C0B5  8D 06 20  STA $2006 = 00                  A:00 X:00 Y:00 P:2E SP:29 PPU:273, 65 CYC:4171
C0B8  AD 02 20  LDA $2002 = 00                  A:00 X:00 Y:00 P:2E SP:29 PPU:289, 65 CYC:4175
C0BB  20 81 CB  JSR $CB81                       A:00 X:00 Y:00 P:2E SP:29 PPU:297, 65 CYC:4179
CB81  A5 12     LDA $12 = 01                    A:00 X:00 Y:00 P:2E SP:27 PPU:321, 65 CYC:4185
CB83  8D 05 20  STA $2005 = 9F                  A:01 X:00 Y:00 P:2C SP:27 PPU:323, 65 CYC:4188
CB86  A5 13     LDA $13 = 9F                    A:01 X:00 Y:00 P:2C SP:27 PPU:335, 65 CYC:4192
CB88  8D 05 20  STA $2005 = 01                  A:9F X:00 Y:00 P:AC SP:27 PPU:345, 65 CYC:4195
CB8B  60        RTS                             A:9F X:00 Y:00 P:AC SP:27 PPU: 17, 66 CYC:4199
C0BE  A5 10     LDA $10 = 11                    A:9F X:00 Y:00 P:AC SP:29 PPU: 33, 66 CYC:4205
C0C0  8D 00 20  STA $2000 = 11                  A:11 X:00 Y:00 P:2C SP:29 PPU: 41, 66 CYC:4208
C0C3  20 ED CA  JSR $CAED                       A:11 X:00 Y:00 P:2C SP:29 PPU: 57, 66 CYC:4212
CAED  20 35 CB  JSR $CB35                       A:11 X:00 Y:00 P:2C SP:27 PPU: 73, 66 CYC:4218
CB35  A9 7F     LDA #$7F                        A:11 X:00 Y:00 P:2C SP:25 PPU: 89, 66 CYC:4224
CB37  85 01     STA $01 = 03                    A:7F X:00 Y:00 P:2C SP:25 PPU: 97, 66 CYC:4226
CB39  A9 80     LDA #$80                        A:7F X:00 Y:00 P:2C SP:25 PPU:105, 66 CYC:4229
CB3B  85 02     STA $02 = 80                    A:80 X:00 Y:00 P:AC SP:25 PPU:113, 66 CYC:4231
CB3D  60        RTS                             A:80 X:00 Y:00 P:AC SP:25 PPU:121, 66 CYC:4234
CAF0  A9 01     LDA #$01                        A:80 X:00 Y:00 P:AC SP:27 PPU:137, 66 CYC:4240
CAF2  8D 16 40  STA $4016 = 00                  A:01 X:00 Y:00 P:2C SP:27 PPU:145, 66 CYC:4242
CAF5  A2 00     LDX #$00                        A:01 X:00 Y:00 P:2C SP:27 PPU:153, 66 CYC:4246
CAF7  A9 00     LDA #$00                        A:01 X:00 Y:00 P:2E SP:27 PPU:161, 66 CYC:4248
CAF9  8D 16 40  STA $4016 = 00                  A:00 X:00 Y:00 P:2E SP:27 PPU:169, 66 CYC:4250
CAFC  20 00 CB  JSR $CB00                       A:00 X:00 Y:00 P:2E SP:27 PPU:177, 66 CYC:4254
CB00  A0 08     LDY #$08                        A:00 X:00 Y:00 P:2E SP:25 PPU:201, 66 CYC:4260
CB02  48        PHA                             A:00 X:00 Y:08 P:2C SP:25 PPU:201, 66 CYC:4262
CB03  BD 16 40  LDA $4016,X @ 4016 = 00         A:00 X:00 Y:08 P:2C SP:24 PPU:209, 66 CYC:4265
CB06  85 00     STA $00 = 01                    A:00 X:00 Y:08 P:2E SP:24 PPU:225, 66 CYC:4269
CB08  4A        LSR A                           A:00 X:00 Y:08 P:2E SP:24 PPU:233, 66 CYC:4272
CB09  05 00     ORA $00 = 00                    A:00 X:00 Y:08 P:2E SP:24 PPU:241, 66 CYC:4274
CB0B  4A        LSR A                           A:00 X:00 Y:08 P:2E SP:24 PPU:249, 66 CYC:4277
CB0C  68        PLA                             A:00 X:00 Y:08 P:2E SP:24 PPU:257, 66 CYC:4279
CB0D  2A        ROL A                           A:00 X:00 Y:08 P:2E SP:25 PPU:265, 66 CYC:4283
CB0E  88        DEY                             A:00 X:00 Y:08 P:2E SP:25 PPU:273, 66 CYC:4285
CB0F  D0 F1     BNE $CB02                       A:00 X:00 Y:07 P:2C SP:25 PPU:281, 66 CYC:4287
CB02  48        PHA                             A:00 X:00 Y:07 P:2C SP:25 PPU:289, 66 CYC:4290
CB03  BD 16 40  LDA $4016,X @ 4016 = 00         A:00 X:00 Y:07 P:2C SP:24 PPU:297, 66 CYC:4293
CB06  85 00     STA $00 = 00                    A:00 X:00 Y:07 P:2E SP:24 PPU:305, 66 CYC:4297
CB08  4A        LSR A                           A:00 X:00 Y:07 P:2E SP:24 PPU:321, 66 CYC:4300
CB09  05 00     ORA $00 = 00                    A:00 X:00 Y:07 P:2E SP:24 PPU:321, 66 CYC:4302
CB0B  4A        LSR A                           A:00 X:00 Y:07 P:2E SP:24 PPU:329, 66 CYC:4305
CB0C  68        PLA                             A:00 X:00 Y:07 P:2E SP:24 PPU:335, 66 CYC:4307
CB0D  2A        ROL A                           A:00 X:00 Y:07 P:2E SP:25 PPU:  9, 67 CYC:4311
CB0E  88        DEY                             A:00 X:00 Y:07 P:2E SP:25 PPU:  9, 67 CYC:4313
CB0F  D0 F1     BNE $CB02                       A:00 X:00 Y:06 P:2C SP:25 PPU: 17, 67 CYC:4315
CB02  48        PHA                             A:00 X:00 Y:06 P:2C SP:25 PPU: 25, 67 CYC:4318
CB03  BD 16 40  LDA $4016,X @ 4016 = 00         A:00 X:00 Y:06 P:2C SP:24 PPU: 33, 67 CYC:4321
CB06  85 00     STA $00 = 00                    A:00 X:00 Y:06 P:2E SP:24 PPU: 49, 67 CYC:4325
CB08  4A        LSR A                           A:00 X:00 Y:06 P:2E SP:24 PPU: 57, 67 CYC:4328
CB09  05 00     ORA $00 = 00                    A:00 X:00 Y:06 P:2E SP:24 PPU: 65, 67 CYC:4330
CB0B  4A        LSR A                           A:00 X:00 Y:06 P:2E SP:24 PPU: 73, 67 CYC:4333
CB0C  68        PLA                             A:00 X:00 Y:06 P:2E SP:24 PPU: 81, 67 CYC:4335
CB0D  2A        ROL A                           A:00 X:00 Y:06 P:2E SP:25 PPU: 89, 67 CYC:4339
CB0E  88        DEY                             A:00 X:00 Y:06 P:2E SP:25 PPU: 97, 67 CYC:4341
CB0F  D0 F1     BNE $CB02                       A:00 X:00 Y:05 P:2C SP:25 PPU:105, 67 CYC:4343
CB02  48        PHA                             A:00 X:00 Y:05 P:2C SP:25 PPU:113, 67 CYC:4346
CB03  BD 16 40  LDA $4016,X @ 4016 = 00         A:00 X:00 Y:05 P:2C SP:24 PPU:121, 67 CYC:4349
CB06  85 00     STA $00 = 00                    A:00 X:00 Y:05 P:2E SP:24 PPU:129, 67 CYC:4353
CB08  4A        LSR A                           A:00 X:00 Y:05 P:2E SP:24 PPU:137, 67 CYC:4356
CB09  05 00     ORA $00 = 00                    A:00 X:00 Y:05 P:2E SP:24 PPU:145, 67 CYC:4358
CB0B  4A        LSR A                           A:00 X:00 Y:05 P:2E SP:24 PPU:153, 67 CYC:4361
CB0C  68        PLA                             A:00 X:00 Y:05 P:2E SP:24 PPU:161, 67 CYC:4363
CB0D  2A        ROL A                           A:00 X:00 Y:05 P:2E SP:25 PPU:177, 67 CYC:4367
CB0E  88        DEY                             A:00 X:00 Y:05 P:2E SP:25 PPU:177, 67 CYC:4369
CB0F  D0 F1     BNE $CB02                       A:00 X:00 Y:04 P:2C SP:25 PPU:185, 67 CYC:4371
CB02  48        PHA                             A:00 X:00 Y:04 P:2C SP:25 PPU:193, 67 CYC:4374
CB03  BD 16 40  LDA $4016,X @ 4016 = 00         A:00 X:00 Y:04 P:2C SP:24 PPU:201, 67 CYC:4377
CB06  85 00     STA $00 = 00                    A:00 X:00 Y:04 P:2E SP:24 PPU:217, 67 CYC:4381
CB08  4A        LSR A                           A:00 X:00 Y:04 P:2E SP:24 PPU:225, 67 CYC:4384
CB09  05 00     ORA $00 = 00                    A:00 X:00 Y:04 P:2E SP:24 PPU:233, 67 CYC:4386
CB0B  4A        LSR A                           A:00 X:00 Y:04 P:2E SP:24 PPU:241, 67 CYC:4389
CB0C  68        PLA                             A:00 X:00 Y:04 P:2E SP:24 PPU:249, 67 CYC:4391
CB0D  2A        ROL A                           A:00 X:00 Y:04 P:2E SP:25 PPU:257, 67 CYC:4395
CB0E  88        DEY                             A:00 X:00 Y:04 P:2E SP:25 PPU:265, 67 CYC:4397
CB0F  D0 F1     BNE $CB02                       A:00 X:00 Y:03 P:2C SP:25 PPU:273, 67 CYC:4399
CB02  48        PHA                             A:00 X:00 Y:03 P:2C SP:25 PPU:281, 67 CYC:4402
CB03  BD 16 40  LDA $4016,X @ 4016 = 00         A:00 X:00 Y:03 P:2C SP:24 PPU:289, 67 CYC:4405
CB06  85 00     STA $00 = 00                    A:00 X:00 Y:03 P:2E SP:24 PPU:297, 67 CYC:4409
CB08  4A        LSR A                           A:00 X:00 Y:03 P:2E SP:24 PPU:305, 67 CYC:4412
CB09  05 00     ORA $00 = 00                    A:00 X:00 Y:03 P:2E SP:24 PPU:313, 67 CYC:4414
CB0B  4A        LSR A                           A:00 X:00 Y:03 P:2E SP:24 PPU:321, 67 CYC:4417
CB0C  68        PLA                             A:00 X:00 Y:03 P:2E SP:24 PPU:326, 67 CYC:4419
CB0D  2A        ROL A                           A:00 X:00 Y:03 P:2E SP:25 PPU:345, 67 CYC:4423
CB0E  88        DEY                             A:00 X:00 Y:03 P:2E SP:25 PPU:345, 67 CYC:4425
CB0F  D0 F1     BNE $CB02                       A:00 X:00 Y:02 P:2C SP:25 PPU:  9, 68 CYC:4427
CB02  48        PHA                             A:00 X:00 Y:02 P:2C SP:25 PPU: 17, 68 CYC:4430
CB03  BD 16 40  LDA $4016,X @ 4016 = 00         A:00 X:00 Y:02 P:2C SP:24 PPU: 25, 68 CYC:4433
CB06  85 00     STA $00 = 00                    A:00 X:00 Y:02 P:2E SP:24 PPU: 41, 68 CYC:4437
CB08  4A        LSR A                           A:00 X:00 Y:02 P:2E SP:24 PPU: 49, 68 CYC:4440
CB09  05 00     ORA $00 = 00                    A:00 X:00 Y:02 P:2E SP:24 PPU: 57, 68 CYC:4442
CB0B  4A        LSR A                           A:00 X:00 Y:02 P:2E SP:24 PPU: 65, 68 CYC:4445
CB0C  68        PLA                             A:00 X:00 Y:02 P:2E SP:24 PPU: 65, 68 CYC:4447
CB0D  2A        ROL A                           A:00 X:00 Y:02 P:2E SP:25 PPU: 81, 68 CYC:4451
CB0E  88        DEY                             A:00 X:00 Y:02 P:2E SP:25 PPU: 89, 68 CYC:4453
CB0F  D0 F1     BNE $CB02                       A:00 X:00 Y:01 P:2C SP:25 PPU: 89, 68 CYC:4455
CB02  48        PHA                             A:00 X:00 Y:01 P:2C SP:25 PPU:105, 68 CYC:4458
CB03  BD 16 40  LDA $4016,X @ 4016 = 00         A:00 X:00 Y:01 P:2C SP:24 PPU:113, 68 CYC:4461
CB06  85 00     STA $00 = 00                    A:00 X:00 Y:01 P:2E SP:24 PPU:121, 68 CYC:4465
CB08  4A        LSR A                           A:00 X:00 Y:01 P:2E SP:24 PPU:129, 68 CYC:4468
CB09  05 00     ORA $00 = 00                    A:00 X:00 Y:01 P:2E SP:24 PPU:137, 68 CYC:4470
CB0B  4A        LSR A                           A:00 X:00 Y:01 P:2E SP:24 PPU:145, 68 CYC:4473
CB0C  68        PLA                             A:00 X:00 Y:01 P:2E SP:24 PPU:153, 68 CYC:4475
CB0D  2A        ROL A                           A:00 X:00 Y:01 P:2E SP:25 PPU:161, 68 CYC:4479
CB0E  88        DEY                             A:00 X:00 Y:01 P:2E SP:25 PPU:169, 68 CYC:4481
CB0F  D0 F1     BNE $CB02                       A:00 X:00 Y:00 P:2E SP:25 PPU:177, 68 CYC:4483
CB11  86 00     STX $00 = 00                    A:00 X:00 Y:00 P:2E SP:25 PPU:185, 68 CYC:4485
CB13  06 00     ASL $00 = 00                    A:00 X:00 Y:00 P:2E SP:25 PPU:193, 68 CYC:4488
CB15  A6 00     LDX $00 = 00                    A:00 X:00 Y:00 P:2E SP:25 PPU:209, 68 CYC:4493
CB17  B4 14     LDY $14,X @ 14 = 00             A:00 X:00 Y:00 P:2E SP:25 PPU:217, 68 CYC:4496
CB19  84 00     STY $00 = 00                    A:00 X:00 Y:00 P:2E SP:25 PPU:225, 68 CYC:4500
CB1B  95 14     STA $14,X @ 14 = 00             A:00 X:00 Y:00 P:2E SP:25 PPU:233, 68 CYC:4503
CB1D  95 15     STA $15,X @ 15 = 00             A:00 X:00 Y:00 P:2E SP:25 PPU:249, 68 CYC:4507
CB1F  A0 04     LDY #$04                        A:00 X:00 Y:00 P:2E SP:25 PPU:257, 68 CYC:4511
CB21  A5 02     LDA $02 = 80                    A:00 X:00 Y:04 P:2C SP:25 PPU:265, 68 CYC:4513
CB23  24 00     BIT $00 = 00                    A:80 X:00 Y:04 P:AC SP:25 PPU:273, 68 CYC:4516
CB25  F0 06     BEQ $CB2D                       A:80 X:00 Y:04 P:2E SP:25 PPU:281, 68 CYC:4519
CB2D  38        SEC                             A:80 X:00 Y:04 P:2E SP:25 PPU:297, 68 CYC:4522
CB2E  66 01     ROR $01 = 7F                    A:80 X:00 Y:04 P:2F SP:25 PPU:297, 68 CYC:4524
CB30  46 02     LSR $02 = 80                    A:80 X:00 Y:04 P:AD SP:25 PPU:313, 68 CYC:4529
CB32  88        DEY                             A:80 X:00 Y:04 P:2C SP:25 PPU:326, 68 CYC:4534
CB33  D0 EC     BNE $CB21                       A:80 X:00 Y:03 P:2C SP:25 PPU:332, 68 CYC:4536
CB21  A5 02     LDA $02 = 40                    A:80 X:00 Y:03 P:2C SP:25 PPU:345, 68 CYC:4539
CB23  24 00     BIT $00 = 00                    A:40 X:00 Y:03 P:2C SP:25 PPU:  9, 69 CYC:4542
CB25  F0 06     BEQ $CB2D                       A:40 X:00 Y:03 P:2E SP:25 PPU: 17, 69 CYC:4545
CB2D  38        SEC                             A:40 X:00 Y:03 P:2E SP:25 PPU: 25, 69 CYC:4548
CB2E  66 01     ROR $01 = BF                    A:40 X:00 Y:03 P:2F SP:25 PPU: 33, 69 CYC:4550
CB30  46 02     LSR $02 = 40                    A:40 X:00 Y:03 P:AD SP:25 PPU: 49, 69 CYC:4555
CB32  88        DEY                             A:40 X:00 Y:03 P:2C SP:25 PPU: 65, 69 CYC:4560
CB33  D0 EC     BNE $CB21                       A:40 X:00 Y:02 P:2C SP:25 PPU: 65, 69 CYC:4562
CB21  A5 02     LDA $02 = 20                    A:40 X:00 Y:02 P:2C SP:25 PPU: 81, 69 CYC:4565
CB23  24 00     BIT $00 = 00                    A:20 X:00 Y:02 P:2C SP:25 PPU: 89, 69 CYC:4568
CB25  F0 06     BEQ $CB2D                       A:20 X:00 Y:02 P:2E SP:25 PPU: 97, 69 CYC:4571
CB2D  38        SEC                             A:20 X:00 Y:02 P:2E SP:25 PPU:105, 69 CYC:4574
CB2E  66 01     ROR $01 = DF                    A:20 X:00 Y:02 P:2F SP:25 PPU:113, 69 CYC:4576
CB30  46 02     LSR $02 = 20                    A:20 X:00 Y:02 P:AD SP:25 PPU:129, 69 CYC:4581
CB32  88        DEY                             A:20 X:00 Y:02 P:2C SP:25 PPU:137, 69 CYC:4586
CB33  D0 EC     BNE $CB21                       A:20 X:00 Y:01 P:2C SP:25 PPU:145, 69 CYC:4588
CB21  A5 02     LDA $02 = 10                    A:20 X:00 Y:01 P:2C SP:25 PPU:153, 69 CYC:4591
CB23  24 00     BIT $00 = 00                    A:10 X:00 Y:01 P:2C SP:25 PPU:161, 69 CYC:4594
CB25  F0 06     BEQ $CB2D                       A:10 X:00 Y:01 P:2E SP:25 PPU:177, 69 CYC:4597
CB2D  38        SEC                             A:10 X:00 Y:01 P:2E SP:25 PPU:185, 69 CYC:4600
CB2E  66 01     ROR $01 = EF                    A:10 X:00 Y:01 P:2F SP:25 PPU:185, 69 CYC:4602
CB30  46 02     LSR $02 = 10                    A:10 X:00 Y:01 P:AD SP:25 PPU:201, 69 CYC:4607
CB32  88        DEY                             A:10 X:00 Y:01 P:2C SP:25 PPU:217, 69 CYC:4612
CB33  D0 EC     BNE $CB21                       A:10 X:00 Y:00 P:2E SP:25 PPU:225, 69 CYC:4614
CB35  A9 7F     LDA #$7F                        A:10 X:00 Y:00 P:2E SP:25 PPU:233, 69 CYC:4616
CB37  85 01     STA $01 = F7                    A:7F X:00 Y:00 P:2C SP:25 PPU:233, 69 CYC:4618
CB39  A9 80     LDA #$80                        A:7F X:00 Y:00 P:2C SP:25 PPU:249, 69 CYC:4621
CB3B  85 02     STA $02 = 08                    A:80 X:00 Y:00 P:AC SP:25 PPU:249, 69 CYC:4623
CB3D  60        RTS                             A:80 X:00 Y:00 P:AC SP:25 PPU:257, 69 CYC:4626
CAFF  E8        INX                             A:80 X:00 Y:00 P:AC SP:27 PPU:281, 69 CYC:4632
CB00  A0 08     LDY #$08                        A:80 X:01 Y:00 P:2C SP:27 PPU:281, 69 CYC:4634
CB02  48        PHA                             A:80 X:01 Y:08 P:2C SP:27 PPU:289, 69 CYC:4636
CB03  BD 16 40  LDA $4016,X @ 4017 = 00         A:80 X:01 Y:08 P:2C SP:26 PPU:297, 69 CYC:4639
CB06  85 00     STA $00 = 00                    A:00 X:01 Y:08 P:2E SP:26 PPU:313, 69 CYC:4643
CB08  4A        LSR A                           A:00 X:01 Y:08 P:2E SP:26 PPU:321, 69 CYC:4646
CB09  05 00     ORA $00 = 00                    A:00 X:01 Y:08 P:2E SP:26 PPU:323, 69 CYC:4648
CB0B  4A        LSR A                           A:00 X:01 Y:08 P:2E SP:26 PPU:332, 69 CYC:4651
CB0C  68        PLA                             A:00 X:01 Y:08 P:2E SP:26 PPU:345, 69 CYC:4653
CB0D  2A        ROL A                           A:80 X:01 Y:08 P:AC SP:27 PPU:  9, 70 CYC:4657
CB0E  88        DEY                             A:00 X:01 Y:08 P:2F SP:27 PPU: 17, 70 CYC:4659
CB0F  D0 F1     BNE $CB02                       A:00 X:01 Y:07 P:2D SP:27 PPU: 17, 70 CYC:4661
CB02  48        PHA                             A:00 X:01 Y:07 P:2D SP:27 PPU: 33, 70 CYC:4664
CB03  BD 16 40  LDA $4016,X @ 4017 = 00         A:00 X:01 Y:07 P:2D SP:26 PPU: 41, 70 CYC:4667
CB06  85 00     STA $00 = 00                    A:00 X:01 Y:07 P:2F SP:26 PPU: 49, 70 CYC:4671
CB08  4A        LSR A                           A:00 X:01 Y:07 P:2F SP:26 PPU: 57, 70 CYC:4674
CB09  05 00     ORA $00 = 00                    A:00 X:01 Y:07 P:2E SP:26 PPU: 65, 70 CYC:4676
CB0B  4A        LSR A                           A:00 X:01 Y:07 P:2E SP:26 PPU: 73, 70 CYC:4679
CB0C  68        PLA                             A:00 X:01 Y:07 P:2E SP:26 PPU: 81, 70 CYC:4681
CB0D  2A        ROL A                           A:00 X:01 Y:07 P:2E SP:27 PPU: 89, 70 CYC:4685
CB0E  88        DEY                             A:00 X:01 Y:07 P:2E SP:27 PPU: 97, 70 CYC:4687
CB0F  D0 F1     BNE $CB02                       A:00 X:01 Y:06 P:2C SP:27 PPU:105, 70 CYC:4689
CB02  48        PHA                             A:00 X:01 Y:06 P:2C SP:27 PPU:113, 70 CYC:4692
CB03  BD 16 40  LDA $4016,X @ 4017 = 00         A:00 X:01 Y:06 P:2C SP:26 PPU:121, 70 CYC:4695
CB06  85 00     STA $00 = 00                    A:00 X:01 Y:06 P:2E SP:26 PPU:137, 70 CYC:4699
CB08  4A        LSR A                           A:00 X:01 Y:06 P:2E SP:26 PPU:145, 70 CYC:4702
CB09  05 00     ORA $00 = 00                    A:00 X:01 Y:06 P:2E SP:26 PPU:153, 70 CYC:4704
CB0B  4A        LSR A                           A:00 X:01 Y:06 P:2E SP:26 PPU:161, 70 CYC:4707
CB0C  68        PLA                             A:00 X:01 Y:06 P:2E SP:26 PPU:161, 70 CYC:4709
CB0D  2A        ROL A                           A:00 X:01 Y:06 P:2E SP:27 PPU:177, 70 CYC:4713
CB0E  88        DEY                             A:00 X:01 Y:06 P:2E SP:27 PPU:185, 70 CYC:4715
CB0F  D0 F1     BNE $CB02                       A:00 X:01 Y:05 P:2C SP:27 PPU:185, 70 CYC:4717
CB02  48        PHA                             A:00 X:01 Y:05 P:2C SP:27 PPU:201, 70 CYC:4720
CB03  BD 16 40  LDA $4016,X @ 4017 = 00         A:00 X:01 Y:05 P:2C SP:26 PPU:209, 70 CYC:4723
CB06  85 00     STA $00 = 00                    A:00 X:01 Y:05 P:2E SP:26 PPU:217, 70 CYC:4727
CB08  4A        LSR A                           A:00 X:01 Y:05 P:2E SP:26 PPU:225, 70 CYC:4730
CB09  05 00     ORA $00 = 00                    A:00 X:01 Y:05 P:2E SP:26 PPU:233, 70 CYC:4732
CB0B  4A        LSR A                           A:00 X:01 Y:05 P:2E SP:26 PPU:241, 70 CYC:4735
CB0C  68        PLA                             A:00 X:01 Y:05 P:2E SP:26 PPU:249, 70 CYC:4737
CB0D  2A        ROL A                           A:00 X:01 Y:05 P:2E SP:27 PPU:257, 70 CYC:4741
CB0E  88        DEY                             A:00 X:01 Y:05 P:2E SP:27 PPU:265, 70 CYC:4743
CB0F  D0 F1     BNE $CB02                       A:00 X:01 Y:04 P:2C SP:27 PPU:273, 70 CYC:4745
CB02  48        PHA                             A:00 X:01 Y:04 P:2C SP:27 PPU:281, 70 CYC:4748
CB03  BD 16 40  LDA $4016,X @ 4017 = 00         A:00 X:01 Y:04 P:2C SP:26 PPU:289, 70 CYC:4751
CB06  85 00     STA $00 = 00                    A:00 X:01 Y:04 P:2E SP:26 PPU:305, 70 CYC:4755
CB08  4A        LSR A                           A:00 X:01 Y:04 P:2E SP:26 PPU:313, 70 CYC:4758
CB09  05 00     ORA $00 = 00                    A:00 X:01 Y:04 P:2E SP:26 PPU:321, 70 CYC:4760
CB0B  4A        LSR A                           A:00 X:01 Y:04 P:2E SP:26 PPU:323, 70 CYC:4763
CB0C  68        PLA                             A:00 X:01 Y:04 P:2E SP:26 PPU:329, 70 CYC:4765
CB0D  2A        ROL A                           A:00 X:01 Y:04 P:2E SP:27 PPU:345, 70 CYC:4769
CB0E  88        DEY                             A:00 X:01 Y:04 P:2E SP:27 PPU:  9, 71 CYC:4771
CB0F  D0 F1     BNE $CB02                       A:00 X:01 Y:03 P:2C SP:27 PPU:  9, 71 CYC:4773
CB02  48        PHA                             A:00 X:01 Y:03 P:2C SP:27 PPU: 17, 71 CYC:4776
CB03  BD 16 40  LDA $4016,X @ 4017 = 00         A:00 X:01 Y:03 P:2C SP:26 PPU: 33, 71 CYC:4779
CB06  85 00     STA $00 = 00                    A:00 X:01 Y:03 P:2E SP:26 PPU: 41, 71 CYC:4783
CB08  4A        LSR A                           A:00 X:01 Y:03 P:2E SP:26 PPU: 49, 71 CYC:4786
CB09  05 00     ORA $00 = 00                    A:00 X:01 Y:03 P:2E SP:26 PPU: 57, 71 CYC:4788
CB0B  4A        LSR A                           A:00 X:01 Y:03 P:2E SP:26 PPU: 65, 71 CYC:4791
CB0C  68        PLA                             A:00 X:01 Y:03 P:2E SP:26 PPU: 73, 71 CYC:4793
CB0D  2A        ROL A                           A:00 X:01 Y:03 P:2E SP:27 PPU: 81, 71 CYC:4797
CB0E  88        DEY                             A:00 X:01 Y:03 P:2E SP:27 PPU: 89, 71 CYC:4799
CB0F  D0 F1     BNE $CB02                       A:00 X:01 Y:02 P:2C SP:27 PPU: 97, 71 CYC:4801
CB02  48        PHA                             A:00 X:01 Y:02 P:2C SP:27 PPU:105, 71 CYC:4804
CB03  BD 16 40  LDA $4016,X @ 4017 = 00         A:00 X:01 Y:02 P:2C SP:26 PPU:113, 71 CYC:4807
CB06  85 00     STA $00 = 00                    A:00 X:01 Y:02 P:2E SP:26 PPU:129, 71 CYC:4811
CB08  4A        LSR A                           A:00 X:01 Y:02 P:2E SP:26 PPU:137, 71 CYC:4814
CB09  05 00     ORA $00 = 00                    A:00 X:01 Y:02 P:2E SP:26 PPU:137, 71 CYC:4816
CB0B  4A        LSR A                           A:00 X:01 Y:02 P:2E SP:26 PPU:153, 71 CYC:4819
CB0C  68        PLA                             A:00 X:01 Y:02 P:2E SP:26 PPU:153, 71 CYC:4821
CB0D  2A        ROL A                           A:00 X:01 Y:02 P:2E SP:27 PPU:169, 71 CYC:4825
CB0E  88        DEY                             A:00 X:01 Y:02 P:2E SP:27 PPU:177, 71 CYC:4827
CB0F  D0 F1     BNE $CB02                       A:00 X:01 Y:01 P:2C SP:27 PPU:177, 71 CYC:4829
CB02  48        PHA                             A:00 X:01 Y:01 P:2C SP:27 PPU:185, 71 CYC:4832
CB03  BD 16 40  LDA $4016,X @ 4017 = 00         A:00 X:01 Y:01 P:2C SP:26 PPU:201, 71 CYC:4835
CB06  85 00     STA $00 = 00                    A:00 X:01 Y:01 P:2E SP:26 PPU:209, 71 CYC:4839
CB08  4A        LSR A                           A:00 X:01 Y:01 P:2E SP:26 PPU:217, 71 CYC:4842
CB09  05 00     ORA $00 = 00                    A:00 X:01 Y:01 P:2E SP:26 PPU:225, 71 CYC:4844
CB0B  4A        LSR A                           A:00 X:01 Y:01 P:2E SP:26 PPU:233, 71 CYC:4847
CB0C  68        PLA                             A:00 X:01 Y:01 P:2E SP:26 PPU:241, 71 CYC:4849
CB0D  2A        ROL A                           A:00 X:01 Y:01 P:2E SP:27 PPU:249, 71 CYC:4853
CB0E  88        DEY                             A:00 X:01 Y:01 P:2E SP:27 PPU:257, 71 CYC:4855
CB0F  D0 F1     BNE $CB02                       A:00 X:01 Y:00 P:2E SP:27 PPU:265, 71 CYC:4857
CB11  86 00     STX $00 = 00                    A:00 X:01 Y:00 P:2E SP:27 PPU:273, 71 CYC:4859
CB13  06 00     ASL $00 = 01                    A:00 X:01 Y:00 P:2E SP:27 PPU:281, 71 CYC:4862
CB15  A6 00     LDX $00 = 02                    A:00 X:01 Y:00 P:2C SP:27 PPU:297, 71 CYC:4867
CB17  B4 14     LDY $14,X @ 16 = 00             A:00 X:02 Y:00 P:2C SP:27 PPU:305, 71 CYC:4870
CB19  84 00     STY $00 = 02                    A:00 X:02 Y:00 P:2E SP:27 PPU:313, 71 CYC:4874
CB1B  95 14     STA $14,X @ 16 = 00             A:00 X:02 Y:00 P:2E SP:27 PPU:321, 71 CYC:4877
CB1D  95 15     STA $15,X @ 17 = 00             A:00 X:02 Y:00 P:2E SP:27 PPU:332, 71 CYC:4881
CB1F  A0 04     LDY #$04                        A:00 X:02 Y:00 P:2E SP:27 PPU:345, 71 CYC:4885
CB21  A5 02     LDA $02 = 80                    A:00 X:02 Y:04 P:2C SP:27 PPU:  9, 72 CYC:4887
CB23  24 00     BIT $00 = 00                    A:80 X:02 Y:04 P:AC SP:27 PPU: 17, 72 CYC:4890
CB25  F0 06     BEQ $CB2D                       A:80 X:02 Y:04 P:2E SP:27 PPU: 25, 72 CYC:4893
CB2D  38        SEC                             A:80 X:02 Y:04 P:2E SP:27 PPU: 33, 72 CYC:4896
CB2E  66 01     ROR $01 = 7F                    A:80 X:02 Y:04 P:2F SP:27 PPU: 41, 72 CYC:4898
CB30  46 02     LSR $02 = 80                    A:80 X:02 Y:04 P:AD SP:27 PPU: 57, 72 CYC:4903
CB32  88        DEY                             A:80 X:02 Y:04 P:2C SP:27 PPU: 73, 72 CYC:4908
CB33  D0 EC     BNE $CB21                       A:80 X:02 Y:03 P:2C SP:27 PPU: 81, 72 CYC:4910
CB21  A5 02     LDA $02 = 40                    A:80 X:02 Y:03 P:2C SP:27 PPU: 89, 72 CYC:4913
CB23  24 00     BIT $00 = 00                    A:40 X:02 Y:03 P:2C SP:27 PPU: 97, 72 CYC:4916
CB25  F0 06     BEQ $CB2D                       A:40 X:02 Y:03 P:2E SP:27 PPU:105, 72 CYC:4919
CB2D  38        SEC                             A:40 X:02 Y:03 P:2E SP:27 PPU:113, 72 CYC:4922
CB2E  66 01     ROR $01 = BF                    A:40 X:02 Y:03 P:2F SP:27 PPU:121, 72 CYC:4924
CB30  46 02     LSR $02 = 40                    A:40 X:02 Y:03 P:AD SP:27 PPU:137, 72 CYC:4929
CB32  88        DEY                             A:40 X:02 Y:03 P:2C SP:27 PPU:153, 72 CYC:4934
CB33  D0 EC     BNE $CB21                       A:40 X:02 Y:02 P:2C SP:27 PPU:153, 72 CYC:4936
CB21  A5 02     LDA $02 = 20                    A:40 X:02 Y:02 P:2C SP:27 PPU:161, 72 CYC:4939
CB23  24 00     BIT $00 = 00                    A:20 X:02 Y:02 P:2C SP:27 PPU:177, 72 CYC:4942
CB25  F0 06     BEQ $CB2D                       A:20 X:02 Y:02 P:2E SP:27 PPU:185, 72 CYC:4945
CB2D  38        SEC                             A:20 X:02 Y:02 P:2E SP:27 PPU:193, 72 CYC:4948
CB2E  66 01     ROR $01 = DF                    A:20 X:02 Y:02 P:2F SP:27 PPU:201, 72 CYC:4950
CB30  46 02     LSR $02 = 20                    A:20 X:02 Y:02 P:AD SP:27 PPU:209, 72 CYC:4955
CB32  88        DEY                             A:20 X:02 Y:02 P:2C SP:27 PPU:225, 72 CYC:4960
CB33  D0 EC     BNE $CB21                       A:20 X:02 Y:01 P:2C SP:27 PPU:233, 72 CYC:4962
CB21  A5 02     LDA $02 = 10                    A:20 X:02 Y:01 P:2C SP:27 PPU:241, 72 CYC:4965
CB23  24 00     BIT $00 = 00                    A:10 X:02 Y:01 P:2C SP:27 PPU:249, 72 CYC:4968
CB25  F0 06     BEQ $CB2D                       A:10 X:02 Y:01 P:2E SP:27 PPU:257, 72 CYC:4971
CB2D  38        SEC                             A:10 X:02 Y:01 P:2E SP:27 PPU:273, 72 CYC:4974
CB2E  66 01     ROR $01 = EF                    A:10 X:02 Y:01 P:2F SP:27 PPU:273, 72 CYC:4976
CB30  46 02     LSR $02 = 10                    A:10 X:02 Y:01 P:AD SP:27 PPU:289, 72 CYC:4981
CB32  88        DEY                             A:10 X:02 Y:01 P:2C SP:27 PPU:305, 72 CYC:4986
CB33  D0 EC     BNE $CB21                       A:10 X:02 Y:00 P:2E SP:27 PPU:313, 72 CYC:4988
CB35  A9 7F     LDA #$7F                        A:10 X:02 Y:00 P:2E SP:27 PPU:321, 72 CYC:4990
CB37  85 01     STA $01 = F7                    A:7F X:02 Y:00 P:2C SP:27 PPU:321, 72 CYC:4992
CB39  A9 80     LDA #$80                        A:7F X:02 Y:00 P:2C SP:27 PPU:329, 72 CYC:4995
CB3B  85 02     STA $02 = 08                    A:80 X:02 Y:00 P:AC SP:27 PPU:335, 72 CYC:4997
CB3D  60        RTS                             A:80 X:02 Y:00 P:AC SP:27 PPU:345, 72 CYC:5000
C0C6  20 1E F9  JSR $F91E                       A:80 X:02 Y:00 P:AC SP:29 PPU: 17, 73 CYC:5006
F91E  A9 FF     LDA #$FF                        A:80 X:02 Y:00 P:AC SP:27 PPU: 41, 73 CYC:5012
F920  8D 17 40  STA $4017 = 00                  A:FF X:02 Y:00 P:AC SP:27 PPU: 41, 73 CYC:5014
F923  20 EB F9  JSR $F9EB                       A:FF X:02 Y:00 P:AC SP:27 PPU: 57, 73 CYC:5018
F9EB  A4 FF     LDY $FF = 00                    A:FF X:02 Y:00 P:AC SP:25 PPU: 73, 73 CYC:5024
F9ED  A5 F0     LDA $F0 = 00                    A:FF X:02 Y:00 P:2E SP:25 PPU: 81, 73 CYC:5027
F9EF  46 FF     LSR $FF = 00                    A:00 X:02 Y:00 P:2E SP:25 PPU: 89, 73 CYC:5030
F9F1  B0 B8     BCS $F9AB                       A:00 X:02 Y:00 P:2E SP:25 PPU:105, 73 CYC:5035
F9F3  4A        LSR A                           A:00 X:02 Y:00 P:2E SP:25 PPU:113, 73 CYC:5037
F9F4  B0 BB     BCS $F9B1                       A:00 X:02 Y:00 P:2E SP:25 PPU:121, 73 CYC:5039
F9F6  46 FF     LSR $FF = 00                    A:00 X:02 Y:00 P:2E SP:25 PPU:129, 73 CYC:5041
F9F8  B0 CE     BCS $F9C8                       A:00 X:02 Y:00 P:2E SP:25 PPU:137, 73 CYC:5046
F9FA  4A        LSR A                           A:00 X:02 Y:00 P:2E SP:25 PPU:145, 73 CYC:5048
F9FB  B0 D3     BCS $F9D0                       A:00 X:02 Y:00 P:2E SP:25 PPU:153, 73 CYC:5050
F9FD  46 FF     LSR $FF = 00                    A:00 X:02 Y:00 P:2E SP:25 PPU:161, 73 CYC:5052
F9FF  B0 0B     BCS $FA0C                       A:00 X:02 Y:00 P:2E SP:25 PPU:177, 73 CYC:5057
FA01  4A        LSR A                           A:00 X:02 Y:00 P:2E SP:25 PPU:177, 73 CYC:5059
FA02  B0 17     BCS $FA1B                       A:00 X:02 Y:00 P:2E SP:25 PPU:185, 73 CYC:5061
FA04  46 FF     LSR $FF = 00                    A:00 X:02 Y:00 P:2E SP:25 PPU:193, 73 CYC:5063
FA06  B0 38     BCS $FA40                       A:00 X:02 Y:00 P:2E SP:25 PPU:209, 73 CYC:5068
FA08  4A        LSR A                           A:00 X:02 Y:00 P:2E SP:25 PPU:209, 73 CYC:5070
FA09  B0 3F     BCS $FA4A                       A:00 X:02 Y:00 P:2E SP:25 PPU:217, 73 CYC:5072
FA0B  60        RTS                             A:00 X:02 Y:00 P:2E SP:25 PPU:225, 73 CYC:5074
F926  20 C4 FA  JSR $FAC4                       A:00 X:02 Y:00 P:2E SP:27 PPU:241, 73 CYC:5080
FAC4  A4 FE     LDY $FE = 00                    A:00 X:02 Y:00 P:2E SP:25 PPU:257, 73 CYC:5086
FAC6  A5 F1     LDA $F1 = 00                    A:00 X:02 Y:00 P:2E SP:25 PPU:273, 73 CYC:5089
FAC8  46 FE     LSR $FE = 00                    A:00 X:02 Y:00 P:2E SP:25 PPU:281, 73 CYC:5092
FACA  B0 98     BCS $FA64                       A:00 X:02 Y:00 P:2E SP:25 PPU:297, 73 CYC:5097
FACC  4A        LSR A                           A:00 X:02 Y:00 P:2E SP:25 PPU:297, 73 CYC:5099
FACD  B0 9C     BCS $FA6B                       A:00 X:02 Y:00 P:2E SP:25 PPU:305, 73 CYC:5101
FACF  46 FE     LSR $FE = 00                    A:00 X:02 Y:00 P:2E SP:25 PPU:313, 73 CYC:5103
FAD1  B0 B0     BCS $FA83                       A:00 X:02 Y:00 P:2E SP:25 PPU:323, 73 CYC:5108
FAD3  4A        LSR A                           A:00 X:02 Y:00 P:2E SP:25 PPU:329, 73 CYC:5110
FAD4  B0 BE     BCS $FA94                       A:00 X:02 Y:00 P:2E SP:25 PPU:335, 73 CYC:5112
FAD6  46 FE     LSR $FE = 00                    A:00 X:02 Y:00 P:2E SP:25 PPU:345, 73 CYC:5114
FAD8  B0 12     BCS $FAEC                       A:00 X:02 Y:00 P:2E SP:25 PPU: 17, 74 CYC:5119
FADA  4A        LSR A                           A:00 X:02 Y:00 P:2E SP:25 PPU: 17, 74 CYC:5121
FADB  B0 D8     BCS $FAB5                       A:00 X:02 Y:00 P:2E SP:25 PPU: 25, 74 CYC:5123
FADD  4A        LSR A                           A:00 X:02 Y:00 P:2E SP:25 PPU: 33, 74 CYC:5125
FADE  B0 29     BCS $FB09                       A:00 X:02 Y:00 P:2E SP:25 PPU: 41, 74 CYC:5127
FAE0  46 FE     LSR $FE = 00                    A:00 X:02 Y:00 P:2E SP:25 PPU: 41, 74 CYC:5129
FAE2  B0 15     BCS $FAF9                       A:00 X:02 Y:00 P:2E SP:25 PPU: 57, 74 CYC:5134
FAE4  46 FE     LSR $FE = 00                    A:00 X:02 Y:00 P:2E SP:25 PPU: 65, 74 CYC:5136
FAE6  B0 2F     BCS $FB17                       A:00 X:02 Y:00 P:2E SP:25 PPU: 81, 74 CYC:5141
FAE8  4A        LSR A                           A:00 X:02 Y:00 P:2E SP:25 PPU: 89, 74 CYC:5143
FAE9  B0 CA     BCS $FAB5                       A:00 X:02 Y:00 P:2E SP:25 PPU: 89, 74 CYC:5145
FAEB  60        RTS                             A:00 X:02 Y:00 P:2E SP:25 PPU: 97, 74 CYC:5147
F929  20 A1 FB  JSR $FBA1                       A:00 X:02 Y:00 P:2E SP:27 PPU:113, 74 CYC:5153
FBA1  A4 FC     LDY $FC = 00                    A:00 X:02 Y:00 P:2E SP:25 PPU:137, 74 CYC:5159
FBA3  A5 F2     LDA $F2 = 00                    A:00 X:02 Y:00 P:2E SP:25 PPU:145, 74 CYC:5162
FBA5  46 FC     LSR $FC = 00                    A:00 X:02 Y:00 P:2E SP:25 PPU:153, 74 CYC:5165
FBA7  B0 C8     BCS $FB71                       A:00 X:02 Y:00 P:2E SP:25 PPU:169, 74 CYC:5170
FBA9  4A        LSR A                           A:00 X:02 Y:00 P:2E SP:25 PPU:177, 74 CYC:5172
FBAA  B0 CC     BCS $FB78                       A:00 X:02 Y:00 P:2E SP:25 PPU:177, 74 CYC:5174
FBAC  46 FC     LSR $FC = 00                    A:00 X:02 Y:00 P:2E SP:25 PPU:185, 74 CYC:5176
FBAE  B0 0B     BCS $FBBB                       A:00 X:02 Y:00 P:2E SP:25 PPU:201, 74 CYC:5181
FBB0  4A        LSR A                           A:00 X:02 Y:00 P:2E SP:25 PPU:209, 74 CYC:5183
FBB1  B0 18     BCS $FBCB                       A:00 X:02 Y:00 P:2E SP:25 PPU:209, 74 CYC:5185
FBB3  46 FC     LSR $FC = 00                    A:00 X:02 Y:00 P:2E SP:25 PPU:217, 74 CYC:5187
FBB5  B0 24     BCS $FBDB                       A:00 X:02 Y:00 P:2E SP:25 PPU:233, 74 CYC:5192
FBB7  4A        LSR A                           A:00 X:02 Y:00 P:2E SP:25 PPU:241, 74 CYC:5194
FBB8  B0 31     BCS $FBEB                       A:00 X:02 Y:00 P:2E SP:25 PPU:249, 74 CYC:5196
FBBA  60        RTS                             A:00 X:02 Y:00 P:2E SP:25 PPU:249, 74 CYC:5198
F92C  20 FC FB  JSR $FBFC                       A:00 X:02 Y:00 P:2E SP:27 PPU:273, 74 CYC:5204
FBFC  A5 FB     LDA $FB = 00                    A:00 X:02 Y:00 P:2E SP:25 PPU:289, 74 CYC:5210
FBFE  D0 05     BNE $FC05                       A:00 X:02 Y:00 P:2E SP:25 PPU:297, 74 CYC:5213
FC00  A5 F3     LDA $F3 = 00                    A:00 X:02 Y:00 P:2E SP:25 PPU:305, 74 CYC:5215
FC02  D0 4D     BNE $FC51                       A:00 X:02 Y:00 P:2E SP:25 PPU:313, 74 CYC:5218
FC04  60        RTS                             A:00 X:02 Y:00 P:2E SP:25 PPU:321, 74 CYC:5220
F92F  A9 00     LDA #$00                        A:00 X:02 Y:00 P:2E SP:27 PPU:332, 74 CYC:5226
F931  85 FF     STA $FF = 00                    A:00 X:02 Y:00 P:2E SP:27 PPU:345, 74 CYC:5228
F933  85 FE     STA $FE = 00                    A:00 X:02 Y:00 P:2E SP:27 PPU:  9, 75 CYC:5231
F935  85 FC     STA $FC = 00                    A:00 X:02 Y:00 P:2E SP:27 PPU: 17, 75 CYC:5234
F937  85 FB     STA $FB = 00                    A:00 X:02 Y:00 P:2E SP:27 PPU: 25, 75 CYC:5237
F939  AC 11 07  LDY $0711 = 00                  A:00 X:02 Y:00 P:2E SP:27 PPU: 33, 75 CYC:5240
F93C  A5 F3     LDA $F3 = 00                    A:00 X:02 Y:00 P:2E SP:27 PPU: 41, 75 CYC:5244
F93E  29 0C     AND #$0C                        A:00 X:02 Y:00 P:2E SP:27 PPU: 57, 75 CYC:5247
F940  F0 07     BEQ $F949                       A:00 X:02 Y:00 P:2E SP:27 PPU: 57, 75 CYC:5249
F949  98        TYA                             A:00 X:02 Y:00 P:2E SP:27 PPU: 65, 75 CYC:5252
F94A  F0 03     BEQ $F94F                       A:00 X:02 Y:00 P:2E SP:27 PPU: 73, 75 CYC:5254
F94F  8C 11 40  STY $4011 = 00                  A:00 X:02 Y:00 P:2E SP:27 PPU: 81, 75 CYC:5257
F952  60        RTS                             A:00 X:02 Y:00 P:2E SP:27 PPU: 97, 75 CYC:5261
C0C9  A5 53     LDA $53 = 00                    A:00 X:02 Y:00 P:2E SP:29 PPU:113, 75 CYC:5267
C0CB  F0 06     BEQ $C0D3                       A:00 X:02 Y:00 P:2E SP:29 PPU:121, 75 CYC:5270
C0D3  A5 51     LDA $51 = 01                    A:00 X:02 Y:00 P:2E SP:29 PPU:129, 75 CYC:5273
C0D5  F0 4F     BEQ $C126                       A:01 X:02 Y:00 P:2C SP:29 PPU:137, 75 CYC:5276
C0D7  AE 4C 03  LDX $034C = 02                  A:01 X:02 Y:00 P:2C SP:29 PPU:145, 75 CYC:5278
C0DA  F0 3E     BEQ $C11A                       A:01 X:02 Y:00 P:2C SP:29 PPU:161, 75 CYC:5282
C0DC  CA        DEX                             A:01 X:02 Y:00 P:2C SP:29 PPU:161, 75 CYC:5284
C0DD  F0 24     BEQ $C103                       A:01 X:01 Y:00 P:2C SP:29 PPU:169, 75 CYC:5286
C0DF  CA        DEX                             A:01 X:01 Y:00 P:2C SP:29 PPU:177, 75 CYC:5288
C0E0  D0 1E     BNE $C100                       A:01 X:00 Y:00 P:2E SP:29 PPU:185, 75 CYC:5290
C0E2  A5 11     LDA $11 = 1F                    A:01 X:00 Y:00 P:2E SP:29 PPU:185, 75 CYC:5292
C0E4  29 EF     AND #$EF                        A:1F X:00 Y:00 P:2C SP:29 PPU:201, 75 CYC:5295
C0E6  8D 01 20  STA $2001 = 1F                  A:0F X:00 Y:00 P:2C SP:29 PPU:201, 75 CYC:5297
C0E9  85 11     STA $11 = 1F                    A:0F X:00 Y:00 P:2C SP:29 PPU:217, 75 CYC:5301
C0EB  A5 15     LDA $15 = 00                    A:0F X:00 Y:00 P:2C SP:29 PPU:225, 75 CYC:5304
C0ED  29 10     AND #$10                        A:00 X:00 Y:00 P:2E SP:29 PPU:233, 75 CYC:5307
C0EF  F0 47     BEQ $C138                       A:00 X:00 Y:00 P:2E SP:29 PPU:241, 75 CYC:5309
C138  20 41 C1  JSR $C141                       A:00 X:00 Y:00 P:2E SP:29 PPU:249, 75 CYC:5313
C141  AD 02 20  LDA $2002 = 0F                  A:00 X:00 Y:00 P:2E SP:27 PPU:273, 75 CYC:5319
C144  A5 10     LDA $10 = 11                    A:0F X:00 Y:00 P:2C SP:27 PPU:281, 75 CYC:5323
C146  09 80     ORA #$80                        A:11 X:00 Y:00 P:2C SP:27 PPU:289, 75 CYC:5326
C148  85 10     STA $10 = 11                    A:91 X:00 Y:00 P:AC SP:27 PPU:297, 75 CYC:5328
C14A  8D 00 20  STA $2000 = 11                  A:91 X:00 Y:00 P:AC SP:27 PPU:305, 75 CYC:5331
C14D  60        RTS                             A:91 X:00 Y:00 P:AC SP:27 PPU:321, 75 CYC:5335
C13B  68        PLA                             A:91 X:00 Y:00 P:AC SP:29 PPU:332, 75 CYC:5341
C13C  A8        TAY                             A:10 X:00 Y:00 P:2C SP:2A PPU:345, 75 CYC:5345
C13D  68        PLA                             A:10 X:00 Y:10 P:2C SP:2A PPU:  9, 76 CYC:5347
C13E  AA        TAX                             A:2D X:00 Y:10 P:2C SP:2B PPU: 17, 76 CYC:5351
C13F  68        PLA                             A:2D X:2D Y:10 P:2C SP:2B PPU: 25, 76 CYC:5353
C140  40        RTI                             A:FF X:2D Y:10 P:AC SP:2C PPU: 41, 76 CYC:5357
00B8  00        BRK                             A:FF X:2D Y:10 P:A8 SP:2F PPU: 57, 76 CYC:5363
C076  48        PHA                             A:FF X:2D Y:10 P:AC SP:2C PPU: 81, 76 CYC:5370
C077  8A        TXA                             A:FF X:2D Y:10 P:AC SP:2B PPU: 89, 76 CYC:5373
C078  48        PHA                             A:2D X:2D Y:10 P:2C SP:2B PPU: 89, 76 CYC:5375
C079  98        TYA                             A:2D X:2D Y:10 P:2C SP:2A PPU:105, 76 CYC:5378
C07A  48        PHA                             A:10 X:2D Y:10 P:2C SP:2A PPU:105, 76 CYC:5380
C07B  A5 10     LDA $10 = 91                    A:10 X:2D Y:10 P:2C SP:29 PPU:113, 76 CYC:5383
C07D  A6 DE     LDX $DE = 00                    A:91 X:2D Y:10 P:AC SP:29 PPU:129, 76 CYC:5386
C07F  F0 02     BEQ $C083                       A:91 X:00 Y:10 P:2E SP:29 PPU:137, 76 CYC:5389
C083  29 7F     AND #$7F                        A:91 X:00 Y:10 P:2E SP:29 PPU:145, 76 CYC:5392
C085  20 48 C1  JSR $C148                       A:11 X:00 Y:10 P:2C SP:29 PPU:153, 76 CYC:5394
C148  85 10     STA $10 = 91                    A:11 X:00 Y:10 P:2C SP:27 PPU:169, 76 CYC:5400
C14A  8D 00 20  STA $2000 = 91                  A:11 X:00 Y:10 P:2C SP:27 PPU:177, 76 CYC:5403
C14D  60        RTS                             A:11 X:00 Y:10 P:2C SP:27 PPU:185, 76 CYC:5407
C088  A5 52     LDA $52 = 00                    A:11 X:00 Y:10 P:2C SP:29 PPU:209, 76 CYC:5413
C08A  D0 09     BNE $C095                       A:00 X:00 Y:10 P:2E SP:29 PPU:217, 76 CYC:5416
C08C  A5 11     LDA $11 = 0F                    A:00 X:00 Y:10 P:2E SP:29 PPU:225, 76 CYC:5418
C08E  09 1E     ORA #$1E                        A:0F X:00 Y:10 P:2C SP:29 PPU:233, 76 CYC:5421
C090  8D 01 20  STA $2001 = 0F                  A:1F X:00 Y:10 P:2C SP:29 PPU:233, 76 CYC:5423
C093  85 11     STA $11 = 0F                    A:1F X:00 Y:10 P:2C SP:29 PPU:249, 76 CYC:5427
C095  A9 00     LDA #$00                        A:1F X:00 Y:10 P:2C SP:29 PPU:257, 76 CYC:5430
C097  8D 03 20  STA $2003 = 00                  A:00 X:00 Y:10 P:2E SP:29 PPU:265, 76 CYC:5432
C09A  A9 02     LDA #$02                        A:00 X:00 Y:10 P:2E SP:29 PPU:273, 76 CYC:5436
C09C  8D 14 40  STA $4014 = 00                  A:02 X:00 Y:10 P:2C SP:29 PPU:281, 76 CYC:5438
C09F  A6 52     LDX $52 = 00                    A:02 X:00 Y:10 P:2C SP:29 PPU:105, 81 CYC:5955
C0A1  20 50 C1  JSR $C150                       A:02 X:00 Y:10 P:2E SP:29 PPU:113, 81 CYC:5958
C150  BD 00 C0  LDA $C000,X @ C000 = 01         A:02 X:00 Y:10 P:2E SP:27 PPU:137, 81 CYC:5964
C153  85 00     STA $00 = 00                    A:01 X:00 Y:10 P:2C SP:27 PPU:145, 81 CYC:5968
C155  BD 0A C0  LDA $C00A,X @ C00A = 03         A:01 X:00 Y:10 P:2C SP:27 PPU:153, 81 CYC:5971
C158  85 01     STA $01 = 7F                    A:03 X:00 Y:10 P:2C SP:27 PPU:169, 81 CYC:5975
C15A  20 78 CB  JSR $CB78                       A:03 X:00 Y:10 P:2C SP:27 PPU:177, 81 CYC:5978
CB78  AE 02 20  LDX $2002 = 00                  A:03 X:00 Y:10 P:2C SP:25 PPU:193, 81 CYC:5984
CB7B  A0 00     LDY #$00                        A:03 X:00 Y:10 P:2E SP:25 PPU:209, 81 CYC:5988
CB7D  B1 00     LDA ($00),Y = 0301 @ 0301 = 00  A:03 X:00 Y:00 P:2E SP:25 PPU:209, 81 CYC:5990
CB7F  D0 BD     BNE $CB3E                       A:00 X:00 Y:00 P:2E SP:25 PPU:225, 81 CYC:5995
CB81  A5 12     LDA $12 = 01                    A:00 X:00 Y:00 P:2E SP:25 PPU:233, 81 CYC:5997
CB83  8D 05 20  STA $2005 = 9F                  A:01 X:00 Y:00 P:2C SP:25 PPU:241, 81 CYC:6000
CB86  A5 13     LDA $13 = 9F                    A:01 X:00 Y:00 P:2C SP:25 PPU:257, 81 CYC:6004
CB88  8D 05 20  STA $2005 = 01                  A:9F X:00 Y:00 P:AC SP:25 PPU:265, 81 CYC:6007
CB8B  60        RTS                             A:9F X:00 Y:00 P:AC SP:25 PPU:273, 81 CYC:6011
C15D  A9 00     LDA #$00                        A:9F X:00 Y:00 P:AC SP:27 PPU:297, 81 CYC:6017
C15F  8D 00 03  STA $0300 = 00                  A:00 X:00 Y:00 P:2E SP:27 PPU:297, 81 CYC:6019
C162  8D 01 03  STA $0301 = 00                  A:00 X:00 Y:00 P:2E SP:27 PPU:313, 81 CYC:6023
C165  60        RTS                             A:00 X:00 Y:00 P:2E SP:27 PPU:321, 81 CYC:6027
C0A4  85 52     STA $52 = 00                    A:00 X:00 Y:00 P:2E SP:29 PPU:345, 81 CYC:6033
C0A6  85 DE     STA $DE = 00                    A:00 X:00 Y:00 P:2E SP:29 PPU:  9, 82 CYC:6036
C0A8  A9 3F     LDA #$3F                        A:00 X:00 Y:00 P:2E SP:29 PPU: 17, 82 CYC:6039
C0AA  8D 06 20  STA $2006 = 00                  A:3F X:00 Y:00 P:2C SP:29 PPU: 17, 82 CYC:6041
C0AD  A9 00     LDA #$00                        A:3F X:00 Y:00 P:2C SP:29 PPU: 33, 82 CYC:6045
C0AF  8D 06 20  STA $2006 = 3F                  A:00 X:00 Y:00 P:2E SP:29 PPU: 41, 82 CYC:6047
C0B2  8D 06 20  STA $2006 = 00                  A:00 X:00 Y:00 P:2E SP:29 PPU: 49, 82 CYC:6051
C0B5  8D 06 20  STA $2006 = 00                  A:00 X:00 Y:00 P:2E SP:29 PPU: 65, 82 CYC:6055
C0B8  AD 02 20  LDA $2002 = 00                  A:00 X:00 Y:00 P:2E SP:29 PPU: 73, 82 CYC:6059
C0BB  20 81 CB  JSR $CB81                       A:00 X:00 Y:00 P:2E SP:29 PPU: 89, 82 CYC:6063
CB81  A5 12     LDA $12 = 01                    A:00 X:00 Y:00 P:2E SP:27 PPU:105, 82 CYC:6069
CB83  8D 05 20  STA $2005 = 9F                  A:01 X:00 Y:00 P:2C SP:27 PPU:113, 82 CYC:6072
CB86  A5 13     LDA $13 = 9F                    A:01 X:00 Y:00 P:2C SP:27 PPU:129, 82 CYC:6076
CB88  8D 05 20  STA $2005 = 01                  A:9F X:00 Y:00 P:AC SP:27 PPU:137, 82 CYC:6079
CB8B  60        RTS                             A:9F X:00 Y:00 P:AC SP:27 PPU:145, 82 CYC:6083
C0BE  A5 10     LDA $10 = 11                    A:9F X:00 Y:00 P:AC SP:29 PPU:161, 82 CYC:6089
C0C0  8D 00 20  STA $2000 = 11                  A:11 X:00 Y:00 P:2C SP:29 PPU:177, 82 CYC:6092
C0C3  20 ED CA  JSR $CAED                       A:11 X:00 Y:00 P:2C SP:29 PPU:185, 82 CYC:6096
CAED  20 35 CB  JSR $CB35                       A:11 X:00 Y:00 P:2C SP:27 PPU:201, 82 CYC:6102
CB35  A9 7F     LDA #$7F                        A:11 X:00 Y:00 P:2C SP:25 PPU:225, 82 CYC:6108
CB37  85 01     STA $01 = 03                    A:7F X:00 Y:00 P:2C SP:25 PPU:225, 82 CYC:6110
CB39  A9 80     LDA #$80                        A:7F X:00 Y:00 P:2C SP:25 PPU:233, 82 CYC:6113
CB3B  85 02     STA $02 = 80                    A:80 X:00 Y:00 P:AC SP:25 PPU:241, 82 CYC:6115
CB3D  60        RTS                             A:80 X:00 Y:00 P:AC SP:25 PPU:249, 82 CYC:6118
CAF0  A9 01     LDA #$01                        A:80 X:00 Y:00 P:AC SP:27 PPU:273, 82 CYC:6124
CAF2  8D 16 40  STA $4016 = 00                  A:01 X:00 Y:00 P:2C SP:27 PPU:273, 82 CYC:6126
CAF5  A2 00     LDX #$00                        A:01 X:00 Y:00 P:2C SP:27 PPU:289, 82 CYC:6130
CAF7  A9 00     LDA #$00                        A:01 X:00 Y:00 P:2E SP:27 PPU:297, 82 CYC:6132
CAF9  8D 16 40  STA $4016 = 00                  A:00 X:00 Y:00 P:2E SP:27 PPU:297, 82 CYC:6134
CAFC  20 00 CB  JSR $CB00                       A:00 X:00 Y:00 P:2E SP:27 PPU:313, 82 CYC:6138
CB00  A0 08     LDY #$08                        A:00 X:00 Y:00 P:2E SP:25 PPU:326, 82 CYC:6144
CB02  48        PHA                             A:00 X:00 Y:08 P:2C SP:25 PPU:332, 82 CYC:6146
CB03  BD 16 40  LDA $4016,X @ 4016 = 00         A:00 X:00 Y:08 P:2C SP:24 PPU:345, 82 CYC:6149
CB06  85 00     STA $00 = 01                    A:00 X:00 Y:08 P:2E SP:24 PPU:  9, 83 CYC:6153
CB08  4A        LSR A                           A:00 X:00 Y:08 P:2E SP:24 PPU: 17, 83 CYC:6156
CB09  05 00     ORA $00 = 00                    A:00 X:00 Y:08 P:2E SP:24 PPU: 25, 83 CYC:6158
CB0B  4A        LSR A                           A:00 X:00 Y:08 P:2E SP:24 PPU: 33, 83 CYC:6161
CB0C  68        PLA                             A:00 X:00 Y:08 P:2E SP:24 PPU: 41, 83 CYC:6163
CB0D  2A        ROL A                           A:00 X:00 Y:08 P:2E SP:25 PPU: 57, 83 CYC:6167
CB0E  88        DEY                             A:00 X:00 Y:08 P:2E SP:25 PPU: 57, 83 CYC:6169
CB0F  D0 F1     BNE $CB02                       A:00 X:00 Y:07 P:2C SP:25 PPU: 65, 83 CYC:6171
CB02  48        PHA                             A:00 X:00 Y:07 P:2C SP:25 PPU: 73, 83 CYC:6174
CB03  BD 16 40  LDA $4016,X @ 4016 = 00         A:00 X:00 Y:07 P:2C SP:24 PPU: 81, 83 CYC:6177
CB06  85 00     STA $00 = 00                    A:00 X:00 Y:07 P:2E SP:24 PPU: 97, 83 CYC:6181
CB08  4A        LSR A                           A:00 X:00 Y:07 P:2E SP:24 PPU:105, 83 CYC:6184
CB09  05 00     ORA $00 = 00                    A:00 X:00 Y:07 P:2E SP:24 PPU:113, 83 CYC:6186
CB0B  4A        LSR A                           A:00 X:00 Y:07 P:2E SP:24 PPU:121, 83 CYC:6189
CB0C  68        PLA                             A:00 X:00 Y:07 P:2E SP:24 PPU:129, 83 CYC:6191
CB0D  2A        ROL A                           A:00 X:00 Y:07 P:2E SP:25 PPU:137, 83 CYC:6195
CB0E  88        DEY                             A:00 X:00 Y:07 P:2E SP:25 PPU:145, 83 CYC:6197
CB0F  D0 F1     BNE $CB02                       A:00 X:00 Y:06 P:2C SP:25 PPU:153, 83 CYC:6199
CB02  48        PHA                             A:00 X:00 Y:06 P:2C SP:25 PPU:161, 83 CYC:6202
CB03  BD 16 40  LDA $4016,X @ 4016 = 00         A:00 X:00 Y:06 P:2C SP:24 PPU:169, 83 CYC:6205
CB06  85 00     STA $00 = 00                    A:00 X:00 Y:06 P:2E SP:24 PPU:177, 83 CYC:6209
CB08  4A        LSR A                           A:00 X:00 Y:06 P:2E SP:24 PPU:185, 83 CYC:6212
CB09  05 00     ORA $00 = 00                    A:00 X:00 Y:06 P:2E SP:24 PPU:193, 83 CYC:6214
CB0B  4A        LSR A                           A:00 X:00 Y:06 P:2E SP:24 PPU:201, 83 CYC:6217
CB0C  68        PLA                             A:00 X:00 Y:06 P:2E SP:24 PPU:209, 83 CYC:6219
CB0D  2A        ROL A                           A:00 X:00 Y:06 P:2E SP:25 PPU:225, 83 CYC:6223
CB0E  88        DEY                             A:00 X:00 Y:06 P:2E SP:25 PPU:225, 83 CYC:6225
CB0F  D0 F1     BNE $CB02                       A:00 X:00 Y:05 P:2C SP:25 PPU:233, 83 CYC:6227
CB02  48        PHA                             A:00 X:00 Y:05 P:2C SP:25 PPU:241, 83 CYC:6230
CB03  BD 16 40  LDA $4016,X @ 4016 = 00         A:00 X:00 Y:05 P:2C SP:24 PPU:249, 83 CYC:6233
CB06  85 00     STA $00 = 00                    A:00 X:00 Y:05 P:2E SP:24 PPU:265, 83 CYC:6237
CB08  4A        LSR A                           A:00 X:00 Y:05 P:2E SP:24 PPU:273, 83 CYC:6240
CB09  05 00     ORA $00 = 00                    A:00 X:00 Y:05 P:2E SP:24 PPU:281, 83 CYC:6242
CB0B  4A        LSR A                           A:00 X:00 Y:05 P:2E SP:24 PPU:289, 83 CYC:6245
CB0C  68        PLA                             A:00 X:00 Y:05 P:2E SP:24 PPU:297, 83 CYC:6247
CB0D  2A        ROL A                           A:00 X:00 Y:05 P:2E SP:25 PPU:305, 83 CYC:6251
CB0E  88        DEY                             A:00 X:00 Y:05 P:2E SP:25 PPU:313, 83 CYC:6253
CB0F  D0 F1     BNE $CB02                       A:00 X:00 Y:04 P:2C SP:25 PPU:321, 83 CYC:6255
CB02  48        PHA                             A:00 X:00 Y:04 P:2C SP:25 PPU:323, 83 CYC:6258
CB03  BD 16 40  LDA $4016,X @ 4016 = 00         A:00 X:00 Y:04 P:2C SP:24 PPU:332, 83 CYC:6261
CB06  85 00     STA $00 = 00                    A:00 X:00 Y:04 P:2E SP:24 PPU:345, 83 CYC:6265
CB08  4A        LSR A                           A:00 X:00 Y:04 P:2E SP:24 PPU:  9, 84 CYC:6268
CB09  05 00     ORA $00 = 00                    A:00 X:00 Y:04 P:2E SP:24 PPU: 17, 84 CYC:6270
CB0B  4A        LSR A                           A:00 X:00 Y:04 P:2E SP:24 PPU: 25, 84 CYC:6273
CB0C  68        PLA                             A:00 X:00 Y:04 P:2E SP:24 PPU: 33, 84 CYC:6275
CB0D  2A        ROL A                           A:00 X:00 Y:04 P:2E SP:25 PPU: 41, 84 CYC:6279
CB0E  88        DEY                             A:00 X:00 Y:04 P:2E SP:25 PPU: 49, 84 CYC:6281
CB0F  D0 F1     BNE $CB02                       A:00 X:00 Y:03 P:2C SP:25 PPU: 57, 84 CYC:6283
CB02  48        PHA                             A:00 X:00 Y:03 P:2C SP:25 PPU: 65, 84 CYC:6286
CB03  BD 16 40  LDA $4016,X @ 4016 = 00         A:00 X:00 Y:03 P:2C SP:24 PPU: 73, 84 CYC:6289
CB06  85 00     STA $00 = 00                    A:00 X:00 Y:03 P:2E SP:24 PPU: 89, 84 CYC:6293
CB08  4A        LSR A                           A:00 X:00 Y:03 P:2E SP:24 PPU: 97, 84 CYC:6296
CB09  05 00     ORA $00 = 00                    A:00 X:00 Y:03 P:2E SP:24 PPU:105, 84 CYC:6298
CB0B  4A        LSR A                           A:00 X:00 Y:03 P:2E SP:24 PPU:113, 84 CYC:6301
CB0C  68        PLA                             A:00 X:00 Y:03 P:2E SP:24 PPU:113, 84 CYC:6303
CB0D  2A        ROL A                           A:00 X:00 Y:03 P:2E SP:25 PPU:129, 84 CYC:6307
CB0E  88        DEY                             A:00 X:00 Y:03 P:2E SP:25 PPU:137, 84 CYC:6309
CB0F  D0 F1     BNE $CB02                       A:00 X:00 Y:02 P:2C SP:25 PPU:137, 84 CYC:6311
CB02  48        PHA                             A:00 X:00 Y:02 P:2C SP:25 PPU:153, 84 CYC:6314
CB03  BD 16 40  LDA $4016,X @ 4016 = 00         A:00 X:00 Y:02 P:2C SP:24 PPU:161, 84 CYC:6317
CB06  85 00     STA $00 = 00                    A:00 X:00 Y:02 P:2E SP:24 PPU:169, 84 CYC:6321
CB08  4A        LSR A                           A:00 X:00 Y:02 P:2E SP:24 PPU:177, 84 CYC:6324
CB09  05 00     ORA $00 = 00                    A:00 X:00 Y:02 P:2E SP:24 PPU:185, 84 CYC:6326
CB0B  4A        LSR A                           A:00 X:00 Y:02 P:2E SP:24 PPU:193, 84 CYC:6329
CB0C  68        PLA                             A:00 X:00 Y:02 P:2E SP:24 PPU:201, 84 CYC:6331
CB0D  2A        ROL A                           A:00 X:00 Y:02 P:2E SP:25 PPU:209, 84 CYC:6335
CB0E  88        DEY                             A:00 X:00 Y:02 P:2E SP:25 PPU:217, 84 CYC:6337
CB0F  D0 F1     BNE $CB02                       A:00 X:00 Y:01 P:2C SP:25 PPU:225, 84 CYC:6339
CB02  48        PHA                             A:00 X:00 Y:01 P:2C SP:25 PPU:233, 84 CYC:6342
CB03  BD 16 40  LDA $4016,X @ 4016 = 00         A:00 X:00 Y:01 P:2C SP:24 PPU:241, 84 CYC:6345
CB06  85 00     STA $00 = 00                    A:00 X:00 Y:01 P:2E SP:24 PPU:257, 84 CYC:6349
CB08  4A        LSR A                           A:00 X:00 Y:01 P:2E SP:24 PPU:265, 84 CYC:6352
CB09  05 00     ORA $00 = 00                    A:00 X:00 Y:01 P:2E SP:24 PPU:273, 84 CYC:6354
CB0B  4A        LSR A                           A:00 X:00 Y:01 P:2E SP:24 PPU:281, 84 CYC:6357
CB0C  68        PLA                             A:00 X:00 Y:01 P:2E SP:24 PPU:281, 84 CYC:6359
CB0D  2A        ROL A                           A:00 X:00 Y:01 P:2E SP:25 PPU:297, 84 CYC:6363
CB0E  88        DEY                             A:00 X:00 Y:01 P:2E SP:25 PPU:305, 84 CYC:6365
CB0F  D0 F1     BNE $CB02                       A:00 X:00 Y:00 P:2E SP:25 PPU:305, 84 CYC:6367
CB11  86 00     STX $00 = 00                    A:00 X:00 Y:00 P:2E SP:25 PPU:313, 84 CYC:6369
CB13  06 00     ASL $00 = 00                    A:00 X:00 Y:00 P:2E SP:25 PPU:321, 84 CYC:6372
CB15  A6 00     LDX $00 = 00                    A:00 X:00 Y:00 P:2E SP:25 PPU:335, 84 CYC:6377
CB17  B4 14     LDY $14,X @ 14 = 00             A:00 X:00 Y:00 P:2E SP:25 PPU:345, 84 CYC:6380
CB19  84 00     STY $00 = 00                    A:00 X:00 Y:00 P:2E SP:25 PPU: 17, 85 CYC:6384
CB1B  95 14     STA $14,X @ 14 = 00             A:00 X:00 Y:00 P:2E SP:25 PPU: 25, 85 CYC:6387
CB1D  95 15     STA $15,X @ 15 = 00             A:00 X:00 Y:00 P:2E SP:25 PPU: 33, 85 CYC:6391
CB1F  A0 04     LDY #$04                        A:00 X:00 Y:00 P:2E SP:25 PPU: 49, 85 CYC:6395
CB21  A5 02     LDA $02 = 80                    A:00 X:00 Y:04 P:2C SP:25 PPU: 57, 85 CYC:6397
CB23  24 00     BIT $00 = 00                    A:80 X:00 Y:04 P:AC SP:25 PPU: 65, 85 CYC:6400
CB25  F0 06     BEQ $CB2D                       A:80 X:00 Y:04 P:2E SP:25 PPU: 73, 85 CYC:6403
CB2D  38        SEC                             A:80 X:00 Y:04 P:2E SP:25 PPU: 81, 85 CYC:6406
CB2E  66 01     ROR $01 = 7F                    A:80 X:00 Y:04 P:2F SP:25 PPU: 89, 85 CYC:6408
CB30  46 02     LSR $02 = 80                    A:80 X:00 Y:04 P:AD SP:25 PPU:105, 85 CYC:6413
CB32  88        DEY                             A:80 X:00 Y:04 P:2C SP:25 PPU:113, 85 CYC:6418
CB33  D0 EC     BNE $CB21                       A:80 X:00 Y:03 P:2C SP:25 PPU:121, 85 CYC:6420
CB21  A5 02     LDA $02 = 40                    A:80 X:00 Y:03 P:2C SP:25 PPU:129, 85 CYC:6423
CB23  24 00     BIT $00 = 00                    A:40 X:00 Y:03 P:2C SP:25 PPU:137, 85 CYC:6426
CB25  F0 06     BEQ $CB2D                       A:40 X:00 Y:03 P:2E SP:25 PPU:153, 85 CYC:6429
CB2D  38        SEC                             A:40 X:00 Y:03 P:2E SP:25 PPU:161, 85 CYC:6432
CB2E  66 01     ROR $01 = BF                    A:40 X:00 Y:03 P:2F SP:25 PPU:161, 85 CYC:6434
CB30  46 02     LSR $02 = 40                    A:40 X:00 Y:03 P:AD SP:25 PPU:177, 85 CYC:6439
CB32  88        DEY                             A:40 X:00 Y:03 P:2C SP:25 PPU:193, 85 CYC:6444
CB33  D0 EC     BNE $CB21                       A:40 X:00 Y:02 P:2C SP:25 PPU:201, 85 CYC:6446
CB21  A5 02     LDA $02 = 20                    A:40 X:00 Y:02 P:2C SP:25 PPU:209, 85 CYC:6449
CB23  24 00     BIT $00 = 00                    A:20 X:00 Y:02 P:2C SP:25 PPU:217, 85 CYC:6452
CB25  F0 06     BEQ $CB2D                       A:20 X:00 Y:02 P:2E SP:25 PPU:225, 85 CYC:6455
CB2D  38        SEC                             A:20 X:00 Y:02 P:2E SP:25 PPU:233, 85 CYC:6458
CB2E  66 01     ROR $01 = DF                    A:20 X:00 Y:02 P:2F SP:25 PPU:241, 85 CYC:6460
CB30  46 02     LSR $02 = 20                    A:20 X:00 Y:02 P:AD SP:25 PPU:257, 85 CYC:6465
CB32  88        DEY                             A:20 X:00 Y:02 P:2C SP:25 PPU:273, 85 CYC:6470
CB33  D0 EC     BNE $CB21                       A:20 X:00 Y:01 P:2C SP:25 PPU:281, 85 CYC:6472
CB21  A5 02     LDA $02 = 10                    A:20 X:00 Y:01 P:2C SP:25 PPU:289, 85 CYC:6475
CB23  24 00     BIT $00 = 00                    A:10 X:00 Y:01 P:2C SP:25 PPU:297, 85 CYC:6478
CB25  F0 06     BEQ $CB2D                       A:10 X:00 Y:01 P:2E SP:25 PPU:305, 85 CYC:6481
CB2D  38        SEC                             A:10 X:00 Y:01 P:2E SP:25 PPU:313, 85 CYC:6484
CB2E  66 01     ROR $01 = EF                    A:10 X:00 Y:01 P:2F SP:25 PPU:321, 85 CYC:6486
CB30  46 02     LSR $02 = 10                    A:10 X:00 Y:01 P:AD SP:25 PPU:332, 85 CYC:6491
CB32  88        DEY                             A:10 X:00 Y:01 P:2C SP:25 PPU:  9, 86 CYC:6496
CB33  D0 EC     BNE $CB21                       A:10 X:00 Y:00 P:2E SP:25 PPU:  9, 86 CYC:6498
CB35  A9 7F     LDA #$7F                        A:10 X:00 Y:00 P:2E SP:25 PPU: 17, 86 CYC:6500
CB37  85 01     STA $01 = F7                    A:7F X:00 Y:00 P:2C SP:25 PPU: 25, 86 CYC:6502
CB39  A9 80     LDA #$80                        A:7F X:00 Y:00 P:2C SP:25 PPU: 33, 86 CYC:6505
CB3B  85 02     STA $02 = 08                    A:80 X:00 Y:00 P:AC SP:25 PPU: 41, 86 CYC:6507
CB3D  60        RTS                             A:80 X:00 Y:00 P:AC SP:25 PPU: 49, 86 CYC:6510
CAFF  E8        INX                             A:80 X:00 Y:00 P:AC SP:27 PPU: 65, 86 CYC:6516
CB00  A0 08     LDY #$08                        A:80 X:01 Y:00 P:2C SP:27 PPU: 73, 86 CYC:6518
CB02  48        PHA                             A:80 X:01 Y:08 P:2C SP:27 PPU: 81, 86 CYC:6520
CB03  BD 16 40  LDA $4016,X @ 4017 = 00         A:80 X:01 Y:08 P:2C SP:26 PPU: 89, 86 CYC:6523
CB06  85 00     STA $00 = 00                    A:00 X:01 Y:08 P:2E SP:26 PPU: 97, 86 CYC:6527
CB08  4A        LSR A                           A:00 X:01 Y:08 P:2E SP:26 PPU:105, 86 CYC:6530
CB09  05 00     ORA $00 = 00                    A:00 X:01 Y:08 P:2E SP:26 PPU:113, 86 CYC:6532
CB0B  4A        LSR A                           A:00 X:01 Y:08 P:2E SP:26 PPU:121, 86 CYC:6535
CB0C  68        PLA                             A:00 X:01 Y:08 P:2E SP:26 PPU:129, 86 CYC:6537
CB0D  2A        ROL A                           A:80 X:01 Y:08 P:AC SP:27 PPU:137, 86 CYC:6541
CB0E  88        DEY                             A:00 X:01 Y:08 P:2F SP:27 PPU:145, 86 CYC:6543
CB0F  D0 F1     BNE $CB02                       A:00 X:01 Y:07 P:2D SP:27 PPU:153, 86 CYC:6545
CB02  48        PHA                             A:00 X:01 Y:07 P:2D SP:27 PPU:161, 86 CYC:6548
CB03  BD 16 40  LDA $4016,X @ 4017 = 00         A:00 X:01 Y:07 P:2D SP:26 PPU:169, 86 CYC:6551
CB06  85 00     STA $00 = 00                    A:00 X:01 Y:07 P:2F SP:26 PPU:185, 86 CYC:6555
CB08  4A        LSR A                           A:00 X:01 Y:07 P:2F SP:26 PPU:193, 86 CYC:6558
CB09  05 00     ORA $00 = 00                    A:00 X:01 Y:07 P:2E SP:26 PPU:201, 86 CYC:6560
CB0B  4A        LSR A                           A:00 X:01 Y:07 P:2E SP:26 PPU:209, 86 CYC:6563
CB0C  68        PLA                             A:00 X:01 Y:07 P:2E SP:26 PPU:209, 86 CYC:6565
CB0D  2A        ROL A                           A:00 X:01 Y:07 P:2E SP:27 PPU:225, 86 CYC:6569
CB0E  88        DEY                             A:00 X:01 Y:07 P:2E SP:27 PPU:233, 86 CYC:6571
CB0F  D0 F1     BNE $CB02                       A:00 X:01 Y:06 P:2C SP:27 PPU:233, 86 CYC:6573
CB02  48        PHA                             A:00 X:01 Y:06 P:2C SP:27 PPU:249, 86 CYC:6576
CB03  BD 16 40  LDA $4016,X @ 4017 = 00         A:00 X:01 Y:06 P:2C SP:26 PPU:257, 86 CYC:6579
CB06  85 00     STA $00 = 00                    A:00 X:01 Y:06 P:2E SP:26 PPU:265, 86 CYC:6583
CB08  4A        LSR A                           A:00 X:01 Y:06 P:2E SP:26 PPU:273, 86 CYC:6586
CB09  05 00     ORA $00 = 00                    A:00 X:01 Y:06 P:2E SP:26 PPU:281, 86 CYC:6588
CB0B  4A        LSR A                           A:00 X:01 Y:06 P:2E SP:26 PPU:289, 86 CYC:6591
CB0C  68        PLA                             A:00 X:01 Y:06 P:2E SP:26 PPU:297, 86 CYC:6593
CB0D  2A        ROL A                           A:00 X:01 Y:06 P:2E SP:27 PPU:305, 86 CYC:6597
CB0E  88        DEY                             A:00 X:01 Y:06 P:2E SP:27 PPU:313, 86 CYC:6599
CB0F  D0 F1     BNE $CB02                       A:00 X:01 Y:05 P:2C SP:27 PPU:321, 86 CYC:6601
CB02  48        PHA                             A:00 X:01 Y:05 P:2C SP:27 PPU:326, 86 CYC:6604
CB03  BD 16 40  LDA $4016,X @ 4017 = 00         A:00 X:01 Y:05 P:2C SP:26 PPU:335, 86 CYC:6607
CB06  85 00     STA $00 = 00                    A:00 X:01 Y:05 P:2E SP:26 PPU:  9, 87 CYC:6611
CB08  4A        LSR A                           A:00 X:01 Y:05 P:2E SP:26 PPU: 17, 87 CYC:6614
CB09  05 00     ORA $00 = 00                    A:00 X:01 Y:05 P:2E SP:26 PPU: 17, 87 CYC:6616
CB0B  4A        LSR A                           A:00 X:01 Y:05 P:2E SP:26 PPU: 33, 87 CYC:6619
CB0C  68        PLA                             A:00 X:01 Y:05 P:2E SP:26 PPU: 33, 87 CYC:6621
CB0D  2A        ROL A                           A:00 X:01 Y:05 P:2E SP:27 PPU: 49, 87 CYC:6625
CB0E  88        DEY                             A:00 X:01 Y:05 P:2E SP:27 PPU: 57, 87 CYC:6627
CB0F  D0 F1     BNE $CB02                       A:00 X:01 Y:04 P:2C SP:27 PPU: 57, 87 CYC:6629
CB02  48        PHA                             A:00 X:01 Y:04 P:2C SP:27 PPU: 65, 87 CYC:6632
CB03  BD 16 40  LDA $4016,X @ 4017 = 00         A:00 X:01 Y:04 P:2C SP:26 PPU: 81, 87 CYC:6635
CB06  85 00     STA $00 = 00                    A:00 X:01 Y:04 P:2E SP:26 PPU: 89, 87 CYC:6639
CB08  4A        LSR A                           A:00 X:01 Y:04 P:2E SP:26 PPU: 97, 87 CYC:6642
CB09  05 00     ORA $00 = 00                    A:00 X:01 Y:04 P:2E SP:26 PPU:105, 87 CYC:6644
CB0B  4A        LSR A                           A:00 X:01 Y:04 P:2E SP:26 PPU:113, 87 CYC:6647
CB0C  68        PLA                             A:00 X:01 Y:04 P:2E SP:26 PPU:121, 87 CYC:6649
CB0D  2A        ROL A                           A:00 X:01 Y:04 P:2E SP:27 PPU:129, 87 CYC:6653
CB0E  88        DEY                             A:00 X:01 Y:04 P:2E SP:27 PPU:137, 87 CYC:6655
CB0F  D0 F1     BNE $CB02                       A:00 X:01 Y:03 P:2C SP:27 PPU:145, 87 CYC:6657
CB02  48        PHA                             A:00 X:01 Y:03 P:2C SP:27 PPU:153, 87 CYC:6660
CB03  BD 16 40  LDA $4016,X @ 4017 = 00         A:00 X:01 Y:03 P:2C SP:26 PPU:161, 87 CYC:6663
CB06  85 00     STA $00 = 00                    A:00 X:01 Y:03 P:2E SP:26 PPU:177, 87 CYC:6667
CB08  4A        LSR A                           A:00 X:01 Y:03 P:2E SP:26 PPU:185, 87 CYC:6670
CB09  05 00     ORA $00 = 00                    A:00 X:01 Y:03 P:2E SP:26 PPU:185, 87 CYC:6672
CB0B  4A        LSR A                           A:00 X:01 Y:03 P:2E SP:26 PPU:201, 87 CYC:6675
CB0C  68        PLA                             A:00 X:01 Y:03 P:2E SP:26 PPU:201, 87 CYC:6677
CB0D  2A        ROL A                           A:00 X:01 Y:03 P:2E SP:27 PPU:217, 87 CYC:6681
CB0E  88        DEY                             A:00 X:01 Y:03 P:2E SP:27 PPU:225, 87 CYC:6683
CB0F  D0 F1     BNE $CB02                       A:00 X:01 Y:02 P:2C SP:27 PPU:225, 87 CYC:6685
CB02  48        PHA                             A:00 X:01 Y:02 P:2C SP:27 PPU:233, 87 CYC:6688
CB03  BD 16 40  LDA $4016,X @ 4017 = 00         A:00 X:01 Y:02 P:2C SP:26 PPU:249, 87 CYC:6691
CB06  85 00     STA $00 = 00                    A:00 X:01 Y:02 P:2E SP:26 PPU:257, 87 CYC:6695
CB08  4A        LSR A                           A:00 X:01 Y:02 P:2E SP:26 PPU:265, 87 CYC:6698
CB09  05 00     ORA $00 = 00                    A:00 X:01 Y:02 P:2E SP:26 PPU:273, 87 CYC:6700
CB0B  4A        LSR A                           A:00 X:01 Y:02 P:2E SP:26 PPU:281, 87 CYC:6703
CB0C  68        PLA                             A:00 X:01 Y:02 P:2E SP:26 PPU:289, 87 CYC:6705
CB0D  2A        ROL A                           A:00 X:01 Y:02 P:2E SP:27 PPU:297, 87 CYC:6709
CB0E  88        DEY                             A:00 X:01 Y:02 P:2E SP:27 PPU:305, 87 CYC:6711
CB0F  D0 F1     BNE $CB02                       A:00 X:01 Y:01 P:2C SP:27 PPU:313, 87 CYC:6713
CB02  48        PHA                             A:00 X:01 Y:01 P:2C SP:27 PPU:321, 87 CYC:6716
CB03  BD 16 40  LDA $4016,X @ 4017 = 00         A:00 X:01 Y:01 P:2C SP:26 PPU:326, 87 CYC:6719
CB06  85 00     STA $00 = 00                    A:00 X:01 Y:01 P:2E SP:26 PPU:345, 87 CYC:6723
CB08  4A        LSR A                           A:00 X:01 Y:01 P:2E SP:26 PPU:  9, 88 CYC:6726
CB09  05 00     ORA $00 = 00                    A:00 X:01 Y:01 P:2E SP:26 PPU:  9, 88 CYC:6728
CB0B  4A        LSR A                           A:00 X:01 Y:01 P:2E SP:26 PPU: 17, 88 CYC:6731
CB0C  68        PLA                             A:00 X:01 Y:01 P:2E SP:26 PPU: 25, 88 CYC:6733
CB0D  2A        ROL A                           A:00 X:01 Y:01 P:2E SP:27 PPU: 41, 88 CYC:6737
CB0E  88        DEY                             A:00 X:01 Y:01 P:2E SP:27 PPU: 41, 88 CYC:6739
CB0F  D0 F1     BNE $CB02                       A:00 X:01 Y:00 P:2E SP:27 PPU: 49, 88 CYC:6741
CB11  86 00     STX $00 = 00                    A:00 X:01 Y:00 P:2E SP:27 PPU: 57, 88 CYC:6743
CB13  06 00     ASL $00 = 01                    A:00 X:01 Y:00 P:2E SP:27 PPU: 65, 88 CYC:6746
CB15  A6 00     LDX $00 = 02                    A:00 X:01 Y:00 P:2C SP:27 PPU: 81, 88 CYC:6751
CB17  B4 14     LDY $14,X @ 16 = 00             A:00 X:02 Y:00 P:2C SP:27 PPU: 89, 88 CYC:6754
CB19  84 00     STY $00 = 02                    A:00 X:02 Y:00 P:2E SP:27 PPU:105, 88 CYC:6758
CB1B  95 14     STA $14,X @ 16 = 00             A:00 X:02 Y:00 P:2E SP:27 PPU:113, 88 CYC:6761
CB1D  95 15     STA $15,X @ 17 = 00             A:00 X:02 Y:00 P:2E SP:27 PPU:121, 88 CYC:6765
CB1F  A0 04     LDY #$04                        A:00 X:02 Y:00 P:2E SP:27 PPU:137, 88 CYC:6769
CB21  A5 02     LDA $02 = 80                    A:00 X:02 Y:04 P:2C SP:27 PPU:137, 88 CYC:6771
CB23  24 00     BIT $00 = 00                    A:80 X:02 Y:04 P:AC SP:27 PPU:153, 88 CYC:6774
CB25  F0 06     BEQ $CB2D                       A:80 X:02 Y:04 P:2E SP:27 PPU:161, 88 CYC:6777
CB2D  38        SEC                             A:80 X:02 Y:04 P:2E SP:27 PPU:169, 88 CYC:6780
CB2E  66 01     ROR $01 = 7F                    A:80 X:02 Y:04 P:2F SP:27 PPU:177, 88 CYC:6782
CB30  46 02     LSR $02 = 80                    A:80 X:02 Y:04 P:AD SP:27 PPU:185, 88 CYC:6787
CB32  88        DEY                             A:80 X:02 Y:04 P:2C SP:27 PPU:201, 88 CYC:6792
CB33  D0 EC     BNE $CB21                       A:80 X:02 Y:03 P:2C SP:27 PPU:209, 88 CYC:6794
CB21  A5 02     LDA $02 = 40                    A:80 X:02 Y:03 P:2C SP:27 PPU:217, 88 CYC:6797
CB23  24 00     BIT $00 = 00                    A:40 X:02 Y:03 P:2C SP:27 PPU:225, 88 CYC:6800
CB25  F0 06     BEQ $CB2D                       A:40 X:02 Y:03 P:2E SP:27 PPU:233, 88 CYC:6803
CB2D  38        SEC                             A:40 X:02 Y:03 P:2E SP:27 PPU:249, 88 CYC:6806
CB2E  66 01     ROR $01 = BF                    A:40 X:02 Y:03 P:2F SP:27 PPU:249, 88 CYC:6808
CB30  46 02     LSR $02 = 40                    A:40 X:02 Y:03 P:AD SP:27 PPU:265, 88 CYC:6813
CB32  88        DEY                             A:40 X:02 Y:03 P:2C SP:27 PPU:281, 88 CYC:6818
CB33  D0 EC     BNE $CB21                       A:40 X:02 Y:02 P:2C SP:27 PPU:289, 88 CYC:6820
CB21  A5 02     LDA $02 = 20                    A:40 X:02 Y:02 P:2C SP:27 PPU:297, 88 CYC:6823
CB23  24 00     BIT $00 = 00                    A:20 X:02 Y:02 P:2C SP:27 PPU:305, 88 CYC:6826
CB25  F0 06     BEQ $CB2D                       A:20 X:02 Y:02 P:2E SP:27 PPU:313, 88 CYC:6829
CB2D  38        SEC                             A:20 X:02 Y:02 P:2E SP:27 PPU:321, 88 CYC:6832
CB2E  66 01     ROR $01 = DF                    A:20 X:02 Y:02 P:2F SP:27 PPU:326, 88 CYC:6834
CB30  46 02     LSR $02 = 20                    A:20 X:02 Y:02 P:AD SP:27 PPU:345, 88 CYC:6839
CB32  88        DEY                             A:20 X:02 Y:02 P:2C SP:27 PPU: 17, 89 CYC:6844
CB33  D0 EC     BNE $CB21                       A:20 X:02 Y:01 P:2C SP:27 PPU: 17, 89 CYC:6846
CB21  A5 02     LDA $02 = 10                    A:20 X:02 Y:01 P:2C SP:27 PPU: 33, 89 CYC:6849
CB23  24 00     BIT $00 = 00                    A:10 X:02 Y:01 P:2C SP:27 PPU: 41, 89 CYC:6852
CB25  F0 06     BEQ $CB2D                       A:10 X:02 Y:01 P:2E SP:27 PPU: 49, 89 CYC:6855
CB2D  38        SEC                             A:10 X:02 Y:01 P:2E SP:27 PPU: 57, 89 CYC:6858
CB2E  66 01     ROR $01 = EF                    A:10 X:02 Y:01 P:2F SP:27 PPU: 65, 89 CYC:6860
CB30  46 02     LSR $02 = 10                    A:10 X:02 Y:01 P:AD SP:27 PPU: 81, 89 CYC:6865
CB32  88        DEY                             A:10 X:02 Y:01 P:2C SP:27 PPU: 89, 89 CYC:6870
CB33  D0 EC     BNE $CB21                       A:10 X:02 Y:00 P:2E SP:27 PPU: 97, 89 CYC:6872
CB35  A9 7F     LDA #$7F                        A:10 X:02 Y:00 P:2E SP:27 PPU:105, 89 CYC:6874
CB37  85 01     STA $01 = F7                    A:7F X:02 Y:00 P:2C SP:27 PPU:113, 89 CYC:6876
CB39  A9 80     LDA #$80                        A:7F X:02 Y:00 P:2C SP:27 PPU:121, 89 CYC:6879
CB3B  85 02     STA $02 = 08                    A:80 X:02 Y:00 P:AC SP:27 PPU:129, 89 CYC:6881
CB3D  60        RTS                             A:80 X:02 Y:00 P:AC SP:27 PPU:137, 89 CYC:6884
C0C6  20 1E F9  JSR $F91E                       A:80 X:02 Y:00 P:AC SP:29 PPU:153, 89 CYC:6890
F91E  A9 FF     LDA #$FF                        A:80 X:02 Y:00 P:AC SP:27 PPU:169, 89 CYC:6896
F920  8D 17 40  STA $4017 = 00                  A:FF X:02 Y:00 P:AC SP:27 PPU:177, 89 CYC:6898
F923  20 EB F9  JSR $F9EB                       A:FF X:02 Y:00 P:AC SP:27 PPU:185, 89 CYC:6902
F9EB  A4 FF     LDY $FF = 00                    A:FF X:02 Y:00 P:AC SP:25 PPU:209, 89 CYC:6908
F9ED  A5 F0     LDA $F0 = 00                    A:FF X:02 Y:00 P:2E SP:25 PPU:217, 89 CYC:6911
F9EF  46 FF     LSR $FF = 00                    A:00 X:02 Y:00 P:2E SP:25 PPU:225, 89 CYC:6914
F9F1  B0 B8     BCS $F9AB                       A:00 X:02 Y:00 P:2E SP:25 PPU:241, 89 CYC:6919
F9F3  4A        LSR A                           A:00 X:02 Y:00 P:2E SP:25 PPU:249, 89 CYC:6921
F9F4  B0 BB     BCS $F9B1                       A:00 X:02 Y:00 P:2E SP:25 PPU:249, 89 CYC:6923
F9F6  46 FF     LSR $FF = 00                    A:00 X:02 Y:00 P:2E SP:25 PPU:257, 89 CYC:6925
F9F8  B0 CE     BCS $F9C8                       A:00 X:02 Y:00 P:2E SP:25 PPU:273, 89 CYC:6930
F9FA  4A        LSR A                           A:00 X:02 Y:00 P:2E SP:25 PPU:281, 89 CYC:6932
F9FB  B0 D3     BCS $F9D0                       A:00 X:02 Y:00 P:2E SP:25 PPU:281, 89 CYC:6934
F9FD  46 FF     LSR $FF = 00                    A:00 X:02 Y:00 P:2E SP:25 PPU:289, 89 CYC:6936
F9FF  B0 0B     BCS $FA0C                       A:00 X:02 Y:00 P:2E SP:25 PPU:305, 89 CYC:6941
FA01  4A        LSR A                           A:00 X:02 Y:00 P:2E SP:25 PPU:313, 89 CYC:6943
FA02  B0 17     BCS $FA1B                       A:00 X:02 Y:00 P:2E SP:25 PPU:321, 89 CYC:6945
FA04  46 FF     LSR $FF = 00                    A:00 X:02 Y:00 P:2E SP:25 PPU:321, 89 CYC:6947
FA06  B0 38     BCS $FA40                       A:00 X:02 Y:00 P:2E SP:25 PPU:335, 89 CYC:6952
FA08  4A        LSR A                           A:00 X:02 Y:00 P:2E SP:25 PPU:345, 89 CYC:6954
FA09  B0 3F     BCS $FA4A                       A:00 X:02 Y:00 P:2E SP:25 PPU:  9, 90 CYC:6956
FA0B  60        RTS                             A:00 X:02 Y:00 P:2E SP:25 PPU:  9, 90 CYC:6958
F926  20 C4 FA  JSR $FAC4                       A:00 X:02 Y:00 P:2E SP:27 PPU: 33, 90 CYC:6964
FAC4  A4 FE     LDY $FE = 00                    A:00 X:02 Y:00 P:2E SP:25 PPU: 49, 90 CYC:6970
FAC6  A5 F1     LDA $F1 = 00                    A:00 X:02 Y:00 P:2E SP:25 PPU: 57, 90 CYC:6973
FAC8  46 FE     LSR $FE = 00                    A:00 X:02 Y:00 P:2E SP:25 PPU: 65, 90 CYC:6976
FACA  B0 98     BCS $FA64                       A:00 X:02 Y:00 P:2E SP:25 PPU: 81, 90 CYC:6981
FACC  4A        LSR A                           A:00 X:02 Y:00 P:2E SP:25 PPU: 89, 90 CYC:6983
FACD  B0 9C     BCS $FA6B                       A:00 X:02 Y:00 P:2E SP:25 PPU: 89, 90 CYC:6985
FACF  46 FE     LSR $FE = 00                    A:00 X:02 Y:00 P:2E SP:25 PPU: 97, 90 CYC:6987
FAD1  B0 B0     BCS $FA83                       A:00 X:02 Y:00 P:2E SP:25 PPU:113, 90 CYC:6992
FAD3  4A        LSR A                           A:00 X:02 Y:00 P:2E SP:25 PPU:121, 90 CYC:6994
FAD4  B0 BE     BCS $FA94                       A:00 X:02 Y:00 P:2E SP:25 PPU:129, 90 CYC:6996
FAD6  46 FE     LSR $FE = 00                    A:00 X:02 Y:00 P:2E SP:25 PPU:129, 90 CYC:6998
FAD8  B0 12     BCS $FAEC                       A:00 X:02 Y:00 P:2E SP:25 PPU:145, 90 CYC:7003
FADA  4A        LSR A                           A:00 X:02 Y:00 P:2E SP:25 PPU:153, 90 CYC:7005
FADB  B0 D8     BCS $FAB5                       A:00 X:02 Y:00 P:2E SP:25 PPU:161, 90 CYC:7007
FADD  4A        LSR A                           A:00 X:02 Y:00 P:2E SP:25 PPU:161, 90 CYC:7009
FADE  B0 29     BCS $FB09                       A:00 X:02 Y:00 P:2E SP:25 PPU:169, 90 CYC:7011
FAE0  46 FE     LSR $FE = 00                    A:00 X:02 Y:00 P:2E SP:25 PPU:177, 90 CYC:7013
FAE2  B0 15     BCS $FAF9                       A:00 X:02 Y:00 P:2E SP:25 PPU:193, 90 CYC:7018
FAE4  46 FE     LSR $FE = 00                    A:00 X:02 Y:00 P:2E SP:25 PPU:201, 90 CYC:7020
FAE6  B0 2F     BCS $FB17                       A:00 X:02 Y:00 P:2E SP:25 PPU:209, 90 CYC:7025
FAE8  4A        LSR A                           A:00 X:02 Y:00 P:2E SP:25 PPU:217, 90 CYC:7027
FAE9  B0 CA     BCS $FAB5                       A:00 X:02 Y:00 P:2E SP:25 PPU:225, 90 CYC:7029
FAEB  60        RTS                             A:00 X:02 Y:00 P:2E SP:25 PPU:233, 90 CYC:7031
F929  20 A1 FB  JSR $FBA1                       A:00 X:02 Y:00 P:2E SP:27 PPU:249, 90 CYC:7037
FBA1  A4 FC     LDY $FC = 00                    A:00 X:02 Y:00 P:2E SP:25 PPU:265, 90 CYC:7043
FBA3  A5 F2     LDA $F2 = 00                    A:00 X:02 Y:00 P:2E SP:25 PPU:273, 90 CYC:7046
FBA5  46 FC     LSR $FC = 00                    A:00 X:02 Y:00 P:2E SP:25 PPU:281, 90 CYC:7049
FBA7  B0 C8     BCS $FB71                       A:00 X:02 Y:00 P:2E SP:25 PPU:297, 90 CYC:7054
FBA9  4A        LSR A                           A:00 X:02 Y:00 P:2E SP:25 PPU:305, 90 CYC:7056
FBAA  B0 CC     BCS $FB78                       A:00 X:02 Y:00 P:2E SP:25 PPU:313, 90 CYC:7058
FBAC  46 FC     LSR $FC = 00                    A:00 X:02 Y:00 P:2E SP:25 PPU:321, 90 CYC:7060
FBAE  B0 0B     BCS $FBBB                       A:00 X:02 Y:00 P:2E SP:25 PPU:329, 90 CYC:7065
FBB0  4A        LSR A                           A:00 X:02 Y:00 P:2E SP:25 PPU:335, 90 CYC:7067
FBB1  B0 18     BCS $FBCB                       A:00 X:02 Y:00 P:2E SP:25 PPU:345, 90 CYC:7069
FBB3  46 FC     LSR $FC = 00                    A:00 X:02 Y:00 P:2E SP:25 PPU:  9, 91 CYC:7071
FBB5  B0 24     BCS $FBDB                       A:00 X:02 Y:00 P:2E SP:25 PPU: 17, 91 CYC:7076
FBB7  4A        LSR A                           A:00 X:02 Y:00 P:2E SP:25 PPU: 25, 91 CYC:7078
FBB8  B0 31     BCS $FBEB                       A:00 X:02 Y:00 P:2E SP:25 PPU: 33, 91 CYC:7080
FBBA  60        RTS                             A:00 X:02 Y:00 P:2E SP:25 PPU: 41, 91 CYC:7082
F92C  20 FC FB  JSR $FBFC                       A:00 X:02 Y:00 P:2E SP:27 PPU: 57, 91 CYC:7088
FBFC  A5 FB     LDA $FB = 00                    A:00 X:02 Y:00 P:2E SP:25 PPU: 73, 91 CYC:7094
FBFE  D0 05     BNE $FC05                       A:00 X:02 Y:00 P:2E SP:25 PPU: 81, 91 CYC:7097
FC00  A5 F3     LDA $F3 = 00                    A:00 X:02 Y:00 P:2E SP:25 PPU: 89, 91 CYC:7099
FC02  D0 4D     BNE $FC51                       A:00 X:02 Y:00 P:2E SP:25 PPU: 97, 91 CYC:7102
FC04  60        RTS                             A:00 X:02 Y:00 P:2E SP:25 PPU:105, 91 CYC:7104
F92F  A9 00     LDA #$00                        A:00 X:02 Y:00 P:2E SP:27 PPU:121, 91 CYC:7110
F931  85 FF     STA $FF = 00                    A:00 X:02 Y:00 P:2E SP:27 PPU:129, 91 CYC:7112
F933  85 FE     STA $FE = 00                    A:00 X:02 Y:00 P:2E SP:27 PPU:137, 91 CYC:7115
F935  85 FC     STA $FC = 00                    A:00 X:02 Y:00 P:2E SP:27 PPU:145, 91 CYC:7118
F937  85 FB     STA $FB = 00                    A:00 X:02 Y:00 P:2E SP:27 PPU:153, 91 CYC:7121
F939  AC 11 07  LDY $0711 = 00                  A:00 X:02 Y:00 P:2E SP:27 PPU:161, 91 CYC:7124
F93C  A5 F3     LDA $F3 = 00                    A:00 X:02 Y:00 P:2E SP:27 PPU:177, 91 CYC:7128
F93E  29 0C     AND #$0C                        A:00 X:02 Y:00 P:2E SP:27 PPU:185, 91 CYC:7131
F940  F0 07     BEQ $F949                       A:00 X:02 Y:00 P:2E SP:27 PPU:193, 91 CYC:7133
F949  98        TYA                             A:00 X:02 Y:00 P:2E SP:27 PPU:201, 91 CYC:7136
F94A  F0 03     BEQ $F94F                       A:00 X:02 Y:00 P:2E SP:27 PPU:209, 91 CYC:7138
F94F  8C 11 40  STY $4011 = 00                  A:00 X:02 Y:00 P:2E SP:27 PPU:217, 91 CYC:7141
F952  60        RTS                             A:00 X:02 Y:00 P:2E SP:27 PPU:225, 91 CYC:7145
C0C9  A5 53     LDA $53 = 00                    A:00 X:02 Y:00 P:2E SP:29 PPU:249, 91 CYC:7151
C0CB  F0 06     BEQ $C0D3                       A:00 X:02 Y:00 P:2E SP:29 PPU:257, 91 CYC:7154
C0D3  A5 51     LDA $51 = 01                    A:00 X:02 Y:00 P:2E SP:29 PPU:265, 91 CYC:7157
C0D5  F0 4F     BEQ $C126                       A:01 X:02 Y:00 P:2C SP:29 PPU:273, 91 CYC:7160
C0D7  AE 4C 03  LDX $034C = 02                  A:01 X:02 Y:00 P:2C SP:29 PPU:281, 91 CYC:7162
C0DA  F0 3E     BEQ $C11A                       A:01 X:02 Y:00 P:2C SP:29 PPU:289, 91 CYC:7166
C0DC  CA        DEX                             A:01 X:02 Y:00 P:2C SP:29 PPU:297, 91 CYC:7168
C0DD  F0 24     BEQ $C103                       A:01 X:01 Y:00 P:2C SP:29 PPU:305, 91 CYC:7170
C0DF  CA        DEX                             A:01 X:01 Y:00 P:2C SP:29 PPU:305, 91 CYC:7172
C0E0  D0 1E     BNE $C100                       A:01 X:00 Y:00 P:2E SP:29 PPU:313, 91 CYC:7174
C0E2  A5 11     LDA $11 = 1F                    A:01 X:00 Y:00 P:2E SP:29 PPU:321, 91 CYC:7176
C0E4  29 EF     AND #$EF                        A:1F X:00 Y:00 P:2C SP:29 PPU:326, 91 CYC:7179
C0E6  8D 01 20  STA $2001 = 1F                  A:0F X:00 Y:00 P:2C SP:29 PPU:332, 91 CYC:7181
C0E9  85 11     STA $11 = 1F                    A:0F X:00 Y:00 P:2C SP:29 PPU:345, 91 CYC:7185
C0EB  A5 15     LDA $15 = 00                    A:0F X:00 Y:00 P:2C SP:29 PPU:  9, 92 CYC:7188
C0ED  29 10     AND #$10                        A:00 X:00 Y:00 P:2E SP:29 PPU: 17, 92 CYC:7191
C0EF  F0 47     BEQ $C138                       A:00 X:00 Y:00 P:2E SP:29 PPU: 25, 92 CYC:7193
C138  20 41 C1  JSR $C141                       A:00 X:00 Y:00 P:2E SP:29 PPU: 41, 92 CYC:7197
C141  AD 02 20  LDA $2002 = 0F                  A:00 X:00 Y:00 P:2E SP:27 PPU: 57, 92 CYC:7203
C144  A5 10     LDA $10 = 11                    A:0F X:00 Y:00 P:2C SP:27 PPU: 65, 92 CYC:7207
C146  09 80     ORA #$80                        A:11 X:00 Y:00 P:2C SP:27 PPU: 81, 92 CYC:7210
C148  85 10     STA $10 = 11                    A:91 X:00 Y:00 P:AC SP:27 PPU: 81, 92 CYC:7212
C14A  8D 00 20  STA $2000 = 11                  A:91 X:00 Y:00 P:AC SP:27 PPU: 89, 92 CYC:7215
C14D  60        RTS                             A:91 X:00 Y:00 P:AC SP:27 PPU:105, 92 CYC:7219
C13B  68        PLA                             A:91 X:00 Y:00 P:AC SP:29 PPU:121, 92 CYC:7225
C13C  A8        TAY                             A:10 X:00 Y:00 P:2C SP:2A PPU:137, 92 CYC:7229
C13D  68        PLA                             A:10 X:00 Y:10 P:2C SP:2A PPU:137, 92 CYC:7231
C13E  AA        TAX                             A:2D X:00 Y:10 P:2C SP:2B PPU:153, 92 CYC:7235
C13F  68        PLA                             A:2D X:2D Y:10 P:2C SP:2B PPU:161, 92 CYC:7237
C140  40        RTI                             A:FF X:2D Y:10 P:AC SP:2C PPU:169, 92 CYC:7241
00B9  00        BRK                             A:FF X:2D Y:10 P:A8 SP:2F PPU:185, 92 CYC:7247
C076  48        PHA                             A:FF X:2D Y:10 P:AC SP:2C PPU:209, 92 CYC:7254
C077  8A        TXA                             A:FF X:2D Y:10 P:AC SP:2B PPU:217, 92 CYC:7257
C078  48        PHA                             A:2D X:2D Y:10 P:2C SP:2B PPU:225, 92 CYC:7259
C079  98        TYA                             A:2D X:2D Y:10 P:2C SP:2A PPU:233, 92 CYC:7262
C07A  48        PHA                             A:10 X:2D Y:10 P:2C SP:2A PPU:241, 92 CYC:7264
C07B  A5 10     LDA $10 = 91                    A:10 X:2D Y:10 P:2C SP:29 PPU:249, 92 CYC:7267
C07D  A6 DE     LDX $DE = 00                    A:91 X:2D Y:10 P:AC SP:29 PPU:257, 92 CYC:7270
C07F  F0 02     BEQ $C083                       A:91 X:00 Y:10 P:2E SP:29 PPU:265, 92 CYC:7273
C083  29 7F     AND #$7F                        A:91 X:00 Y:10 P:2E SP:29 PPU:273, 92 CYC:7276
C085  20 48 C1  JSR $C148                       A:11 X:00 Y:10 P:2C SP:29 PPU:281, 92 CYC:7278
C148  85 10     STA $10 = 91                    A:11 X:00 Y:10 P:2C SP:27 PPU:297, 92 CYC:7284
C14A  8D 00 20  STA $2000 = 91                  A:11 X:00 Y:10 P:2C SP:27 PPU:305, 92 CYC:7287
C14D  60        RTS                             A:11 X:00 Y:10 P:2C SP:27 PPU:321, 92 CYC:7291
C088  A5 52     LDA $52 = 00                    A:11 X:00 Y:10 P:2C SP:29 PPU:335, 92 CYC:7297
C08A  D0 09     BNE $C095                       A:00 X:00 Y:10 P:2E SP:29 PPU:345, 92 CYC:7300
C08C  A5 11     LDA $11 = 0F                    A:00 X:00 Y:10 P:2E SP:29 PPU:  9, 93 CYC:7302
C08E  09 1E     ORA #$1E                        A:0F X:00 Y:10 P:2C SP:29 PPU: 17, 93 CYC:7305
C090  8D 01 20  STA $2001 = 0F                  A:1F X:00 Y:10 P:2C SP:29 PPU: 25, 93 CYC:7307
C093  85 11     STA $11 = 0F                    A:1F X:00 Y:10 P:2C SP:29 PPU: 33, 93 CYC:7311
C095  A9 00     LDA #$00                        A:1F X:00 Y:10 P:2C SP:29 PPU: 41, 93 CYC:7314
C097  8D 03 20  STA $2003 = 00                  A:00 X:00 Y:10 P:2E SP:29 PPU: 49, 93 CYC:7316
C09A  A9 02     LDA #$02                        A:00 X:00 Y:10 P:2E SP:29 PPU: 65, 93 CYC:7320
C09C  8D 14 40  STA $4014 = 00                  A:02 X:00 Y:10 P:2C SP:29 PPU: 65, 93 CYC:7322
C09F  A6 52     LDX $52 = 00                    A:02 X:00 Y:10 P:2C SP:29 PPU:241, 97 CYC:7839
C0A1  20 50 C1  JSR $C150                       A:02 X:00 Y:10 P:2E SP:29 PPU:249, 97 CYC:7842
C150  BD 00 C0  LDA $C000,X @ C000 = 01         A:02 X:00 Y:10 P:2E SP:27 PPU:265, 97 CYC:7848
C153  85 00     STA $00 = 00                    A:01 X:00 Y:10 P:2C SP:27 PPU:281, 97 CYC:7852
C155  BD 0A C0  LDA $C00A,X @ C00A = 03         A:01 X:00 Y:10 P:2C SP:27 PPU:289, 97 CYC:7855
C158  85 01     STA $01 = 7F                    A:03 X:00 Y:10 P:2C SP:27 PPU:297, 97 CYC:7859
C15A  20 78 CB  JSR $CB78                       A:03 X:00 Y:10 P:2C SP:27 PPU:305, 97 CYC:7862
CB78  AE 02 20  LDX $2002 = 00                  A:03 X:00 Y:10 P:2C SP:25 PPU:323, 97 CYC:7868
CB7B  A0 00     LDY #$00                        A:03 X:00 Y:10 P:2E SP:25 PPU:335, 97 CYC:7872
CB7D  B1 00     LDA ($00),Y = 0301 @ 0301 = 00  A:03 X:00 Y:00 P:2E SP:25 PPU:345, 97 CYC:7874
CB7F  D0 BD     BNE $CB3E                       A:00 X:00 Y:00 P:2E SP:25 PPU: 17, 98 CYC:7879
CB81  A5 12     LDA $12 = 01                    A:00 X:00 Y:00 P:2E SP:25 PPU: 17, 98 CYC:7881
CB83  8D 05 20  STA $2005 = 9F                  A:01 X:00 Y:00 P:2C SP:25 PPU: 33, 98 CYC:7884
CB86  A5 13     LDA $13 = 9F                    A:01 X:00 Y:00 P:2C SP:25 PPU: 41, 98 CYC:7888
CB88  8D 05 20  STA $2005 = 01                  A:9F X:00 Y:00 P:AC SP:25 PPU: 49, 98 CYC:7891
CB8B  60        RTS                             A:9F X:00 Y:00 P:AC SP:25 PPU: 65, 98 CYC:7895
C15D  A9 00     LDA #$00                        A:9F X:00 Y:00 P:AC SP:27 PPU: 81, 98 CYC:7901
C15F  8D 00 03  STA $0300 = 00                  A:00 X:00 Y:00 P:2E SP:27 PPU: 89, 98 CYC:7903
C162  8D 01 03  STA $0301 = 00                  A:00 X:00 Y:00 P:2E SP:27 PPU: 97, 98 CYC:7907
C165  60        RTS                             A:00 X:00 Y:00 P:2E SP:27 PPU:113, 98 CYC:7911
C0A4  85 52     STA $52 = 00                    A:00 X:00 Y:00 P:2E SP:29 PPU:129, 98 CYC:7917
C0A6  85 DE     STA $DE = 00                    A:00 X:00 Y:00 P:2E SP:29 PPU:137, 98 CYC:7920
C0A8  A9 3F     LDA #$3F                        A:00 X:00 Y:00 P:2E SP:29 PPU:145, 98 CYC:7923
C0AA  8D 06 20  STA $2006 = 00                  A:3F X:00 Y:00 P:2C SP:29 PPU:153, 98 CYC:7925
C0AD  A9 00     LDA #$00                        A:3F X:00 Y:00 P:2C SP:29 PPU:161, 98 CYC:7929
C0AF  8D 06 20  STA $2006 = 3F                  A:00 X:00 Y:00 P:2E SP:29 PPU:169, 98 CYC:7931
C0B2  8D 06 20  STA $2006 = 00                  A:00 X:00 Y:00 P:2E SP:29 PPU:185, 98 CYC:7935
C0B5  8D 06 20  STA $2006 = 00                  A:00 X:00 Y:00 P:2E SP:29 PPU:193, 98 CYC:7939
C0B8  AD 02 20  LDA $2002 = 00                  A:00 X:00 Y:00 P:2E SP:29 PPU:209, 98 CYC:7943
C0BB  20 81 CB  JSR $CB81                       A:00 X:00 Y:00 P:2E SP:29 PPU:217, 98 CYC:7947
CB81  A5 12     LDA $12 = 01                    A:00 X:00 Y:00 P:2E SP:27 PPU:233, 98 CYC:7953
CB83  8D 05 20  STA $2005 = 9F                  A:01 X:00 Y:00 P:2C SP:27 PPU:249, 98 CYC:7956
CB86  A5 13     LDA $13 = 9F                    A:01 X:00 Y:00 P:2C SP:27 PPU:257, 98 CYC:7960
CB88  8D 05 20  STA $2005 = 01                  A:9F X:00 Y:00 P:AC SP:27 PPU:265, 98 CYC:7963
CB8B  60        RTS                             A:9F X:00 Y:00 P:AC SP:27 PPU:281, 98 CYC:7967
C0BE  A5 10     LDA $10 = 11                    A:9F X:00 Y:00 P:AC SP:29 PPU:297, 98 CYC:7973
C0C0  8D 00 20  STA $2000 = 11                  A:11 X:00 Y:00 P:2C SP:29 PPU:305, 98 CYC:7976
C0C3  20 ED CA  JSR $CAED                       A:11 X:00 Y:00 P:2C SP:29 PPU:321, 98 CYC:7980
CAED  20 35 CB  JSR $CB35                       A:11 X:00 Y:00 P:2C SP:27 PPU:332, 98 CYC:7986
CB35  A9 7F     LDA #$7F                        A:11 X:00 Y:00 P:2C SP:25 PPU:  9, 99 CYC:7992
CB37  85 01     STA $01 = 03                    A:7F X:00 Y:00 P:2C SP:25 PPU: 17, 99 CYC:7994
CB39  A9 80     LDA #$80                        A:7F X:00 Y:00 P:2C SP:25 PPU: 25, 99 CYC:7997
CB3B  85 02     STA $02 = 80                    A:80 X:00 Y:00 P:AC SP:25 PPU: 33, 99 CYC:7999
CB3D  60        RTS                             A:80 X:00 Y:00 P:AC SP:25 PPU: 41, 99 CYC:8002
CAF0  A9 01     LDA #$01                        A:80 X:00 Y:00 P:AC SP:27 PPU: 57, 99 CYC:8008
CAF2  8D 16 40  STA $4016 = 00                  A:01 X:00 Y:00 P:2C SP:27 PPU: 65, 99 CYC:8010
CAF5  A2 00     LDX #$00                        A:01 X:00 Y:00 P:2C SP:27 PPU: 73, 99 CYC:8014
CAF7  A9 00     LDA #$00                        A:01 X:00 Y:00 P:2E SP:27 PPU: 81, 99 CYC:8016
CAF9  8D 16 40  STA $4016 = 00                  A:00 X:00 Y:00 P:2E SP:27 PPU: 89, 99 CYC:8018
CAFC  20 00 CB  JSR $CB00                       A:00 X:00 Y:00 P:2E SP:27 PPU: 97, 99 CYC:8022
CB00  A0 08     LDY #$08                        A:00 X:00 Y:00 P:2E SP:25 PPU:113, 99 CYC:8028
CB02  48        PHA                             A:00 X:00 Y:08 P:2C SP:25 PPU:121, 99 CYC:8030
CB03  BD 16 40  LDA $4016,X @ 4016 = 00         A:00 X:00 Y:08 P:2C SP:24 PPU:129, 99 CYC:8033
CB06  85 00     STA $00 = 01                    A:00 X:00 Y:08 P:2E SP:24 PPU:145, 99 CYC:8037
CB08  4A        LSR A                           A:00 X:00 Y:08 P:2E SP:24 PPU:153, 99 CYC:8040
CB09  05 00     ORA $00 = 00                    A:00 X:00 Y:08 P:2E SP:24 PPU:161, 99 CYC:8042
CB0B  4A        LSR A                           A:00 X:00 Y:08 P:2E SP:24 PPU:169, 99 CYC:8045
CB0C  68        PLA                             A:00 X:00 Y:08 P:2E SP:24 PPU:177, 99 CYC:8047
CB0D  2A        ROL A                           A:00 X:00 Y:08 P:2E SP:25 PPU:185, 99 CYC:8051
CB0E  88        DEY                             A:00 X:00 Y:08 P:2E SP:25 PPU:193, 99 CYC:8053
CB0F  D0 F1     BNE $CB02                       A:00 X:00 Y:07 P:2C SP:25 PPU:201, 99 CYC:8055
CB02  48        PHA                             A:00 X:00 Y:07 P:2C SP:25 PPU:209, 99 CYC:8058
CB03  BD 16 40  LDA $4016,X @ 4016 = 00         A:00 X:00 Y:07 P:2C SP:24 PPU:217, 99 CYC:8061
CB06  85 00     STA $00 = 00                    A:00 X:00 Y:07 P:2E SP:24 PPU:225, 99 CYC:8065
CB08  4A        LSR A                           A:00 X:00 Y:07 P:2E SP:24 PPU:233, 99 CYC:8068
CB09  05 00     ORA $00 = 00                    A:00 X:00 Y:07 P:2E SP:24 PPU:241, 99 CYC:8070
CB0B  4A        LSR A                           A:00 X:00 Y:07 P:2E SP:24 PPU:249, 99 CYC:8073
CB0C  68        PLA                             A:00 X:00 Y:07 P:2E SP:24 PPU:257, 99 CYC:8075
CB0D  2A        ROL A                           A:00 X:00 Y:07 P:2E SP:25 PPU:273, 99 CYC:8079
CB0E  88        DEY                             A:00 X:00 Y:07 P:2E SP:25 PPU:273, 99 CYC:8081
CB0F  D0 F1     BNE $CB02                       A:00 X:00 Y:06 P:2C SP:25 PPU:281, 99 CYC:8083
CB02  48        PHA                             A:00 X:00 Y:06 P:2C SP:25 PPU:289, 99 CYC:8086
CB03  BD 16 40  LDA $4016,X @ 4016 = 00         A:00 X:00 Y:06 P:2C SP:24 PPU:297, 99 CYC:8089
CB06  85 00     STA $00 = 00                    A:00 X:00 Y:06 P:2E SP:24 PPU:313, 99 CYC:8093
CB08  4A        LSR A                           A:00 X:00 Y:06 P:2E SP:24 PPU:321, 99 CYC:8096
CB09  05 00     ORA $00 = 00                    A:00 X:00 Y:06 P:2E SP:24 PPU:323, 99 CYC:8098
CB0B  4A        LSR A                           A:00 X:00 Y:06 P:2E SP:24 PPU:332, 99 CYC:8101
CB0C  68        PLA                             A:00 X:00 Y:06 P:2E SP:24 PPU:345, 99 CYC:8103
CB0D  2A        ROL A                           A:00 X:00 Y:06 P:2E SP:25 PPU:  9,100 CYC:8107
CB0E  88        DEY                             A:00 X:00 Y:06 P:2E SP:25 PPU: 17,100 CYC:8109
CB0F  D0 F1     BNE $CB02                       A:00 X:00 Y:05 P:2C SP:25 PPU: 17,100 CYC:8111
CB02  48        PHA                             A:00 X:00 Y:05 P:2C SP:25 PPU: 33,100 CYC:8114
CB03  BD 16 40  LDA $4016,X @ 4016 = 00         A:00 X:00 Y:05 P:2C SP:24 PPU: 41,100 CYC:8117
CB06  85 00     STA $00 = 00                    A:00 X:00 Y:05 P:2E SP:24 PPU: 49,100 CYC:8121
CB08  4A        LSR A                           A:00 X:00 Y:05 P:2E SP:24 PPU: 57,100 CYC:8124
CB09  05 00     ORA $00 = 00                    A:00 X:00 Y:05 P:2E SP:24 PPU: 65,100 CYC:8126
CB0B  4A        LSR A                           A:00 X:00 Y:05 P:2E SP:24 PPU: 73,100 CYC:8129
CB0C  68        PLA                             A:00 X:00 Y:05 P:2E SP:24 PPU: 81,100 CYC:8131
CB0D  2A        ROL A                           A:00 X:00 Y:05 P:2E SP:25 PPU: 89,100 CYC:8135
CB0E  88        DEY                             A:00 X:00 Y:05 P:2E SP:25 PPU: 97,100 CYC:8137
CB0F  D0 F1     BNE $CB02                       A:00 X:00 Y:04 P:2C SP:25 PPU:105,100 CYC:8139
CB02  48        PHA                             A:00 X:00 Y:04 P:2C SP:25 PPU:113,100 CYC:8142
CB03  BD 16 40  LDA $4016,X @ 4016 = 00         A:00 X:00 Y:04 P:2C SP:24 PPU:121,100 CYC:8145
CB06  85 00     STA $00 = 00                    A:00 X:00 Y:04 P:2E SP:24 PPU:137,100 CYC:8149
CB08  4A        LSR A                           A:00 X:00 Y:04 P:2E SP:24 PPU:145,100 CYC:8152
CB09  05 00     ORA $00 = 00                    A:00 X:00 Y:04 P:2E SP:24 PPU:153,100 CYC:8154
CB0B  4A        LSR A                           A:00 X:00 Y:04 P:2E SP:24 PPU:161,100 CYC:8157
CB0C  68        PLA                             A:00 X:00 Y:04 P:2E SP:24 PPU:161,100 CYC:8159
CB0D  2A        ROL A                           A:00 X:00 Y:04 P:2E SP:25 PPU:177,100 CYC:8163
CB0E  88        DEY                             A:00 X:00 Y:04 P:2E SP:25 PPU:185,100 CYC:8165
CB0F  D0 F1     BNE $CB02                       A:00 X:00 Y:03 P:2C SP:25 PPU:185,100 CYC:8167
CB02  48        PHA                             A:00 X:00 Y:03 P:2C SP:25 PPU:201,100 CYC:8170
CB03  BD 16 40  LDA $4016,X @ 4016 = 00         A:00 X:00 Y:03 P:2C SP:24 PPU:209,100 CYC:8173
CB06  85 00     STA $00 = 00                    A:00 X:00 Y:03 P:2E SP:24 PPU:217,100 CYC:8177
CB08  4A        LSR A                           A:00 X:00 Y:03 P:2E SP:24 PPU:225,100 CYC:8180
CB09  05 00     ORA $00 = 00                    A:00 X:00 Y:03 P:2E SP:24 PPU:233,100 CYC:8182
CB0B  4A        LSR A                           A:00 X:00 Y:03 P:2E SP:24 PPU:241,100 CYC:8185
CB0C  68        PLA                             A:00 X:00 Y:03 P:2E SP:24 PPU:249,100 CYC:8187
CB0D  2A        ROL A                           A:00 X:00 Y:03 P:2E SP:25 PPU:257,100 CYC:8191
CB0E  88        DEY                             A:00 X:00 Y:03 P:2E SP:25 PPU:265,100 CYC:8193
CB0F  D0 F1     BNE $CB02                       A:00 X:00 Y:02 P:2C SP:25 PPU:273,100 CYC:8195
CB02  48        PHA                             A:00 X:00 Y:02 P:2C SP:25 PPU:281,100 CYC:8198
CB03  BD 16 40  LDA $4016,X @ 4016 = 00         A:00 X:00 Y:02 P:2C SP:24 PPU:289,100 CYC:8201
CB06  85 00     STA $00 = 00                    A:00 X:00 Y:02 P:2E SP:24 PPU:305,100 CYC:8205
CB08  4A        LSR A                           A:00 X:00 Y:02 P:2E SP:24 PPU:313,100 CYC:8208
CB09  05 00     ORA $00 = 00                    A:00 X:00 Y:02 P:2E SP:24 PPU:321,100 CYC:8210
CB0B  4A        LSR A                           A:00 X:00 Y:02 P:2E SP:24 PPU:323,100 CYC:8213
CB0C  68        PLA                             A:00 X:00 Y:02 P:2E SP:24 PPU:329,100 CYC:8215
CB0D  2A        ROL A                           A:00 X:00 Y:02 P:2E SP:25 PPU:345,100 CYC:8219
CB0E  88        DEY                             A:00 X:00 Y:02 P:2E SP:25 PPU:  9,101 CYC:8221
CB0F  D0 F1     BNE $CB02                       A:00 X:00 Y:01 P:2C SP:25 PPU:  9,101 CYC:8223
CB02  48        PHA                             A:00 X:00 Y:01 P:2C SP:25 PPU: 17,101 CYC:8226
CB03  BD 16 40  LDA $4016,X @ 4016 = 00         A:00 X:00 Y:01 P:2C SP:24 PPU: 33,101 CYC:8229
CB06  85 00     STA $00 = 00                    A:00 X:00 Y:01 P:2E SP:24 PPU: 41,101 CYC:8233
CB08  4A        LSR A                           A:00 X:00 Y:01 P:2E SP:24 PPU: 49,101 CYC:8236
CB09  05 00     ORA $00 = 00                    A:00 X:00 Y:01 P:2E SP:24 PPU: 57,101 CYC:8238
CB0B  4A        LSR A                           A:00 X:00 Y:01 P:2E SP:24 PPU: 65,101 CYC:8241
CB0C  68        PLA                             A:00 X:00 Y:01 P:2E SP:24 PPU: 73,101 CYC:8243
CB0D  2A        ROL A                           A:00 X:00 Y:01 P:2E SP:25 PPU: 81,101 CYC:8247
CB0E  88        DEY                             A:00 X:00 Y:01 P:2E SP:25 PPU: 89,101 CYC:8249
CB0F  D0 F1     BNE $CB02                       A:00 X:00 Y:00 P:2E SP:25 PPU: 97,101 CYC:8251
CB11  86 00     STX $00 = 00                    A:00 X:00 Y:00 P:2E SP:25 PPU:105,101 CYC:8253
CB13  06 00     ASL $00 = 00                    A:00 X:00 Y:00 P:2E SP:25 PPU:113,101 CYC:8256
CB15  A6 00     LDX $00 = 00                    A:00 X:00 Y:00 P:2E SP:25 PPU:129,101 CYC:8261
CB17  B4 14     LDY $14,X @ 14 = 00             A:00 X:00 Y:00 P:2E SP:25 PPU:137,101 CYC:8264
CB19  84 00     STY $00 = 00                    A:00 X:00 Y:00 P:2E SP:25 PPU:145,101 CYC:8268
CB1B  95 14     STA $14,X @ 14 = 00             A:00 X:00 Y:00 P:2E SP:25 PPU:153,101 CYC:8271
CB1D  95 15     STA $15,X @ 15 = 00             A:00 X:00 Y:00 P:2E SP:25 PPU:169,101 CYC:8275
CB1F  A0 04     LDY #$04                        A:00 X:00 Y:00 P:2E SP:25 PPU:177,101 CYC:8279
CB21  A5 02     LDA $02 = 80                    A:00 X:00 Y:04 P:2C SP:25 PPU:185,101 CYC:8281
CB23  24 00     BIT $00 = 00                    A:80 X:00 Y:04 P:AC SP:25 PPU:193,101 CYC:8284
CB25  F0 06     BEQ $CB2D                       A:80 X:00 Y:04 P:2E SP:25 PPU:201,101 CYC:8287
CB2D  38        SEC                             A:80 X:00 Y:04 P:2E SP:25 PPU:209,101 CYC:8290
CB2E  66 01     ROR $01 = 7F                    A:80 X:00 Y:04 P:2F SP:25 PPU:217,101 CYC:8292
CB30  46 02     LSR $02 = 80                    A:80 X:00 Y:04 P:AD SP:25 PPU:233,101 CYC:8297
CB32  88        DEY                             A:80 X:00 Y:04 P:2C SP:25 PPU:249,101 CYC:8302
CB33  D0 EC     BNE $CB21                       A:80 X:00 Y:03 P:2C SP:25 PPU:257,101 CYC:8304
CB21  A5 02     LDA $02 = 40                    A:80 X:00 Y:03 P:2C SP:25 PPU:265,101 CYC:8307
CB23  24 00     BIT $00 = 00                    A:40 X:00 Y:03 P:2C SP:25 PPU:273,101 CYC:8310
CB25  F0 06     BEQ $CB2D                       A:40 X:00 Y:03 P:2E SP:25 PPU:281,101 CYC:8313
CB2D  38        SEC                             A:40 X:00 Y:03 P:2E SP:25 PPU:289,101 CYC:8316
CB2E  66 01     ROR $01 = BF                    A:40 X:00 Y:03 P:2F SP:25 PPU:297,101 CYC:8318
CB30  46 02     LSR $02 = 40                    A:40 X:00 Y:03 P:AD SP:25 PPU:313,101 CYC:8323
CB32  88        DEY                             A:40 X:00 Y:03 P:2C SP:25 PPU:323,101 CYC:8328
CB33  D0 EC     BNE $CB21                       A:40 X:00 Y:02 P:2C SP:25 PPU:329,101 CYC:8330
CB21  A5 02     LDA $02 = 20                    A:40 X:00 Y:02 P:2C SP:25 PPU:345,101 CYC:8333
CB23  24 00     BIT $00 = 00                    A:20 X:00 Y:02 P:2C SP:25 PPU:  9,102 CYC:8336
CB25  F0 06     BEQ $CB2D                       A:20 X:00 Y:02 P:2E SP:25 PPU: 17,102 CYC:8339
CB2D  38        SEC                             A:20 X:00 Y:02 P:2E SP:25 PPU: 25,102 CYC:8342
CB2E  66 01     ROR $01 = DF                    A:20 X:00 Y:02 P:2F SP:25 PPU: 33,102 CYC:8344
CB30  46 02     LSR $02 = 20                    A:20 X:00 Y:02 P:AD SP:25 PPU: 41,102 CYC:8349
CB32  88        DEY                             A:20 X:00 Y:02 P:2C SP:25 PPU: 57,102 CYC:8354
CB33  D0 EC     BNE $CB21                       A:20 X:00 Y:01 P:2C SP:25 PPU: 65,102 CYC:8356
CB21  A5 02     LDA $02 = 10                    A:20 X:00 Y:01 P:2C SP:25 PPU: 73,102 CYC:8359
CB23  24 00     BIT $00 = 00                    A:10 X:00 Y:01 P:2C SP:25 PPU: 81,102 CYC:8362
CB25  F0 06     BEQ $CB2D                       A:10 X:00 Y:01 P:2E SP:25 PPU: 89,102 CYC:8365
CB2D  38        SEC                             A:10 X:00 Y:01 P:2E SP:25 PPU:105,102 CYC:8368
CB2E  66 01     ROR $01 = EF                    A:10 X:00 Y:01 P:2F SP:25 PPU:105,102 CYC:8370
CB30  46 02     LSR $02 = 10                    A:10 X:00 Y:01 P:AD SP:25 PPU:121,102 CYC:8375
CB32  88        DEY                             A:10 X:00 Y:01 P:2C SP:25 PPU:137,102 CYC:8380
CB33  D0 EC     BNE $CB21                       A:10 X:00 Y:00 P:2E SP:25 PPU:145,102 CYC:8382
CB35  A9 7F     LDA #$7F                        A:10 X:00 Y:00 P:2E SP:25 PPU:153,102 CYC:8384
CB37  85 01     STA $01 = F7                    A:7F X:00 Y:00 P:2C SP:25 PPU:153,102 CYC:8386
CB39  A9 80     LDA #$80                        A:7F X:00 Y:00 P:2C SP:25 PPU:161,102 CYC:8389
CB3B  85 02     STA $02 = 08                    A:80 X:00 Y:00 P:AC SP:25 PPU:169,102 CYC:8391
CB3D  60        RTS                             A:80 X:00 Y:00 P:AC SP:25 PPU:177,102 CYC:8394
CAFF  E8        INX                             A:80 X:00 Y:00 P:AC SP:27 PPU:201,102 CYC:8400
CB00  A0 08     LDY #$08                        A:80 X:01 Y:00 P:2C SP:27 PPU:201,102 CYC:8402
CB02  48        PHA                             A:80 X:01 Y:08 P:2C SP:27 PPU:209,102 CYC:8404
CB03  BD 16 40  LDA $4016,X @ 4017 = 00         A:80 X:01 Y:08 P:2C SP:26 PPU:217,102 CYC:8407
CB06  85 00     STA $00 = 00                    A:00 X:01 Y:08 P:2E SP:26 PPU:233,102 CYC:8411
CB08  4A        LSR A                           A:00 X:01 Y:08 P:2E SP:26 PPU:241,102 CYC:8414
CB09  05 00     ORA $00 = 00                    A:00 X:01 Y:08 P:2E SP:26 PPU:249,102 CYC:8416
CB0B  4A        LSR A                           A:00 X:01 Y:08 P:2E SP:26 PPU:257,102 CYC:8419
CB0C  68        PLA                             A:00 X:01 Y:08 P:2E SP:26 PPU:257,102 CYC:8421
CB0D  2A        ROL A                           A:80 X:01 Y:08 P:AC SP:27 PPU:273,102 CYC:8425
CB0E  88        DEY                             A:00 X:01 Y:08 P:2F SP:27 PPU:281,102 CYC:8427
CB0F  D0 F1     BNE $CB02                       A:00 X:01 Y:07 P:2D SP:27 PPU:281,102 CYC:8429
CB02  48        PHA                             A:00 X:01 Y:07 P:2D SP:27 PPU:297,102 CYC:8432
CB03  BD 16 40  LDA $4016,X @ 4017 = 00         A:00 X:01 Y:07 P:2D SP:26 PPU:305,102 CYC:8435
CB06  85 00     STA $00 = 00                    A:00 X:01 Y:07 P:2F SP:26 PPU:313,102 CYC:8439
CB08  4A        LSR A                           A:00 X:01 Y:07 P:2F SP:26 PPU:321,102 CYC:8442
CB09  05 00     ORA $00 = 00                    A:00 X:01 Y:07 P:2E SP:26 PPU:326,102 CYC:8444
CB0B  4A        LSR A                           A:00 X:01 Y:07 P:2E SP:26 PPU:335,102 CYC:8447
CB0C  68        PLA                             A:00 X:01 Y:07 P:2E SP:26 PPU:345,102 CYC:8449
CB0D  2A        ROL A                           A:00 X:01 Y:07 P:2E SP:27 PPU:  9,103 CYC:8453
CB0E  88        DEY                             A:00 X:01 Y:07 P:2E SP:27 PPU: 17,103 CYC:8455
CB0F  D0 F1     BNE $CB02                       A:00 X:01 Y:06 P:2C SP:27 PPU: 25,103 CYC:8457
CB02  48        PHA                             A:00 X:01 Y:06 P:2C SP:27 PPU: 33,103 CYC:8460
CB03  BD 16 40  LDA $4016,X @ 4017 = 00         A:00 X:01 Y:06 P:2C SP:26 PPU: 41,103 CYC:8463
CB06  85 00     STA $00 = 00                    A:00 X:01 Y:06 P:2E SP:26 PPU: 57,103 CYC:8467
CB08  4A        LSR A                           A:00 X:01 Y:06 P:2E SP:26 PPU: 65,103 CYC:8470
CB09  05 00     ORA $00 = 00                    A:00 X:01 Y:06 P:2E SP:26 PPU: 65,103 CYC:8472
CB0B  4A        LSR A                           A:00 X:01 Y:06 P:2E SP:26 PPU: 81,103 CYC:8475
CB0C  68        PLA                             A:00 X:01 Y:06 P:2E SP:26 PPU: 81,103 CYC:8477
CB0D  2A        ROL A                           A:00 X:01 Y:06 P:2E SP:27 PPU: 97,103 CYC:8481
CB0E  88        DEY                             A:00 X:01 Y:06 P:2E SP:27 PPU:105,103 CYC:8483
CB0F  D0 F1     BNE $CB02                       A:00 X:01 Y:05 P:2C SP:27 PPU:105,103 CYC:8485
CB02  48        PHA                             A:00 X:01 Y:05 P:2C SP:27 PPU:113,103 CYC:8488
CB03  BD 16 40  LDA $4016,X @ 4017 = 00         A:00 X:01 Y:05 P:2C SP:26 PPU:129,103 CYC:8491
CB06  85 00     STA $00 = 00                    A:00 X:01 Y:05 P:2E SP:26 PPU:137,103 CYC:8495
CB08  4A        LSR A                           A:00 X:01 Y:05 P:2E SP:26 PPU:145,103 CYC:8498
CB09  05 00     ORA $00 = 00                    A:00 X:01 Y:05 P:2E SP:26 PPU:153,103 CYC:8500
CB0B  4A        LSR A                           A:00 X:01 Y:05 P:2E SP:26 PPU:161,103 CYC:8503
CB0C  68        PLA                             A:00 X:01 Y:05 P:2E SP:26 PPU:169,103 CYC:8505
CB0D  2A        ROL A                           A:00 X:01 Y:05 P:2E SP:27 PPU:177,103 CYC:8509
CB0E  88        DEY                             A:00 X:01 Y:05 P:2E SP:27 PPU:185,103 CYC:8511
CB0F  D0 F1     BNE $CB02                       A:00 X:01 Y:04 P:2C SP:27 PPU:193,103 CYC:8513
CB02  48        PHA                             A:00 X:01 Y:04 P:2C SP:27 PPU:201,103 CYC:8516
CB03  BD 16 40  LDA $4016,X @ 4017 = 00         A:00 X:01 Y:04 P:2C SP:26 PPU:209,103 CYC:8519
CB06  85 00     STA $00 = 00                    A:00 X:01 Y:04 P:2E SP:26 PPU:225,103 CYC:8523
CB08  4A        LSR A                           A:00 X:01 Y:04 P:2E SP:26 PPU:233,103 CYC:8526
CB09  05 00     ORA $00 = 00                    A:00 X:01 Y:04 P:2E SP:26 PPU:233,103 CYC:8528
CB0B  4A        LSR A                           A:00 X:01 Y:04 P:2E SP:26 PPU:249,103 CYC:8531
CB0C  68        PLA                             A:00 X:01 Y:04 P:2E SP:26 PPU:249,103 CYC:8533
CB0D  2A        ROL A                           A:00 X:01 Y:04 P:2E SP:27 PPU:265,103 CYC:8537
CB0E  88        DEY                             A:00 X:01 Y:04 P:2E SP:27 PPU:273,103 CYC:8539
CB0F  D0 F1     BNE $CB02                       A:00 X:01 Y:03 P:2C SP:27 PPU:273,103 CYC:8541
CB02  48        PHA                             A:00 X:01 Y:03 P:2C SP:27 PPU:281,103 CYC:8544
CB03  BD 16 40  LDA $4016,X @ 4017 = 00         A:00 X:01 Y:03 P:2C SP:26 PPU:297,103 CYC:8547
CB06  85 00     STA $00 = 00                    A:00 X:01 Y:03 P:2E SP:26 PPU:305,103 CYC:8551
CB08  4A        LSR A                           A:00 X:01 Y:03 P:2E SP:26 PPU:313,103 CYC:8554
CB09  05 00     ORA $00 = 00                    A:00 X:01 Y:03 P:2E SP:26 PPU:321,103 CYC:8556
CB0B  4A        LSR A                           A:00 X:01 Y:03 P:2E SP:26 PPU:326,103 CYC:8559
CB0C  68        PLA                             A:00 X:01 Y:03 P:2E SP:26 PPU:332,103 CYC:8561
CB0D  2A        ROL A                           A:00 X:01 Y:03 P:2E SP:27 PPU:345,103 CYC:8565
CB0E  88        DEY                             A:00 X:01 Y:03 P:2E SP:27 PPU:  9,104 CYC:8567
CB0F  D0 F1     BNE $CB02                       A:00 X:01 Y:02 P:2C SP:27 PPU: 17,104 CYC:8569
CB02  48        PHA                             A:00 X:01 Y:02 P:2C SP:27 PPU: 25,104 CYC:8572
CB03  BD 16 40  LDA $4016,X @ 4017 = 00         A:00 X:01 Y:02 P:2C SP:26 PPU: 33,104 CYC:8575
CB06  85 00     STA $00 = 00                    A:00 X:01 Y:02 P:2E SP:26 PPU: 41,104 CYC:8579
CB08  4A        LSR A                           A:00 X:01 Y:02 P:2E SP:26 PPU: 57,104 CYC:8582
CB09  05 00     ORA $00 = 00                    A:00 X:01 Y:02 P:2E SP:26 PPU: 57,104 CYC:8584
CB0B  4A        LSR A                           A:00 X:01 Y:02 P:2E SP:26 PPU: 65,104 CYC:8587
CB0C  68        PLA                             A:00 X:01 Y:02 P:2E SP:26 PPU: 73,104 CYC:8589
CB0D  2A        ROL A                           A:00 X:01 Y:02 P:2E SP:27 PPU: 89,104 CYC:8593
CB0E  88        DEY                             A:00 X:01 Y:02 P:2E SP:27 PPU: 89,104 CYC:8595
CB0F  D0 F1     BNE $CB02                       A:00 X:01 Y:01 P:2C SP:27 PPU: 97,104 CYC:8597
CB02  48        PHA                             A:00 X:01 Y:01 P:2C SP:27 PPU:105,104 CYC:8600
CB03  BD 16 40  LDA $4016,X @ 4017 = 00         A:00 X:01 Y:01 P:2C SP:26 PPU:113,104 CYC:8603
CB06  85 00     STA $00 = 00                    A:00 X:01 Y:01 P:2E SP:26 PPU:129,104 CYC:8607
CB08  4A        LSR A                           A:00 X:01 Y:01 P:2E SP:26 PPU:137,104 CYC:8610
CB09  05 00     ORA $00 = 00                    A:00 X:01 Y:01 P:2E SP:26 PPU:145,104 CYC:8612
CB0B  4A        LSR A                           A:00 X:01 Y:01 P:2E SP:26 PPU:153,104 CYC:8615
CB0C  68        PLA                             A:00 X:01 Y:01 P:2E SP:26 PPU:161,104 CYC:8617
CB0D  2A        ROL A                           A:00 X:01 Y:01 P:2E SP:27 PPU:169,104 CYC:8621
CB0E  88        DEY                             A:00 X:01 Y:01 P:2E SP:27 PPU:177,104 CYC:8623
CB0F  D0 F1     BNE $CB02                       A:00 X:01 Y:00 P:2E SP:27 PPU:185,104 CYC:8625
CB11  86 00     STX $00 = 00                    A:00 X:01 Y:00 P:2E SP:27 PPU:185,104 CYC:8627
CB13  06 00     ASL $00 = 01                    A:00 X:01 Y:00 P:2E SP:27 PPU:201,104 CYC:8630
CB15  A6 00     LDX $00 = 02                    A:00 X:01 Y:00 P:2C SP:27 PPU:209,104 CYC:8635
CB17  B4 14     LDY $14,X @ 16 = 00             A:00 X:02 Y:00 P:2C SP:27 PPU:225,104 CYC:8638
CB19  84 00     STY $00 = 02                    A:00 X:02 Y:00 P:2E SP:27 PPU:233,104 CYC:8642
CB1B  95 14     STA $14,X @ 16 = 00             A:00 X:02 Y:00 P:2E SP:27 PPU:241,104 CYC:8645
CB1D  95 15     STA $15,X @ 17 = 00             A:00 X:02 Y:00 P:2E SP:27 PPU:257,104 CYC:8649
CB1F  A0 04     LDY #$04                        A:00 X:02 Y:00 P:2E SP:27 PPU:265,104 CYC:8653
CB21  A5 02     LDA $02 = 80                    A:00 X:02 Y:04 P:2C SP:27 PPU:273,104 CYC:8655
CB23  24 00     BIT $00 = 00                    A:80 X:02 Y:04 P:AC SP:27 PPU:281,104 CYC:8658
CB25  F0 06     BEQ $CB2D                       A:80 X:02 Y:04 P:2E SP:27 PPU:289,104 CYC:8661
CB2D  38        SEC                             A:80 X:02 Y:04 P:2E SP:27 PPU:297,104 CYC:8664
CB2E  66 01     ROR $01 = 7F                    A:80 X:02 Y:04 P:2F SP:27 PPU:305,104 CYC:8666
CB30  46 02     LSR $02 = 80                    A:80 X:02 Y:04 P:AD SP:27 PPU:321,104 CYC:8671
CB32  88        DEY                             A:80 X:02 Y:04 P:2C SP:27 PPU:332,104 CYC:8676
CB33  D0 EC     BNE $CB21                       A:80 X:02 Y:03 P:2C SP:27 PPU:345,104 CYC:8678
CB21  A5 02     LDA $02 = 40                    A:80 X:02 Y:03 P:2C SP:27 PPU:  9,105 CYC:8681
CB23  24 00     BIT $00 = 00                    A:40 X:02 Y:03 P:2C SP:27 PPU: 17,105 CYC:8684
CB25  F0 06     BEQ $CB2D                       A:40 X:02 Y:03 P:2E SP:27 PPU: 25,105 CYC:8687
CB2D  38        SEC                             A:40 X:02 Y:03 P:2E SP:27 PPU: 33,105 CYC:8690
CB2E  66 01     ROR $01 = BF                    A:40 X:02 Y:03 P:2F SP:27 PPU: 41,105 CYC:8692
CB30  46 02     LSR $02 = 40                    A:40 X:02 Y:03 P:AD SP:27 PPU: 57,105 CYC:8697
CB32  88        DEY                             A:40 X:02 Y:03 P:2C SP:27 PPU: 65,105 CYC:8702
CB33  D0 EC     BNE $CB21                       A:40 X:02 Y:02 P:2C SP:27 PPU: 73,105 CYC:8704
CB21  A5 02     LDA $02 = 20                    A:40 X:02 Y:02 P:2C SP:27 PPU: 81,105 CYC:8707
CB23  24 00     BIT $00 = 00                    A:20 X:02 Y:02 P:2C SP:27 PPU: 89,105 CYC:8710
CB25  F0 06     BEQ $CB2D                       A:20 X:02 Y:02 P:2E SP:27 PPU:105,105 CYC:8713
CB2D  38        SEC                             A:20 X:02 Y:02 P:2E SP:27 PPU:113,105 CYC:8716
CB2E  66 01     ROR $01 = DF                    A:20 X:02 Y:02 P:2F SP:27 PPU:113,105 CYC:8718
CB30  46 02     LSR $02 = 20                    A:20 X:02 Y:02 P:AD SP:27 PPU:129,105 CYC:8723
CB32  88        DEY                             A:20 X:02 Y:02 P:2C SP:27 PPU:145,105 CYC:8728
CB33  D0 EC     BNE $CB21                       A:20 X:02 Y:01 P:2C SP:27 PPU:153,105 CYC:8730
CB21  A5 02     LDA $02 = 10                    A:20 X:02 Y:01 P:2C SP:27 PPU:161,105 CYC:8733
CB23  24 00     BIT $00 = 00                    A:10 X:02 Y:01 P:2C SP:27 PPU:169,105 CYC:8736
CB25  F0 06     BEQ $CB2D                       A:10 X:02 Y:01 P:2E SP:27 PPU:177,105 CYC:8739
CB2D  38        SEC                             A:10 X:02 Y:01 P:2E SP:27 PPU:185,105 CYC:8742
CB2E  66 01     ROR $01 = EF                    A:10 X:02 Y:01 P:2F SP:27 PPU:193,105 CYC:8744
CB30  46 02     LSR $02 = 10                    A:10 X:02 Y:01 P:AD SP:27 PPU:209,105 CYC:8749
CB32  88        DEY                             A:10 X:02 Y:01 P:2C SP:27 PPU:225,105 CYC:8754
CB33  D0 EC     BNE $CB21                       A:10 X:02 Y:00 P:2E SP:27 PPU:233,105 CYC:8756
CB35  A9 7F     LDA #$7F                        A:10 X:02 Y:00 P:2E SP:27 PPU:233,105 CYC:8758
CB37  85 01     STA $01 = F7                    A:7F X:02 Y:00 P:2C SP:27 PPU:241,105 CYC:8760
CB39  A9 80     LDA #$80                        A:7F X:02 Y:00 P:2C SP:27 PPU:249,105 CYC:8763
CB3B  85 02     STA $02 = 08                    A:80 X:02 Y:00 P:AC SP:27 PPU:257,105 CYC:8765
CB3D  60        RTS                             A:80 X:02 Y:00 P:AC SP:27 PPU:265,105 CYC:8768
C0C6  20 1E F9  JSR $F91E                       A:80 X:02 Y:00 P:AC SP:29 PPU:281,105 CYC:8774
F91E  A9 FF     LDA #$FF                        A:80 X:02 Y:00 P:AC SP:27 PPU:305,105 CYC:8780
F920  8D 17 40  STA $4017 = 00                  A:FF X:02 Y:00 P:AC SP:27 PPU:305,105 CYC:8782
F923  20 EB F9  JSR $F9EB                       A:FF X:02 Y:00 P:AC SP:27 PPU:321,105 CYC:8786
F9EB  A4 FF     LDY $FF = 00                    A:FF X:02 Y:00 P:AC SP:25 PPU:335,105 CYC:8792
F9ED  A5 F0     LDA $F0 = 00                    A:FF X:02 Y:00 P:2E SP:25 PPU:345,105 CYC:8795
F9EF  46 FF     LSR $FF = 00                    A:00 X:02 Y:00 P:2E SP:25 PPU:  9,106 CYC:8798
F9F1  B0 B8     BCS $F9AB                       A:00 X:02 Y:00 P:2E SP:25 PPU: 25,106 CYC:8803
F9F3  4A        LSR A                           A:00 X:02 Y:00 P:2E SP:25 PPU: 33,106 CYC:8805
F9F4  B0 BB     BCS $F9B1                       A:00 X:02 Y:00 P:2E SP:25 PPU: 41,106 CYC:8807
F9F6  46 FF     LSR $FF = 00                    A:00 X:02 Y:00 P:2E SP:25 PPU: 41,106 CYC:8809
F9F8  B0 CE     BCS $F9C8                       A:00 X:02 Y:00 P:2E SP:25 PPU: 57,106 CYC:8814
F9FA  4A        LSR A                           A:00 X:02 Y:00 P:2E SP:25 PPU: 65,106 CYC:8816
F9FB  B0 D3     BCS $F9D0                       A:00 X:02 Y:00 P:2E SP:25 PPU: 73,106 CYC:8818
F9FD  46 FF     LSR $FF = 00                    A:00 X:02 Y:00 P:2E SP:25 PPU: 81,106 CYC:8820
F9FF  B0 0B     BCS $FA0C                       A:00 X:02 Y:00 P:2E SP:25 PPU: 89,106 CYC:8825
FA01  4A        LSR A                           A:00 X:02 Y:00 P:2E SP:25 PPU: 97,106 CYC:8827
FA02  B0 17     BCS $FA1B                       A:00 X:02 Y:00 P:2E SP:25 PPU:105,106 CYC:8829
FA04  46 FF     LSR $FF = 00                    A:00 X:02 Y:00 P:2E SP:25 PPU:113,106 CYC:8831
FA06  B0 38     BCS $FA40                       A:00 X:02 Y:00 P:2E SP:25 PPU:129,106 CYC:8836
FA08  4A        LSR A                           A:00 X:02 Y:00 P:2E SP:25 PPU:129,106 CYC:8838
FA09  B0 3F     BCS $FA4A                       A:00 X:02 Y:00 P:2E SP:25 PPU:137,106 CYC:8840
FA0B  60        RTS                             A:00 X:02 Y:00 P:2E SP:25 PPU:145,106 CYC:8842
F926  20 C4 FA  JSR $FAC4                       A:00 X:02 Y:00 P:2E SP:27 PPU:161,106 CYC:8848
FAC4  A4 FE     LDY $FE = 00                    A:00 X:02 Y:00 P:2E SP:25 PPU:177,106 CYC:8854
FAC6  A5 F1     LDA $F1 = 00                    A:00 X:02 Y:00 P:2E SP:25 PPU:185,106 CYC:8857
FAC8  46 FE     LSR $FE = 00                    A:00 X:02 Y:00 P:2E SP:25 PPU:201,106 CYC:8860
FACA  B0 98     BCS $FA64                       A:00 X:02 Y:00 P:2E SP:25 PPU:209,106 CYC:8865
FACC  4A        LSR A                           A:00 X:02 Y:00 P:2E SP:25 PPU:217,106 CYC:8867
FACD  B0 9C     BCS $FA6B                       A:00 X:02 Y:00 P:2E SP:25 PPU:225,106 CYC:8869
FACF  46 FE     LSR $FE = 00                    A:00 X:02 Y:00 P:2E SP:25 PPU:233,106 CYC:8871
FAD1  B0 B0     BCS $FA83                       A:00 X:02 Y:00 P:2E SP:25 PPU:249,106 CYC:8876
FAD3  4A        LSR A                           A:00 X:02 Y:00 P:2E SP:25 PPU:249,106 CYC:8878
FAD4  B0 BE     BCS $FA94                       A:00 X:02 Y:00 P:2E SP:25 PPU:257,106 CYC:8880
FAD6  46 FE     LSR $FE = 00                    A:00 X:02 Y:00 P:2E SP:25 PPU:265,106 CYC:8882
FAD8  B0 12     BCS $FAEC                       A:00 X:02 Y:00 P:2E SP:25 PPU:281,106 CYC:8887
FADA  4A        LSR A                           A:00 X:02 Y:00 P:2E SP:25 PPU:281,106 CYC:8889
FADB  B0 D8     BCS $FAB5                       A:00 X:02 Y:00 P:2E SP:25 PPU:289,106 CYC:8891
FADD  4A        LSR A                           A:00 X:02 Y:00 P:2E SP:25 PPU:297,106 CYC:8893
FADE  B0 29     BCS $FB09                       A:00 X:02 Y:00 P:2E SP:25 PPU:305,106 CYC:8895
FAE0  46 FE     LSR $FE = 00                    A:00 X:02 Y:00 P:2E SP:25 PPU:305,106 CYC:8897
FAE2  B0 15     BCS $FAF9                       A:00 X:02 Y:00 P:2E SP:25 PPU:321,106 CYC:8902
FAE4  46 FE     LSR $FE = 00                    A:00 X:02 Y:00 P:2E SP:25 PPU:326,106 CYC:8904
FAE6  B0 2F     BCS $FB17                       A:00 X:02 Y:00 P:2E SP:25 PPU:345,106 CYC:8909
FAE8  4A        LSR A                           A:00 X:02 Y:00 P:2E SP:25 PPU:  9,107 CYC:8911
FAE9  B0 CA     BCS $FAB5                       A:00 X:02 Y:00 P:2E SP:25 PPU:  9,107 CYC:8913
FAEB  60        RTS                             A:00 X:02 Y:00 P:2E SP:25 PPU: 17,107 CYC:8915
F929  20 A1 FB  JSR $FBA1                       A:00 X:02 Y:00 P:2E SP:27 PPU: 33,107 CYC:8921
FBA1  A4 FC     LDY $FC = 00                    A:00 X:02 Y:00 P:2E SP:25 PPU: 57,107 CYC:8927
FBA3  A5 F2     LDA $F2 = 00                    A:00 X:02 Y:00 P:2E SP:25 PPU: 65,107 CYC:8930
FBA5  46 FC     LSR $FC = 00                    A:00 X:02 Y:00 P:2E SP:25 PPU: 73,107 CYC:8933
FBA7  B0 C8     BCS $FB71                       A:00 X:02 Y:00 P:2E SP:25 PPU: 89,107 CYC:8938
FBA9  4A        LSR A                           A:00 X:02 Y:00 P:2E SP:25 PPU: 89,107 CYC:8940
FBAA  B0 CC     BCS $FB78                       A:00 X:02 Y:00 P:2E SP:25 PPU: 97,107 CYC:8942
FBAC  46 FC     LSR $FC = 00                    A:00 X:02 Y:00 P:2E SP:25 PPU:105,107 CYC:8944
FBAE  B0 0B     BCS $FBBB                       A:00 X:02 Y:00 P:2E SP:25 PPU:121,107 CYC:8949
FBB0  4A        LSR A                           A:00 X:02 Y:00 P:2E SP:25 PPU:129,107 CYC:8951
FBB1  B0 18     BCS $FBCB                       A:00 X:02 Y:00 P:2E SP:25 PPU:129,107 CYC:8953
FBB3  46 FC     LSR $FC = 00                    A:00 X:02 Y:00 P:2E SP:25 PPU:137,107 CYC:8955
FBB5  B0 24     BCS $FBDB                       A:00 X:02 Y:00 P:2E SP:25 PPU:153,107 CYC:8960
FBB7  4A        LSR A                           A:00 X:02 Y:00 P:2E SP:25 PPU:161,107 CYC:8962
FBB8  B0 31     BCS $FBEB                       A:00 X:02 Y:00 P:2E SP:25 PPU:161,107 CYC:8964
FBBA  60        RTS                             A:00 X:02 Y:00 P:2E SP:25 PPU:169,107 CYC:8966
F92C  20 FC FB  JSR $FBFC                       A:00 X:02 Y:00 P:2E SP:27 PPU:185,107 CYC:8972
FBFC  A5 FB     LDA $FB = 00                    A:00 X:02 Y:00 P:2E SP:25 PPU:209,107 CYC:8978
FBFE  D0 05     BNE $FC05                       A:00 X:02 Y:00 P:2E SP:25 PPU:217,107 CYC:8981
FC00  A5 F3     LDA $F3 = 00                    A:00 X:02 Y:00 P:2E SP:25 PPU:225,107 CYC:8983
FC02  D0 4D     BNE $FC51                       A:00 X:02 Y:00 P:2E SP:25 PPU:233,107 CYC:8986
FC04  60        RTS                             A:00 X:02 Y:00 P:2E SP:25 PPU:233,107 CYC:8988
F92F  A9 00     LDA #$00                        A:00 X:02 Y:00 P:2E SP:27 PPU:257,107 CYC:8994
F931  85 FF     STA $FF = 00                    A:00 X:02 Y:00 P:2E SP:27 PPU:257,107 CYC:8996
F933  85 FE     STA $FE = 00                    A:00 X:02 Y:00 P:2E SP:27 PPU:273,107 CYC:8999
F935  85 FC     STA $FC = 00                    A:00 X:02 Y:00 P:2E SP:27 PPU:281,107 CYC:9002
F937  85 FB     STA $FB = 00                    A:00 X:02 Y:00 P:2E SP:27 PPU:289,107 CYC:9005
F939  AC 11 07  LDY $0711 = 00                  A:00 X:02 Y:00 P:2E SP:27 PPU:297,107 CYC:9008
F93C  A5 F3     LDA $F3 = 00                    A:00 X:02 Y:00 P:2E SP:27 PPU:305,107 CYC:9012
F93E  29 0C     AND #$0C                        A:00 X:02 Y:00 P:2E SP:27 PPU:321,107 CYC:9015
F940  F0 07     BEQ $F949                       A:00 X:02 Y:00 P:2E SP:27 PPU:321,107 CYC:9017
F949  98        TYA                             A:00 X:02 Y:00 P:2E SP:27 PPU:329,107 CYC:9020
F94A  F0 03     BEQ $F94F                       A:00 X:02 Y:00 P:2E SP:27 PPU:335,107 CYC:9022
F94F  8C 11 40  STY $4011 = 00                  A:00 X:02 Y:00 P:2E SP:27 PPU:345,107 CYC:9025
F952  60        RTS                             A:00 X:02 Y:00 P:2E SP:27 PPU: 17,108 CYC:9029
C0C9  A5 53     LDA $53 = 00                    A:00 X:02 Y:00 P:2E SP:29 PPU: 33,108 CYC:9035
C0CB  F0 06     BEQ $C0D3                       A:00 X:02 Y:00 P:2E SP:29 PPU: 41,108 CYC:9038
C0D3  A5 51     LDA $51 = 01                    A:00 X:02 Y:00 P:2E SP:29 PPU: 49,108 CYC:9041
C0D5  F0 4F     BEQ $C126                       A:01 X:02 Y:00 P:2C SP:29 PPU: 57,108 CYC:9044
C0D7  AE 4C 03  LDX $034C = 02                  A:01 X:02 Y:00 P:2C SP:29 PPU: 65,108 CYC:9046
C0DA  F0 3E     BEQ $C11A                       A:01 X:02 Y:00 P:2C SP:29 PPU: 81,108 CYC:9050
C0DC  CA        DEX                             A:01 X:02 Y:00 P:2C SP:29 PPU: 81,108 CYC:9052
C0DD  F0 24     BEQ $C103                       A:01 X:01 Y:00 P:2C SP:29 PPU: 89,108 CYC:9054
C0DF  CA        DEX                             A:01 X:01 Y:00 P:2C SP:29 PPU: 97,108 CYC:9056
C0E0  D0 1E     BNE $C100                       A:01 X:00 Y:00 P:2E SP:29 PPU:105,108 CYC:9058
C0E2  A5 11     LDA $11 = 1F                    A:01 X:00 Y:00 P:2E SP:29 PPU:105,108 CYC:9060
C0E4  29 EF     AND #$EF                        A:1F X:00 Y:00 P:2C SP:29 PPU:113,108 CYC:9063
C0E6  8D 01 20  STA $2001 = 1F                  A:0F X:00 Y:00 P:2C SP:29 PPU:121,108 CYC:9065
C0E9  85 11     STA $11 = 1F                    A:0F X:00 Y:00 P:2C SP:29 PPU:137,108 CYC:9069
C0EB  A5 15     LDA $15 = 00                    A:0F X:00 Y:00 P:2C SP:29 PPU:145,108 CYC:9072
C0ED  29 10     AND #$10                        A:00 X:00 Y:00 P:2E SP:29 PPU:153,108 CYC:9075
C0EF  F0 47     BEQ $C138                       A:00 X:00 Y:00 P:2E SP:29 PPU:161,108 CYC:9077
C138  20 41 C1  JSR $C141                       A:00 X:00 Y:00 P:2E SP:29 PPU:169,108 CYC:9081
C141  AD 02 20  LDA $2002 = 0F                  A:00 X:00 Y:00 P:2E SP:27 PPU:185,108 CYC:9087
C144  A5 10     LDA $10 = 11                    A:0F X:00 Y:00 P:2C SP:27 PPU:201,108 CYC:9091
C146  09 80     ORA #$80                        A:11 X:00 Y:00 P:2C SP:27 PPU:209,108 CYC:9094
C148  85 10     STA $10 = 11                    A:91 X:00 Y:00 P:AC SP:27 PPU:217,108 CYC:9096
C14A  8D 00 20  STA $2000 = 11                  A:91 X:00 Y:00 P:AC SP:27 PPU:225,108 CYC:9099
C14D  60        RTS                             A:91 X:00 Y:00 P:AC SP:27 PPU:233,108 CYC:9103
C13B  68        PLA                             A:91 X:00 Y:00 P:AC SP:29 PPU:257,108 CYC:9109
C13C  A8        TAY                             A:10 X:00 Y:00 P:2C SP:2A PPU:265,108 CYC:9113
C13D  68        PLA                             A:10 X:00 Y:10 P:2C SP:2A PPU:273,108 CYC:9115
C13E  AA        TAX                             A:2D X:00 Y:10 P:2C SP:2B PPU:281,108 CYC:9119
C13F  68        PLA                             A:2D X:2D Y:10 P:2C SP:2B PPU:289,108 CYC:9121
C140  40        RTI                             A:FF X:2D Y:10 P:AC SP:2C PPU:305,108 CYC:9125
00BA  00        BRK                             A:FF X:2D Y:10 P:A8 SP:2F PPU:321,108 CYC:9131
C076  48        PHA                             A:FF X:2D Y:10 P:AC SP:2C PPU:345,108 CYC:9138
C077  8A        TXA                             A:FF X:2D Y:10 P:AC SP:2B PPU:  9,109 CYC:9141
C078  48        PHA                             A:2D X:2D Y:10 P:2C SP:2B PPU:  9,109 CYC:9143
C079  98        TYA                             A:2D X:2D Y:10 P:2C SP:2A PPU: 17,109 CYC:9146
C07A  48        PHA                             A:10 X:2D Y:10 P:2C SP:2A PPU: 25,109 CYC:9148
C07B  A5 10     LDA $10 = 91                    A:10 X:2D Y:10 P:2C SP:29 PPU: 33,109 CYC:9151
C07D  A6 DE     LDX $DE = 00                    A:91 X:2D Y:10 P:AC SP:29 PPU: 41,109 CYC:9154
C07F  F0 02     BEQ $C083                       A:91 X:00 Y:10 P:2E SP:29 PPU: 57,109 CYC:9157
C083  29 7F     AND #$7F                        A:91 X:00 Y:10 P:2E SP:29 PPU: 65,109 CYC:9160
C085  20 48 C1  JSR $C148                       A:11 X:00 Y:10 P:2C SP:29 PPU: 65,109 CYC:9162
C148  85 10     STA $10 = 91                    A:11 X:00 Y:10 P:2C SP:27 PPU: 89,109 CYC:9168
C14A  8D 00 20  STA $2000 = 91                  A:11 X:00 Y:10 P:2C SP:27 PPU: 97,109 CYC:9171
C14D  60        RTS                             A:11 X:00 Y:10 P:2C SP:27 PPU:105,109 CYC:9175
C088  A5 52     LDA $52 = 00                    A:11 X:00 Y:10 P:2C SP:29 PPU:129,109 CYC:9181
C08A  D0 09     BNE $C095                       A:00 X:00 Y:10 P:2E SP:29 PPU:137,109 CYC:9184
C08C  A5 11     LDA $11 = 0F                    A:00 X:00 Y:10 P:2E SP:29 PPU:137,109 CYC:9186
C08E  09 1E     ORA #$1E                        A:0F X:00 Y:10 P:2C SP:29 PPU:153,109 CYC:9189
C090  8D 01 20  STA $2001 = 0F                  A:1F X:00 Y:10 P:2C SP:29 PPU:153,109 CYC:9191
C093  85 11     STA $11 = 0F                    A:1F X:00 Y:10 P:2C SP:29 PPU:169,109 CYC:9195
C095  A9 00     LDA #$00                        A:1F X:00 Y:10 P:2C SP:29 PPU:177,109 CYC:9198
C097  8D 03 20  STA $2003 = 00                  A:00 X:00 Y:10 P:2E SP:29 PPU:185,109 CYC:9200
C09A  A9 02     LDA #$02                        A:00 X:00 Y:10 P:2E SP:29 PPU:193,109 CYC:9204
C09C  8D 14 40  STA $4014 = 00                  A:02 X:00 Y:10 P:2C SP:29 PPU:201,109 CYC:9206
C09F  A6 52     LDX $52 = 00                    A:02 X:00 Y:10 P:2C SP:29 PPU: 25,114 CYC:9723
C0A1  20 50 C1  JSR $C150                       A:02 X:00 Y:10 P:2E SP:29 PPU: 33,114 CYC:9726
C150  BD 00 C0  LDA $C000,X @ C000 = 01         A:02 X:00 Y:10 P:2E SP:27 PPU: 57,114 CYC:9732
C153  85 00     STA $00 = 00                    A:01 X:00 Y:10 P:2C SP:27 PPU: 65,114 CYC:9736
C155  BD 0A C0  LDA $C00A,X @ C00A = 03         A:01 X:00 Y:10 P:2C SP:27 PPU: 73,114 CYC:9739
C158  85 01     STA $01 = 7F                    A:03 X:00 Y:10 P:2C SP:27 PPU: 89,114 CYC:9743
C15A  20 78 CB  JSR $CB78                       A:03 X:00 Y:10 P:2C SP:27 PPU: 97,114 CYC:9746
CB78  AE 02 20  LDX $2002 = 00                  A:03 X:00 Y:10 P:2C SP:25 PPU:113,114 CYC:9752
CB7B  A0 00     LDY #$00                        A:03 X:00 Y:10 P:2E SP:25 PPU:129,114 CYC:9756
CB7D  B1 00     LDA ($00),Y = 0301 @ 0301 = 00  A:03 X:00 Y:00 P:2E SP:25 PPU:129,114 CYC:9758
CB7F  D0 BD     BNE $CB3E                       A:00 X:00 Y:00 P:2E SP:25 PPU:145,114 CYC:9763
CB81  A5 12     LDA $12 = 01                    A:00 X:00 Y:00 P:2E SP:25 PPU:153,114 CYC:9765
CB83  8D 05 20  STA $2005 = 9F                  A:01 X:00 Y:00 P:2C SP:25 PPU:161,114 CYC:9768
CB86  A5 13     LDA $13 = 9F                    A:01 X:00 Y:00 P:2C SP:25 PPU:177,114 CYC:9772
CB88  8D 05 20  STA $2005 = 01                  A:9F X:00 Y:00 P:AC SP:25 PPU:185,114 CYC:9775
CB8B  60        RTS                             A:9F X:00 Y:00 P:AC SP:25 PPU:193,114 CYC:9779
C15D  A9 00     LDA #$00                        A:9F X:00 Y:00 P:AC SP:27 PPU:209,114 CYC:9785
C15F  8D 00 03  STA $0300 = 00                  A:00 X:00 Y:00 P:2E SP:27 PPU:217,114 CYC:9787
C162  8D 01 03  STA $0301 = 00                  A:00 X:00 Y:00 P:2E SP:27 PPU:233,114 CYC:9791
C165  60        RTS                             A:00 X:00 Y:00 P:2E SP:27 PPU:241,114 CYC:9795
C0A4  85 52     STA $52 = 00                    A:00 X:00 Y:00 P:2E SP:29 PPU:257,114 CYC:9801
C0A6  85 DE     STA $DE = 00                    A:00 X:00 Y:00 P:2E SP:29 PPU:273,114 CYC:9804
C0A8  A9 3F     LDA #$3F                        A:00 X:00 Y:00 P:2E SP:29 PPU:281,114 CYC:9807
C0AA  8D 06 20  STA $2006 = 00                  A:3F X:00 Y:00 P:2C SP:29 PPU:281,114 CYC:9809
C0AD  A9 00     LDA #$00                        A:3F X:00 Y:00 P:2C SP:29 PPU:297,114 CYC:9813
C0AF  8D 06 20  STA $2006 = 3F                  A:00 X:00 Y:00 P:2E SP:29 PPU:305,114 CYC:9815
C0B2  8D 06 20  STA $2006 = 00                  A:00 X:00 Y:00 P:2E SP:29 PPU:313,114 CYC:9819
C0B5  8D 06 20  STA $2006 = 00                  A:00 X:00 Y:00 P:2E SP:29 PPU:323,114 CYC:9823
C0B8  AD 02 20  LDA $2002 = 00                  A:00 X:00 Y:00 P:2E SP:29 PPU:335,114 CYC:9827
C0BB  20 81 CB  JSR $CB81                       A:00 X:00 Y:00 P:2E SP:29 PPU:  9,115 CYC:9831
CB81  A5 12     LDA $12 = 01                    A:00 X:00 Y:00 P:2E SP:27 PPU: 25,115 CYC:9837
CB83  8D 05 20  STA $2005 = 9F                  A:01 X:00 Y:00 P:2C SP:27 PPU: 33,115 CYC:9840
CB86  A5 13     LDA $13 = 9F                    A:01 X:00 Y:00 P:2C SP:27 PPU: 41,115 CYC:9844
CB88  8D 05 20  STA $2005 = 01                  A:9F X:00 Y:00 P:AC SP:27 PPU: 57,115 CYC:9847
CB8B  60        RTS                             A:9F X:00 Y:00 P:AC SP:27 PPU: 65,115 CYC:9851
C0BE  A5 10     LDA $10 = 11                    A:9F X:00 Y:00 P:AC SP:29 PPU: 81,115 CYC:9857
C0C0  8D 00 20  STA $2000 = 11                  A:11 X:00 Y:00 P:2C SP:29 PPU: 89,115 CYC:9860
C0C3  20 ED CA  JSR $CAED                       A:11 X:00 Y:00 P:2C SP:29 PPU:105,115 CYC:9864
CAED  20 35 CB  JSR $CB35                       A:11 X:00 Y:00 P:2C SP:27 PPU:121,115 CYC:9870
CB35  A9 7F     LDA #$7F                        A:11 X:00 Y:00 P:2C SP:25 PPU:137,115 CYC:9876
CB37  85 01     STA $01 = 03                    A:7F X:00 Y:00 P:2C SP:25 PPU:145,115 CYC:9878
CB39  A9 80     LDA #$80                        A:7F X:00 Y:00 P:2C SP:25 PPU:153,115 CYC:9881
CB3B  85 02     STA $02 = 80                    A:80 X:00 Y:00 P:AC SP:25 PPU:161,115 CYC:9883
CB3D  60        RTS                             A:80 X:00 Y:00 P:AC SP:25 PPU:169,115 CYC:9886
CAF0  A9 01     LDA #$01                        A:80 X:00 Y:00 P:AC SP:27 PPU:185,115 CYC:9892
CAF2  8D 16 40  STA $4016 = 00                  A:01 X:00 Y:00 P:2C SP:27 PPU:193,115 CYC:9894
CAF5  A2 00     LDX #$00                        A:01 X:00 Y:00 P:2C SP:27 PPU:209,115 CYC:9898
CAF7  A9 00     LDA #$00                        A:01 X:00 Y:00 P:2E SP:27 PPU:209,115 CYC:9900
CAF9  8D 16 40  STA $4016 = 00                  A:00 X:00 Y:00 P:2E SP:27 PPU:217,115 CYC:9902
CAFC  20 00 CB  JSR $CB00                       A:00 X:00 Y:00 P:2E SP:27 PPU:233,115 CYC:9906
CB00  A0 08     LDY #$08                        A:00 X:00 Y:00 P:2E SP:25 PPU:249,115 CYC:9912
CB02  48        PHA                             A:00 X:00 Y:08 P:2C SP:25 PPU:257,115 CYC:9914
CB03  BD 16 40  LDA $4016,X @ 4016 = 00         A:00 X:00 Y:08 P:2C SP:24 PPU:265,115 CYC:9917
CB06  85 00     STA $00 = 01                    A:00 X:00 Y:08 P:2E SP:24 PPU:273,115 CYC:9921
CB08  4A        LSR A                           A:00 X:00 Y:08 P:2E SP:24 PPU:281,115 CYC:9924
CB09  05 00     ORA $00 = 00                    A:00 X:00 Y:08 P:2E SP:24 PPU:289,115 CYC:9926
CB0B  4A        LSR A                           A:00 X:00 Y:08 P:2E SP:24 PPU:297,115 CYC:9929
CB0C  68        PLA                             A:00 X:00 Y:08 P:2E SP:24 PPU:305,115 CYC:9931
CB0D  2A        ROL A                           A:00 X:00 Y:08 P:2E SP:25 PPU:321,115 CYC:9935
CB0E  88        DEY                             A:00 X:00 Y:08 P:2E SP:25 PPU:321,115 CYC:9937
CB0F  D0 F1     BNE $CB02                       A:00 X:00 Y:07 P:2C SP:25 PPU:326,115 CYC:9939
CB02  48        PHA                             A:00 X:00 Y:07 P:2C SP:25 PPU:335,115 CYC:9942
CB03  BD 16 40  LDA $4016,X @ 4016 = 00         A:00 X:00 Y:07 P:2C SP:24 PPU:345,115 CYC:9945
CB06  85 00     STA $00 = 00                    A:00 X:00 Y:07 P:2E SP:24 PPU: 17,116 CYC:9949
CB08  4A        LSR A                           A:00 X:00 Y:07 P:2E SP:24 PPU: 25,116 CYC:9952
CB09  05 00     ORA $00 = 00                    A:00 X:00 Y:07 P:2E SP:24 PPU: 33,116 CYC:9954
CB0B  4A        LSR A                           A:00 X:00 Y:07 P:2E SP:24 PPU: 41,116 CYC:9957
CB0C  68        PLA                             A:00 X:00 Y:07 P:2E SP:24 PPU: 41,116 CYC:9959
CB0D  2A        ROL A                           A:00 X:00 Y:07 P:2E SP:25 PPU: 57,116 CYC:9963
CB0E  88        DEY                             A:00 X:00 Y:07 P:2E SP:25 PPU: 65,116 CYC:9965
CB0F  D0 F1     BNE $CB02                       A:00 X:00 Y:06 P:2C SP:25 PPU: 65,116 CYC:9967
CB02  48        PHA                             A:00 X:00 Y:06 P:2C SP:25 PPU: 81,116 CYC:9970
CB03  BD 16 40  LDA $4016,X @ 4016 = 00         A:00 X:00 Y:06 P:2C SP:24 PPU: 89,116 CYC:9973
CB06  85 00     STA $00 = 00                    A:00 X:00 Y:06 P:2E SP:24 PPU: 97,116 CYC:9977
CB08  4A        LSR A                           A:00 X:00 Y:06 P:2E SP:24 PPU:105,116 CYC:9980
CB09  05 00     ORA $00 = 00                    A:00 X:00 Y:06 P:2E SP:24 PPU:113,116 CYC:9982
CB0B  4A        LSR A                           A:00 X:00 Y:06 P:2E SP:24 PPU:121,116 CYC:9985
CB0C  68        PLA                             A:00 X:00 Y:06 P:2E SP:24 PPU:129,116 CYC:9987
CB0D  2A        ROL A                           A:00 X:00 Y:06 P:2E SP:25 PPU:137,116 CYC:9991
CB0E  88        DEY                             A:00 X:00 Y:06 P:2E SP:25 PPU:145,116 CYC:9993
CB0F  D0 F1     BNE $CB02                       A:00 X:00 Y:05 P:2C SP:25 PPU:153,116 CYC:9995
CB02  48        PHA                             A:00 X:00 Y:05 P:2C SP:25 PPU:161,116 CYC:9998
CB03  BD 16 40  LDA $4016,X @ 4016 = 00         A:00 X:00 Y:05 P:2C SP:24 PPU:169,116 CYC:10001
CB06  85 00     STA $00 = 00                    A:00 X:00 Y:05 P:2E SP:24 PPU:185,116 CYC:10005
CB08  4A        LSR A                           A:00 X:00 Y:05 P:2E SP:24 PPU:193,116 CYC:10008
CB09  05 00     ORA $00 = 00                    A:00 X:00 Y:05 P:2E SP:24 PPU:201,116 CYC:10010
CB0B  4A        LSR A                           A:00 X:00 Y:05 P:2E SP:24 PPU:209,116 CYC:10013
CB0C  68        PLA                             A:00 X:00 Y:05 P:2E SP:24 PPU:209,116 CYC:10015
CB0D  2A        ROL A                           A:00 X:00 Y:05 P:2E SP:25 PPU:225,116 CYC:10019
CB0E  88        DEY                             A:00 X:00 Y:05 P:2E SP:25 PPU:233,116 CYC:10021
CB0F  D0 F1     BNE $CB02                       A:00 X:00 Y:04 P:2C SP:25 PPU:233,116 CYC:10023
CB02  48        PHA                             A:00 X:00 Y:04 P:2C SP:25 PPU:249,116 CYC:10026
CB03  BD 16 40  LDA $4016,X @ 4016 = 00         A:00 X:00 Y:04 P:2C SP:24 PPU:257,116 CYC:10029
CB06  85 00     STA $00 = 00                    A:00 X:00 Y:04 P:2E SP:24 PPU:265,116 CYC:10033
CB08  4A        LSR A                           A:00 X:00 Y:04 P:2E SP:24 PPU:273,116 CYC:10036
CB09  05 00     ORA $00 = 00                    A:00 X:00 Y:04 P:2E SP:24 PPU:281,116 CYC:10038
CB0B  4A        LSR A                           A:00 X:00 Y:04 P:2E SP:24 PPU:289,116 CYC:10041
CB0C  68        PLA                             A:00 X:00 Y:04 P:2E SP:24 PPU:297,116 CYC:10043
CB0D  2A        ROL A                           A:00 X:00 Y:04 P:2E SP:25 PPU:305,116 CYC:10047
CB0E  88        DEY                             A:00 X:00 Y:04 P:2E SP:25 PPU:313,116 CYC:10049
CB0F  D0 F1     BNE $CB02                       A:00 X:00 Y:03 P:2C SP:25 PPU:321,116 CYC:10051
CB02  48        PHA                             A:00 X:00 Y:03 P:2C SP:25 PPU:326,116 CYC:10054
CB03  BD 16 40  LDA $4016,X @ 4016 = 00         A:00 X:00 Y:03 P:2C SP:24 PPU:335,116 CYC:10057
CB06  85 00     STA $00 = 00                    A:00 X:00 Y:03 P:2E SP:24 PPU:  9,117 CYC:10061
CB08  4A        LSR A                           A:00 X:00 Y:03 P:2E SP:24 PPU: 17,117 CYC:10064
CB09  05 00     ORA $00 = 00                    A:00 X:00 Y:03 P:2E SP:24 PPU: 17,117 CYC:10066
CB0B  4A        LSR A                           A:00 X:00 Y:03 P:2E SP:24 PPU: 33,117 CYC:10069
CB0C  68        PLA                             A:00 X:00 Y:03 P:2E SP:24 PPU: 33,117 CYC:10071
CB0D  2A        ROL A                           A:00 X:00 Y:03 P:2E SP:25 PPU: 49,117 CYC:10075
CB0E  88        DEY                             A:00 X:00 Y:03 P:2E SP:25 PPU: 57,117 CYC:10077
CB0F  D0 F1     BNE $CB02                       A:00 X:00 Y:02 P:2C SP:25 PPU: 57,117 CYC:10079
CB02  48        PHA                             A:00 X:00 Y:02 P:2C SP:25 PPU: 65,117 CYC:10082
CB03  BD 16 40  LDA $4016,X @ 4016 = 00         A:00 X:00 Y:02 P:2C SP:24 PPU: 81,117 CYC:10085
CB06  85 00     STA $00 = 00                    A:00 X:00 Y:02 P:2E SP:24 PPU: 89,117 CYC:10089
CB08  4A        LSR A                           A:00 X:00 Y:02 P:2E SP:24 PPU: 97,117 CYC:10092
CB09  05 00     ORA $00 = 00                    A:00 X:00 Y:02 P:2E SP:24 PPU:105,117 CYC:10094
CB0B  4A        LSR A                           A:00 X:00 Y:02 P:2E SP:24 PPU:113,117 CYC:10097
CB0C  68        PLA                             A:00 X:00 Y:02 P:2E SP:24 PPU:121,117 CYC:10099
CB0D  2A        ROL A                           A:00 X:00 Y:02 P:2E SP:25 PPU:129,117 CYC:10103
CB0E  88        DEY                             A:00 X:00 Y:02 P:2E SP:25 PPU:137,117 CYC:10105
CB0F  D0 F1     BNE $CB02                       A:00 X:00 Y:01 P:2C SP:25 PPU:145,117 CYC:10107
CB02  48        PHA                             A:00 X:00 Y:01 P:2C SP:25 PPU:153,117 CYC:10110
CB03  BD 16 40  LDA $4016,X @ 4016 = 00         A:00 X:00 Y:01 P:2C SP:24 PPU:161,117 CYC:10113
CB06  85 00     STA $00 = 00                    A:00 X:00 Y:01 P:2E SP:24 PPU:177,117 CYC:10117
CB08  4A        LSR A                           A:00 X:00 Y:01 P:2E SP:24 PPU:185,117 CYC:10120
CB09  05 00     ORA $00 = 00                    A:00 X:00 Y:01 P:2E SP:24 PPU:185,117 CYC:10122
CB0B  4A        LSR A                           A:00 X:00 Y:01 P:2E SP:24 PPU:201,117 CYC:10125
CB0C  68        PLA                             A:00 X:00 Y:01 P:2E SP:24 PPU:201,117 CYC:10127
CB0D  2A        ROL A                           A:00 X:00 Y:01 P:2E SP:25 PPU:217,117 CYC:10131
CB0E  88        DEY                             A:00 X:00 Y:01 P:2E SP:25 PPU:225,117 CYC:10133
CB0F  D0 F1     BNE $CB02                       A:00 X:00 Y:00 P:2E SP:25 PPU:225,117 CYC:10135
CB11  86 00     STX $00 = 00                    A:00 X:00 Y:00 P:2E SP:25 PPU:233,117 CYC:10137
CB13  06 00     ASL $00 = 00                    A:00 X:00 Y:00 P:2E SP:25 PPU:241,117 CYC:10140
CB15  A6 00     LDX $00 = 00                    A:00 X:00 Y:00 P:2E SP:25 PPU:257,117 CYC:10145
CB17  B4 14     LDY $14,X @ 14 = 00             A:00 X:00 Y:00 P:2E SP:25 PPU:265,117 CYC:10148
CB19  84 00     STY $00 = 00                    A:00 X:00 Y:00 P:2E SP:25 PPU:281,117 CYC:10152
CB1B  95 14     STA $14,X @ 14 = 00             A:00 X:00 Y:00 P:2E SP:25 PPU:289,117 CYC:10155
CB1D  95 15     STA $15,X @ 15 = 00             A:00 X:00 Y:00 P:2E SP:25 PPU:297,117 CYC:10159
CB1F  A0 04     LDY #$04                        A:00 X:00 Y:00 P:2E SP:25 PPU:313,117 CYC:10163
CB21  A5 02     LDA $02 = 80                    A:00 X:00 Y:04 P:2C SP:25 PPU:321,117 CYC:10165
CB23  24 00     BIT $00 = 00                    A:80 X:00 Y:04 P:AC SP:25 PPU:323,117 CYC:10168
CB25  F0 06     BEQ $CB2D                       A:80 X:00 Y:04 P:2E SP:25 PPU:332,117 CYC:10171
CB2D  38        SEC                             A:80 X:00 Y:04 P:2E SP:25 PPU:345,117 CYC:10174
CB2E  66 01     ROR $01 = 7F                    A:80 X:00 Y:04 P:2F SP:25 PPU:  9,118 CYC:10176
CB30  46 02     LSR $02 = 80                    A:80 X:00 Y:04 P:AD SP:25 PPU: 17,118 CYC:10181
CB32  88        DEY                             A:80 X:00 Y:04 P:2C SP:25 PPU: 33,118 CYC:10186
CB33  D0 EC     BNE $CB21                       A:80 X:00 Y:03 P:2C SP:25 PPU: 41,118 CYC:10188
CB21  A5 02     LDA $02 = 40                    A:80 X:00 Y:03 P:2C SP:25 PPU: 49,118 CYC:10191
CB23  24 00     BIT $00 = 00                    A:40 X:00 Y:03 P:2C SP:25 PPU: 57,118 CYC:10194
CB25  F0 06     BEQ $CB2D                       A:40 X:00 Y:03 P:2E SP:25 PPU: 65,118 CYC:10197
CB2D  38        SEC                             A:40 X:00 Y:03 P:2E SP:25 PPU: 81,118 CYC:10200
CB2E  66 01     ROR $01 = BF                    A:40 X:00 Y:03 P:2F SP:25 PPU: 81,118 CYC:10202
CB30  46 02     LSR $02 = 40                    A:40 X:00 Y:03 P:AD SP:25 PPU: 97,118 CYC:10207
CB32  88        DEY                             A:40 X:00 Y:03 P:2C SP:25 PPU:113,118 CYC:10212
CB33  D0 EC     BNE $CB21                       A:40 X:00 Y:02 P:2C SP:25 PPU:121,118 CYC:10214
CB21  A5 02     LDA $02 = 20                    A:40 X:00 Y:02 P:2C SP:25 PPU:129,118 CYC:10217
CB23  24 00     BIT $00 = 00                    A:20 X:00 Y:02 P:2C SP:25 PPU:137,118 CYC:10220
CB25  F0 06     BEQ $CB2D                       A:20 X:00 Y:02 P:2E SP:25 PPU:145,118 CYC:10223
CB2D  38        SEC                             A:20 X:00 Y:02 P:2E SP:25 PPU:153,118 CYC:10226
CB2E  66 01     ROR $01 = DF                    A:20 X:00 Y:02 P:2F SP:25 PPU:161,118 CYC:10228
CB30  46 02     LSR $02 = 20                    A:20 X:00 Y:02 P:AD SP:25 PPU:177,118 CYC:10233
CB32  88        DEY                             A:20 X:00 Y:02 P:2C SP:25 PPU:193,118 CYC:10238
CB33  D0 EC     BNE $CB21                       A:20 X:00 Y:01 P:2C SP:25 PPU:201,118 CYC:10240
CB21  A5 02     LDA $02 = 10                    A:20 X:00 Y:01 P:2C SP:25 PPU:209,118 CYC:10243
CB23  24 00     BIT $00 = 00                    A:10 X:00 Y:01 P:2C SP:25 PPU:217,118 CYC:10246
CB25  F0 06     BEQ $CB2D                       A:10 X:00 Y:01 P:2E SP:25 PPU:225,118 CYC:10249
CB2D  38        SEC                             A:10 X:00 Y:01 P:2E SP:25 PPU:233,118 CYC:10252
CB2E  66 01     ROR $01 = EF                    A:10 X:00 Y:01 P:2F SP:25 PPU:241,118 CYC:10254
CB30  46 02     LSR $02 = 10                    A:10 X:00 Y:01 P:AD SP:25 PPU:257,118 CYC:10259
CB32  88        DEY                             A:10 X:00 Y:01 P:2C SP:25 PPU:273,118 CYC:10264
CB33  D0 EC     BNE $CB21                       A:10 X:00 Y:00 P:2E SP:25 PPU:273,118 CYC:10266
CB35  A9 7F     LDA #$7F                        A:10 X:00 Y:00 P:2E SP:25 PPU:281,118 CYC:10268
CB37  85 01     STA $01 = F7                    A:7F X:00 Y:00 P:2C SP:25 PPU:289,118 CYC:10270
CB39  A9 80     LDA #$80                        A:7F X:00 Y:00 P:2C SP:25 PPU:297,118 CYC:10273
CB3B  85 02     STA $02 = 08                    A:80 X:00 Y:00 P:AC SP:25 PPU:305,118 CYC:10275
CB3D  60        RTS                             A:80 X:00 Y:00 P:AC SP:25 PPU:313,118 CYC:10278
CAFF  E8        INX                             A:80 X:00 Y:00 P:AC SP:27 PPU:326,118 CYC:10284
CB00  A0 08     LDY #$08                        A:80 X:01 Y:00 P:2C SP:27 PPU:332,118 CYC:10286
CB02  48        PHA                             A:80 X:01 Y:08 P:2C SP:27 PPU:345,118 CYC:10288
CB03  BD 16 40  LDA $4016,X @ 4017 = 00         A:80 X:01 Y:08 P:2C SP:26 PPU:  9,119 CYC:10291
CB06  85 00     STA $00 = 00                    A:00 X:01 Y:08 P:2E SP:26 PPU: 17,119 CYC:10295
CB08  4A        LSR A                           A:00 X:01 Y:08 P:2E SP:26 PPU: 25,119 CYC:10298
CB09  05 00     ORA $00 = 00                    A:00 X:01 Y:08 P:2E SP:26 PPU: 33,119 CYC:10300
CB0B  4A        LSR A                           A:00 X:01 Y:08 P:2E SP:26 PPU: 41,119 CYC:10303
CB0C  68        PLA                             A:00 X:01 Y:08 P:2E SP:26 PPU: 49,119 CYC:10305
CB0D  2A        ROL A                           A:80 X:01 Y:08 P:AC SP:27 PPU: 57,119 CYC:10309
CB0E  88        DEY                             A:00 X:01 Y:08 P:2F SP:27 PPU: 65,119 CYC:10311
CB0F  D0 F1     BNE $CB02                       A:00 X:01 Y:07 P:2D SP:27 PPU: 73,119 CYC:10313
CB02  48        PHA                             A:00 X:01 Y:07 P:2D SP:27 PPU: 81,119 CYC:10316
CB03  BD 16 40  LDA $4016,X @ 4017 = 00         A:00 X:01 Y:07 P:2D SP:26 PPU: 89,119 CYC:10319
CB06  85 00     STA $00 = 00                    A:00 X:01 Y:07 P:2F SP:26 PPU:105,119 CYC:10323
CB08  4A        LSR A                           A:00 X:01 Y:07 P:2F SP:26 PPU:113,119 CYC:10326
CB09  05 00     ORA $00 = 00                    A:00 X:01 Y:07 P:2E SP:26 PPU:113,119 CYC:10328
CB0B  4A        LSR A                           A:00 X:01 Y:07 P:2E SP:26 PPU:129,119 CYC:10331
CB0C  68        PLA                             A:00 X:01 Y:07 P:2E SP:26 PPU:129,119 CYC:10333
CB0D  2A        ROL A                           A:00 X:01 Y:07 P:2E SP:27 PPU:145,119 CYC:10337
CB0E  88        DEY                             A:00 X:01 Y:07 P:2E SP:27 PPU:153,119 CYC:10339
CB0F  D0 F1     BNE $CB02                       A:00 X:01 Y:06 P:2C SP:27 PPU:153,119 CYC:10341
CB02  48        PHA                             A:00 X:01 Y:06 P:2C SP:27 PPU:161,119 CYC:10344
CB03  BD 16 40  LDA $4016,X @ 4017 = 00         A:00 X:01 Y:06 P:2C SP:26 PPU:177,119 CYC:10347
CB06  85 00     STA $00 = 00                    A:00 X:01 Y:06 P:2E SP:26 PPU:185,119 CYC:10351
CB08  4A        LSR A                           A:00 X:01 Y:06 P:2E SP:26 PPU:193,119 CYC:10354
CB09  05 00     ORA $00 = 00                    A:00 X:01 Y:06 P:2E SP:26 PPU:201,119 CYC:10356
CB0B  4A        LSR A                           A:00 X:01 Y:06 P:2E SP:26 PPU:209,119 CYC:10359
CB0C  68        PLA                             A:00 X:01 Y:06 P:2E SP:26 PPU:217,119 CYC:10361
CB0D  2A        ROL A                           A:00 X:01 Y:06 P:2E SP:27 PPU:225,119 CYC:10365
CB0E  88        DEY                             A:00 X:01 Y:06 P:2E SP:27 PPU:233,119 CYC:10367
CB0F  D0 F1     BNE $CB02                       A:00 X:01 Y:05 P:2C SP:27 PPU:241,119 CYC:10369
CB02  48        PHA                             A:00 X:01 Y:05 P:2C SP:27 PPU:249,119 CYC:10372
CB03  BD 16 40  LDA $4016,X @ 4017 = 00         A:00 X:01 Y:05 P:2C SP:26 PPU:257,119 CYC:10375
CB06  85 00     STA $00 = 00                    A:00 X:01 Y:05 P:2E SP:26 PPU:273,119 CYC:10379
CB08  4A        LSR A                           A:00 X:01 Y:05 P:2E SP:26 PPU:281,119 CYC:10382
CB09  05 00     ORA $00 = 00                    A:00 X:01 Y:05 P:2E SP:26 PPU:281,119 CYC:10384
CB0B  4A        LSR A                           A:00 X:01 Y:05 P:2E SP:26 PPU:297,119 CYC:10387
CB0C  68        PLA                             A:00 X:01 Y:05 P:2E SP:26 PPU:297,119 CYC:10389
CB0D  2A        ROL A                           A:00 X:01 Y:05 P:2E SP:27 PPU:313,119 CYC:10393
CB0E  88        DEY                             A:00 X:01 Y:05 P:2E SP:27 PPU:321,119 CYC:10395
CB0F  D0 F1     BNE $CB02                       A:00 X:01 Y:04 P:2C SP:27 PPU:321,119 CYC:10397
CB02  48        PHA                             A:00 X:01 Y:04 P:2C SP:27 PPU:329,119 CYC:10400
CB03  BD 16 40  LDA $4016,X @ 4017 = 00         A:00 X:01 Y:04 P:2C SP:26 PPU:345,119 CYC:10403
CB06  85 00     STA $00 = 00                    A:00 X:01 Y:04 P:2E SP:26 PPU:  9,120 CYC:10407
CB08  4A        LSR A                           A:00 X:01 Y:04 P:2E SP:26 PPU: 17,120 CYC:10410
CB09  05 00     ORA $00 = 00                    A:00 X:01 Y:04 P:2E SP:26 PPU: 25,120 CYC:10412
CB0B  4A        LSR A                           A:00 X:01 Y:04 P:2E SP:26 PPU: 33,120 CYC:10415
CB0C  68        PLA                             A:00 X:01 Y:04 P:2E SP:26 PPU: 41,120 CYC:10417
CB0D  2A        ROL A                           A:00 X:01 Y:04 P:2E SP:27 PPU: 49,120 CYC:10421
CB0E  88        DEY                             A:00 X:01 Y:04 P:2E SP:27 PPU: 57,120 CYC:10423
CB0F  D0 F1     BNE $CB02                       A:00 X:01 Y:03 P:2C SP:27 PPU: 65,120 CYC:10425
CB02  48        PHA                             A:00 X:01 Y:03 P:2C SP:27 PPU: 73,120 CYC:10428
CB03  BD 16 40  LDA $4016,X @ 4017 = 00         A:00 X:01 Y:03 P:2C SP:26 PPU: 81,120 CYC:10431
CB06  85 00     STA $00 = 00                    A:00 X:01 Y:03 P:2E SP:26 PPU: 89,120 CYC:10435
CB08  4A        LSR A                           A:00 X:01 Y:03 P:2E SP:26 PPU:105,120 CYC:10438
CB09  05 00     ORA $00 = 00                    A:00 X:01 Y:03 P:2E SP:26 PPU:105,120 CYC:10440
CB0B  4A        LSR A                           A:00 X:01 Y:03 P:2E SP:26 PPU:113,120 CYC:10443
CB0C  68        PLA                             A:00 X:01 Y:03 P:2E SP:26 PPU:121,120 CYC:10445
CB0D  2A        ROL A                           A:00 X:01 Y:03 P:2E SP:27 PPU:137,120 CYC:10449
CB0E  88        DEY                             A:00 X:01 Y:03 P:2E SP:27 PPU:137,120 CYC:10451
CB0F  D0 F1     BNE $CB02                       A:00 X:01 Y:02 P:2C SP:27 PPU:145,120 CYC:10453
CB02  48        PHA                             A:00 X:01 Y:02 P:2C SP:27 PPU:153,120 CYC:10456
CB03  BD 16 40  LDA $4016,X @ 4017 = 00         A:00 X:01 Y:02 P:2C SP:26 PPU:161,120 CYC:10459
CB06  85 00     STA $00 = 00                    A:00 X:01 Y:02 P:2E SP:26 PPU:177,120 CYC:10463
CB08  4A        LSR A                           A:00 X:01 Y:02 P:2E SP:26 PPU:185,120 CYC:10466
CB09  05 00     ORA $00 = 00                    A:00 X:01 Y:02 P:2E SP:26 PPU:193,120 CYC:10468
CB0B  4A        LSR A                           A:00 X:01 Y:02 P:2E SP:26 PPU:201,120 CYC:10471
CB0C  68        PLA                             A:00 X:01 Y:02 P:2E SP:26 PPU:209,120 CYC:10473
CB0D  2A        ROL A                           A:00 X:01 Y:02 P:2E SP:27 PPU:217,120 CYC:10477
CB0E  88        DEY                             A:00 X:01 Y:02 P:2E SP:27 PPU:225,120 CYC:10479
CB0F  D0 F1     BNE $CB02                       A:00 X:01 Y:01 P:2C SP:27 PPU:233,120 CYC:10481
CB02  48        PHA                             A:00 X:01 Y:01 P:2C SP:27 PPU:241,120 CYC:10484
CB03  BD 16 40  LDA $4016,X @ 4017 = 00         A:00 X:01 Y:01 P:2C SP:26 PPU:249,120 CYC:10487
CB06  85 00     STA $00 = 00                    A:00 X:01 Y:01 P:2E SP:26 PPU:257,120 CYC:10491
CB08  4A        LSR A                           A:00 X:01 Y:01 P:2E SP:26 PPU:273,120 CYC:10494
CB09  05 00     ORA $00 = 00                    A:00 X:01 Y:01 P:2E SP:26 PPU:273,120 CYC:10496
CB0B  4A        LSR A                           A:00 X:01 Y:01 P:2E SP:26 PPU:281,120 CYC:10499
CB0C  68        PLA                             A:00 X:01 Y:01 P:2E SP:26 PPU:289,120 CYC:10501
CB0D  2A        ROL A                           A:00 X:01 Y:01 P:2E SP:27 PPU:305,120 CYC:10505
CB0E  88        DEY                             A:00 X:01 Y:01 P:2E SP:27 PPU:305,120 CYC:10507
CB0F  D0 F1     BNE $CB02                       A:00 X:01 Y:00 P:2E SP:27 PPU:313,120 CYC:10509
CB11  86 00     STX $00 = 00                    A:00 X:01 Y:00 P:2E SP:27 PPU:321,120 CYC:10511
CB13  06 00     ASL $00 = 01                    A:00 X:01 Y:00 P:2E SP:27 PPU:326,120 CYC:10514
CB15  A6 00     LDX $00 = 02                    A:00 X:01 Y:00 P:2C SP:27 PPU:345,120 CYC:10519
CB17  B4 14     LDY $14,X @ 16 = 00             A:00 X:02 Y:00 P:2C SP:27 PPU:  9,121 CYC:10522
CB19  84 00     STY $00 = 02                    A:00 X:02 Y:00 P:2E SP:27 PPU: 17,121 CYC:10526
CB1B  95 14     STA $14,X @ 16 = 00             A:00 X:02 Y:00 P:2E SP:27 PPU: 33,121 CYC:10529
CB1D  95 15     STA $15,X @ 17 = 00             A:00 X:02 Y:00 P:2E SP:27 PPU: 41,121 CYC:10533
CB1F  A0 04     LDY #$04                        A:00 X:02 Y:00 P:2E SP:27 PPU: 57,121 CYC:10537
CB21  A5 02     LDA $02 = 80                    A:00 X:02 Y:04 P:2C SP:27 PPU: 57,121 CYC:10539
CB23  24 00     BIT $00 = 00                    A:80 X:02 Y:04 P:AC SP:27 PPU: 65,121 CYC:10542
CB25  F0 06     BEQ $CB2D                       A:80 X:02 Y:04 P:2E SP:27 PPU: 81,121 CYC:10545
CB2D  38        SEC                             A:80 X:02 Y:04 P:2E SP:27 PPU: 89,121 CYC:10548
CB2E  66 01     ROR $01 = 7F                    A:80 X:02 Y:04 P:2F SP:27 PPU: 89,121 CYC:10550
CB30  46 02     LSR $02 = 80                    A:80 X:02 Y:04 P:AD SP:27 PPU:105,121 CYC:10555
CB32  88        DEY                             A:80 X:02 Y:04 P:2C SP:27 PPU:121,121 CYC:10560
CB33  D0 EC     BNE $CB21                       A:80 X:02 Y:03 P:2C SP:27 PPU:129,121 CYC:10562
CB21  A5 02     LDA $02 = 40                    A:80 X:02 Y:03 P:2C SP:27 PPU:137,121 CYC:10565
CB23  24 00     BIT $00 = 00                    A:40 X:02 Y:03 P:2C SP:27 PPU:145,121 CYC:10568
CB25  F0 06     BEQ $CB2D                       A:40 X:02 Y:03 P:2E SP:27 PPU:153,121 CYC:10571
CB2D  38        SEC                             A:40 X:02 Y:03 P:2E SP:27 PPU:161,121 CYC:10574
CB2E  66 01     ROR $01 = BF                    A:40 X:02 Y:03 P:2F SP:27 PPU:169,121 CYC:10576
CB30  46 02     LSR $02 = 40                    A:40 X:02 Y:03 P:AD SP:27 PPU:185,121 CYC:10581
CB32  88        DEY                             A:40 X:02 Y:03 P:2C SP:27 PPU:201,121 CYC:10586
CB33  D0 EC     BNE $CB21                       A:40 X:02 Y:02 P:2C SP:27 PPU:209,121 CYC:10588
CB21  A5 02     LDA $02 = 20                    A:40 X:02 Y:02 P:2C SP:27 PPU:217,121 CYC:10591
CB23  24 00     BIT $00 = 00                    A:20 X:02 Y:02 P:2C SP:27 PPU:225,121 CYC:10594
CB25  F0 06     BEQ $CB2D                       A:20 X:02 Y:02 P:2E SP:27 PPU:233,121 CYC:10597
CB2D  38        SEC                             A:20 X:02 Y:02 P:2E SP:27 PPU:241,121 CYC:10600
CB2E  66 01     ROR $01 = DF                    A:20 X:02 Y:02 P:2F SP:27 PPU:249,121 CYC:10602
CB30  46 02     LSR $02 = 20                    A:20 X:02 Y:02 P:AD SP:27 PPU:265,121 CYC:10607
CB32  88        DEY                             A:20 X:02 Y:02 P:2C SP:27 PPU:281,121 CYC:10612
CB33  D0 EC     BNE $CB21                       A:20 X:02 Y:01 P:2C SP:27 PPU:281,121 CYC:10614
CB21  A5 02     LDA $02 = 10                    A:20 X:02 Y:01 P:2C SP:27 PPU:297,121 CYC:10617
CB23  24 00     BIT $00 = 00                    A:10 X:02 Y:01 P:2C SP:27 PPU:305,121 CYC:10620
CB25  F0 06     BEQ $CB2D                       A:10 X:02 Y:01 P:2E SP:27 PPU:313,121 CYC:10623
CB2D  38        SEC                             A:10 X:02 Y:01 P:2E SP:27 PPU:321,121 CYC:10626
CB2E  66 01     ROR $01 = EF                    A:10 X:02 Y:01 P:2F SP:27 PPU:323,121 CYC:10628
CB30  46 02     LSR $02 = 10                    A:10 X:02 Y:01 P:AD SP:27 PPU:345,121 CYC:10633
CB32  88        DEY                             A:10 X:02 Y:01 P:2C SP:27 PPU:  9,122 CYC:10638
CB33  D0 EC     BNE $CB21                       A:10 X:02 Y:00 P:2E SP:27 PPU: 17,122 CYC:10640
CB35  A9 7F     LDA #$7F                        A:10 X:02 Y:00 P:2E SP:27 PPU: 25,122 CYC:10642
CB37  85 01     STA $01 = F7                    A:7F X:02 Y:00 P:2C SP:27 PPU: 33,122 CYC:10644
CB39  A9 80     LDA #$80                        A:7F X:02 Y:00 P:2C SP:27 PPU: 41,122 CYC:10647
CB3B  85 02     STA $02 = 08                    A:80 X:02 Y:00 P:AC SP:27 PPU: 41,122 CYC:10649
CB3D  60        RTS                             A:80 X:02 Y:00 P:AC SP:27 PPU: 57,122 CYC:10652
C0C6  20 1E F9  JSR $F91E                       A:80 X:02 Y:00 P:AC SP:29 PPU: 73,122 CYC:10658
F91E  A9 FF     LDA #$FF                        A:80 X:02 Y:00 P:AC SP:27 PPU: 89,122 CYC:10664
F920  8D 17 40  STA $4017 = 00                  A:FF X:02 Y:00 P:AC SP:27 PPU: 97,122 CYC:10666
F923  20 EB F9  JSR $F9EB                       A:FF X:02 Y:00 P:AC SP:27 PPU:105,122 CYC:10670
F9EB  A4 FF     LDY $FF = 00                    A:FF X:02 Y:00 P:AC SP:25 PPU:129,122 CYC:10676
F9ED  A5 F0     LDA $F0 = 00                    A:FF X:02 Y:00 P:2E SP:25 PPU:137,122 CYC:10679
F9EF  46 FF     LSR $FF = 00                    A:00 X:02 Y:00 P:2E SP:25 PPU:145,122 CYC:10682
F9F1  B0 B8     BCS $F9AB                       A:00 X:02 Y:00 P:2E SP:25 PPU:161,122 CYC:10687
F9F3  4A        LSR A                           A:00 X:02 Y:00 P:2E SP:25 PPU:161,122 CYC:10689
F9F4  B0 BB     BCS $F9B1                       A:00 X:02 Y:00 P:2E SP:25 PPU:169,122 CYC:10691
F9F6  46 FF     LSR $FF = 00                    A:00 X:02 Y:00 P:2E SP:25 PPU:177,122 CYC:10693
F9F8  B0 CE     BCS $F9C8                       A:00 X:02 Y:00 P:2E SP:25 PPU:193,122 CYC:10698
F9FA  4A        LSR A                           A:00 X:02 Y:00 P:2E SP:25 PPU:201,122 CYC:10700
F9FB  B0 D3     BCS $F9D0                       A:00 X:02 Y:00 P:2E SP:25 PPU:201,122 CYC:10702
F9FD  46 FF     LSR $FF = 00                    A:00 X:02 Y:00 P:2E SP:25 PPU:209,122 CYC:10704
F9FF  B0 0B     BCS $FA0C                       A:00 X:02 Y:00 P:2E SP:25 PPU:225,122 CYC:10709
FA01  4A        LSR A                           A:00 X:02 Y:00 P:2E SP:25 PPU:233,122 CYC:10711
FA02  B0 17     BCS $FA1B                       A:00 X:02 Y:00 P:2E SP:25 PPU:233,122 CYC:10713
FA04  46 FF     LSR $FF = 00                    A:00 X:02 Y:00 P:2E SP:25 PPU:241,122 CYC:10715
FA06  B0 38     BCS $FA40                       A:00 X:02 Y:00 P:2E SP:25 PPU:257,122 CYC:10720
FA08  4A        LSR A                           A:00 X:02 Y:00 P:2E SP:25 PPU:265,122 CYC:10722
FA09  B0 3F     BCS $FA4A                       A:00 X:02 Y:00 P:2E SP:25 PPU:273,122 CYC:10724
FA0B  60        RTS                             A:00 X:02 Y:00 P:2E SP:25 PPU:273,122 CYC:10726
F926  20 C4 FA  JSR $FAC4                       A:00 X:02 Y:00 P:2E SP:27 PPU:297,122 CYC:10732
FAC4  A4 FE     LDY $FE = 00                    A:00 X:02 Y:00 P:2E SP:25 PPU:313,122 CYC:10738
FAC6  A5 F1     LDA $F1 = 00                    A:00 X:02 Y:00 P:2E SP:25 PPU:321,122 CYC:10741
FAC8  46 FE     LSR $FE = 00                    A:00 X:02 Y:00 P:2E SP:25 PPU:326,122 CYC:10744
FACA  B0 98     BCS $FA64                       A:00 X:02 Y:00 P:2E SP:25 PPU:345,122 CYC:10749
FACC  4A        LSR A                           A:00 X:02 Y:00 P:2E SP:25 PPU:  9,123 CYC:10751
FACD  B0 9C     BCS $FA6B                       A:00 X:02 Y:00 P:2E SP:25 PPU:  9,123 CYC:10753
FACF  46 FE     LSR $FE = 00                    A:00 X:02 Y:00 P:2E SP:25 PPU: 17,123 CYC:10755
FAD1  B0 B0     BCS $FA83                       A:00 X:02 Y:00 P:2E SP:25 PPU: 33,123 CYC:10760
FAD3  4A        LSR A                           A:00 X:02 Y:00 P:2E SP:25 PPU: 41,123 CYC:10762
FAD4  B0 BE     BCS $FA94                       A:00 X:02 Y:00 P:2E SP:25 PPU: 41,123 CYC:10764
FAD6  46 FE     LSR $FE = 00                    A:00 X:02 Y:00 P:2E SP:25 PPU: 49,123 CYC:10766
FAD8  B0 12     BCS $FAEC                       A:00 X:02 Y:00 P:2E SP:25 PPU: 65,123 CYC:10771
FADA  4A        LSR A                           A:00 X:02 Y:00 P:2E SP:25 PPU: 73,123 CYC:10773
FADB  B0 D8     BCS $FAB5                       A:00 X:02 Y:00 P:2E SP:25 PPU: 81,123 CYC:10775
FADD  4A        LSR A                           A:00 X:02 Y:00 P:2E SP:25 PPU: 81,123 CYC:10777
FADE  B0 29     BCS $FB09                       A:00 X:02 Y:00 P:2E SP:25 PPU: 89,123 CYC:10779
FAE0  46 FE     LSR $FE = 00                    A:00 X:02 Y:00 P:2E SP:25 PPU: 97,123 CYC:10781
FAE2  B0 15     BCS $FAF9                       A:00 X:02 Y:00 P:2E SP:25 PPU:113,123 CYC:10786
FAE4  46 FE     LSR $FE = 00                    A:00 X:02 Y:00 P:2E SP:25 PPU:113,123 CYC:10788
FAE6  B0 2F     BCS $FB17                       A:00 X:02 Y:00 P:2E SP:25 PPU:129,123 CYC:10793
FAE8  4A        LSR A                           A:00 X:02 Y:00 P:2E SP:25 PPU:137,123 CYC:10795
FAE9  B0 CA     BCS $FAB5                       A:00 X:02 Y:00 P:2E SP:25 PPU:145,123 CYC:10797
FAEB  60        RTS                             A:00 X:02 Y:00 P:2E SP:25 PPU:153,123 CYC:10799
F929  20 A1 FB  JSR $FBA1                       A:00 X:02 Y:00 P:2E SP:27 PPU:169,123 CYC:10805
FBA1  A4 FC     LDY $FC = 00                    A:00 X:02 Y:00 P:2E SP:25 PPU:185,123 CYC:10811
FBA3  A5 F2     LDA $F2 = 00                    A:00 X:02 Y:00 P:2E SP:25 PPU:193,123 CYC:10814
FBA5  46 FC     LSR $FC = 00                    A:00 X:02 Y:00 P:2E SP:25 PPU:201,123 CYC:10817
FBA7  B0 C8     BCS $FB71                       A:00 X:02 Y:00 P:2E SP:25 PPU:217,123 CYC:10822
FBA9  4A        LSR A                           A:00 X:02 Y:00 P:2E SP:25 PPU:225,123 CYC:10824
FBAA  B0 CC     BCS $FB78                       A:00 X:02 Y:00 P:2E SP:25 PPU:233,123 CYC:10826
FBAC  46 FC     LSR $FC = 00                    A:00 X:02 Y:00 P:2E SP:25 PPU:233,123 CYC:10828
FBAE  B0 0B     BCS $FBBB                       A:00 X:02 Y:00 P:2E SP:25 PPU:249,123 CYC:10833
FBB0  4A        LSR A                           A:00 X:02 Y:00 P:2E SP:25 PPU:257,123 CYC:10835
FBB1  B0 18     BCS $FBCB                       A:00 X:02 Y:00 P:2E SP:25 PPU:265,123 CYC:10837
FBB3  46 FC     LSR $FC = 00                    A:00 X:02 Y:00 P:2E SP:25 PPU:273,123 CYC:10839
FBB5  B0 24     BCS $FBDB                       A:00 X:02 Y:00 P:2E SP:25 PPU:281,123 CYC:10844
FBB7  4A        LSR A                           A:00 X:02 Y:00 P:2E SP:25 PPU:289,123 CYC:10846
FBB8  B0 31     BCS $FBEB                       A:00 X:02 Y:00 P:2E SP:25 PPU:297,123 CYC:10848
FBBA  60        RTS                             A:00 X:02 Y:00 P:2E SP:25 PPU:305,123 CYC:10850
F92C  20 FC FB  JSR $FBFC                       A:00 X:02 Y:00 P:2E SP:27 PPU:321,123 CYC:10856
FBFC  A5 FB     LDA $FB = 00                    A:00 X:02 Y:00 P:2E SP:25 PPU:335,123 CYC:10862
FBFE  D0 05     BNE $FC05                       A:00 X:02 Y:00 P:2E SP:25 PPU:345,123 CYC:10865
FC00  A5 F3     LDA $F3 = 00                    A:00 X:02 Y:00 P:2E SP:25 PPU:  9,124 CYC:10867
FC02  D0 4D     BNE $FC51                       A:00 X:02 Y:00 P:2E SP:25 PPU: 17,124 CYC:10870
FC04  60        RTS                             A:00 X:02 Y:00 P:2E SP:25 PPU: 25,124 CYC:10872
F92F  A9 00     LDA #$00                        A:00 X:02 Y:00 P:2E SP:27 PPU: 41,124 CYC:10878
F931  85 FF     STA $FF = 00                    A:00 X:02 Y:00 P:2E SP:27 PPU: 49,124 CYC:10880
F933  85 FE     STA $FE = 00                    A:00 X:02 Y:00 P:2E SP:27 PPU: 57,124 CYC:10883
F935  85 FC     STA $FC = 00                    A:00 X:02 Y:00 P:2E SP:27 PPU: 65,124 CYC:10886
F937  85 FB     STA $FB = 00                    A:00 X:02 Y:00 P:2E SP:27 PPU: 73,124 CYC:10889
F939  AC 11 07  LDY $0711 = 00                  A:00 X:02 Y:00 P:2E SP:27 PPU: 81,124 CYC:10892
F93C  A5 F3     LDA $F3 = 00                    A:00 X:02 Y:00 P:2E SP:27 PPU: 97,124 CYC:10896
F93E  29 0C     AND #$0C                        A:00 X:02 Y:00 P:2E SP:27 PPU:105,124 CYC:10899
F940  F0 07     BEQ $F949                       A:00 X:02 Y:00 P:2E SP:27 PPU:113,124 CYC:10901
F949  98        TYA                             A:00 X:02 Y:00 P:2E SP:27 PPU:121,124 CYC:10904
F94A  F0 03     BEQ $F94F                       A:00 X:02 Y:00 P:2E SP:27 PPU:129,124 CYC:10906
F94F  8C 11 40  STY $4011 = 00                  A:00 X:02 Y:00 P:2E SP:27 PPU:137,124 CYC:10909
F952  60        RTS                             A:00 X:02 Y:00 P:2E SP:27 PPU:145,124 CYC:10913
C0C9  A5 53     LDA $53 = 00                    A:00 X:02 Y:00 P:2E SP:29 PPU:161,124 CYC:10919
C0CB  F0 06     BEQ $C0D3                       A:00 X:02 Y:00 P:2E SP:29 PPU:177,124 CYC:10922
C0D3  A5 51     LDA $51 = 01                    A:00 X:02 Y:00 P:2E SP:29 PPU:185,124 CYC:10925
C0D5  F0 4F     BEQ $C126                       A:01 X:02 Y:00 P:2C SP:29 PPU:193,124 CYC:10928
C0D7  AE 4C 03  LDX $034C = 02                  A:01 X:02 Y:00 P:2C SP:29 PPU:201,124 CYC:10930
C0DA  F0 3E     BEQ $C11A                       A:01 X:02 Y:00 P:2C SP:29 PPU:209,124 CYC:10934
C0DC  CA        DEX                             A:01 X:02 Y:00 P:2C SP:29 PPU:217,124 CYC:10936
C0DD  F0 24     BEQ $C103                       A:01 X:01 Y:00 P:2C SP:29 PPU:225,124 CYC:10938
C0DF  CA        DEX                             A:01 X:01 Y:00 P:2C SP:29 PPU:225,124 CYC:10940
C0E0  D0 1E     BNE $C100                       A:01 X:00 Y:00 P:2E SP:29 PPU:233,124 CYC:10942
C0E2  A5 11     LDA $11 = 1F                    A:01 X:00 Y:00 P:2E SP:29 PPU:241,124 CYC:10944
C0E4  29 EF     AND #$EF                        A:1F X:00 Y:00 P:2C SP:29 PPU:249,124 CYC:10947
C0E6  8D 01 20  STA $2001 = 1F                  A:0F X:00 Y:00 P:2C SP:29 PPU:257,124 CYC:10949
C0E9  85 11     STA $11 = 1F                    A:0F X:00 Y:00 P:2C SP:29 PPU:265,124 CYC:10953
C0EB  A5 15     LDA $15 = 00                    A:0F X:00 Y:00 P:2C SP:29 PPU:273,124 CYC:10956
C0ED  29 10     AND #$10                        A:00 X:00 Y:00 P:2E SP:29 PPU:281,124 CYC:10959
C0EF  F0 47     BEQ $C138                       A:00 X:00 Y:00 P:2E SP:29 PPU:289,124 CYC:10961
C138  20 41 C1  JSR $C141                       A:00 X:00 Y:00 P:2E SP:29 PPU:305,124 CYC:10965
C141  AD 02 20  LDA $2002 = 0F                  A:00 X:00 Y:00 P:2E SP:27 PPU:321,124 CYC:10971
C144  A5 10     LDA $10 = 11                    A:0F X:00 Y:00 P:2C SP:27 PPU:329,124 CYC:10975
C146  09 80     ORA #$80                        A:11 X:00 Y:00 P:2C SP:27 PPU:345,124 CYC:10978
C148  85 10     STA $10 = 11                    A:91 X:00 Y:00 P:AC SP:27 PPU:345,124 CYC:10980
C14A  8D 00 20  STA $2000 = 11                  A:91 X:00 Y:00 P:AC SP:27 PPU:  9,125 CYC:10983
C14D  60        RTS                             A:91 X:00 Y:00 P:AC SP:27 PPU: 25,125 CYC:10987
C13B  68        PLA                             A:91 X:00 Y:00 P:AC SP:29 PPU: 41,125 CYC:10993
C13C  A8        TAY                             A:10 X:00 Y:00 P:2C SP:2A PPU: 57,125 CYC:10997
C13D  68        PLA                             A:10 X:00 Y:10 P:2C SP:2A PPU: 57,125 CYC:10999
C13E  AA        TAX                             A:2D X:00 Y:10 P:2C SP:2B PPU: 73,125 CYC:11003
C13F  68        PLA                             A:2D X:2D Y:10 P:2C SP:2B PPU: 81,125 CYC:11005
C140  40        RTI                             A:FF X:2D Y:10 P:AC SP:2C PPU: 89,125 CYC:11009
00BB  00        BRK                             A:FF X:2D Y:10 P:A8 SP:2F PPU:105,125 CYC:11015
C076  48        PHA                             A:FF X:2D Y:10 P:AC SP:2C PPU:129,125 CYC:11022
C077  8A        TXA                             A:FF X:2D Y:10 P:AC SP:2B PPU:137,125 CYC:11025
C078  48        PHA                             A:2D X:2D Y:10 P:2C SP:2B PPU:145,125 CYC:11027
C079  98        TYA                             A:2D X:2D Y:10 P:2C SP:2A PPU:153,125 CYC:11030
C07A  48        PHA                             A:10 X:2D Y:10 P:2C SP:2A PPU:161,125 CYC:11032
C07B  A5 10     LDA $10 = 91                    A:10 X:2D Y:10 P:2C SP:29 PPU:169,125 CYC:11035
C07D  A6 DE     LDX $DE = 00                    A:91 X:2D Y:10 P:AC SP:29 PPU:177,125 CYC:11038
C07F  F0 02     BEQ $C083                       A:91 X:00 Y:10 P:2E SP:29 PPU:185,125 CYC:11041
C083  29 7F     AND #$7F                        A:91 X:00 Y:10 P:2E SP:29 PPU:193,125 CYC:11044
C085  20 48 C1  JSR $C148                       A:11 X:00 Y:10 P:2C SP:29 PPU:201,125 CYC:11046
C148  85 10     STA $10 = 91                    A:11 X:00 Y:10 P:2C SP:27 PPU:217,125 CYC:11052
C14A  8D 00 20  STA $2000 = 91                  A:11 X:00 Y:10 P:2C SP:27 PPU:225,125 CYC:11055
C14D  60        RTS                             A:11 X:00 Y:10 P:2C SP:27 PPU:241,125 CYC:11059
C088  A5 52     LDA $52 = 00                    A:11 X:00 Y:10 P:2C SP:29 PPU:257,125 CYC:11065
C08A  D0 09     BNE $C095                       A:00 X:00 Y:10 P:2E SP:29 PPU:265,125 CYC:11068
C08C  A5 11     LDA $11 = 0F                    A:00 X:00 Y:10 P:2E SP:29 PPU:273,125 CYC:11070
C08E  09 1E     ORA #$1E                        A:0F X:00 Y:10 P:2C SP:29 PPU:281,125 CYC:11073
C090  8D 01 20  STA $2001 = 0F                  A:1F X:00 Y:10 P:2C SP:29 PPU:289,125 CYC:11075
C093  85 11     STA $11 = 0F                    A:1F X:00 Y:10 P:2C SP:29 PPU:297,125 CYC:11079
C095  A9 00     LDA #$00                        A:1F X:00 Y:10 P:2C SP:29 PPU:305,125 CYC:11082
C097  8D 03 20  STA $2003 = 00                  A:00 X:00 Y:10 P:2E SP:29 PPU:313,125 CYC:11084
C09A  A9 02     LDA #$02                        A:00 X:00 Y:10 P:2E SP:29 PPU:323,125 CYC:11088
C09C  8D 14 40  STA $4014 = 00                  A:02 X:00 Y:10 P:2C SP:29 PPU:329,125 CYC:11090
C09F  A6 52     LDX $52 = 00                    A:02 X:00 Y:10 P:2C SP:29 PPU:161,130 CYC:11607
C0A1  20 50 C1  JSR $C150                       A:02 X:00 Y:10 P:2E SP:29 PPU:169,130 CYC:11610
C150  BD 00 C0  LDA $C000,X @ C000 = 01         A:02 X:00 Y:10 P:2E SP:27 PPU:185,130 CYC:11616
C153  85 00     STA $00 = 00                    A:01 X:00 Y:10 P:2C SP:27 PPU:201,130 CYC:11620
C155  BD 0A C0  LDA $C00A,X @ C00A = 03         A:01 X:00 Y:10 P:2C SP:27 PPU:209,130 CYC:11623
C158  85 01     STA $01 = 7F                    A:03 X:00 Y:10 P:2C SP:27 PPU:217,130 CYC:11627
C15A  20 78 CB  JSR $CB78                       A:03 X:00 Y:10 P:2C SP:27 PPU:225,130 CYC:11630
CB78  AE 02 20  LDX $2002 = 00                  A:03 X:00 Y:10 P:2C SP:25 PPU:249,130 CYC:11636
CB7B  A0 00     LDY #$00                        A:03 X:00 Y:10 P:2E SP:25 PPU:257,130 CYC:11640
CB7D  B1 00     LDA ($00),Y = 0301 @ 0301 = 00  A:03 X:00 Y:00 P:2E SP:25 PPU:265,130 CYC:11642
CB7F  D0 BD     BNE $CB3E                       A:00 X:00 Y:00 P:2E SP:25 PPU:281,130 CYC:11647
CB81  A5 12     LDA $12 = 01                    A:00 X:00 Y:00 P:2E SP:25 PPU:281,130 CYC:11649
CB83  8D 05 20  STA $2005 = 9F                  A:01 X:00 Y:00 P:2C SP:25 PPU:297,130 CYC:11652
CB86  A5 13     LDA $13 = 9F                    A:01 X:00 Y:00 P:2C SP:25 PPU:305,130 CYC:11656
CB88  8D 05 20  STA $2005 = 01                  A:9F X:00 Y:00 P:AC SP:25 PPU:313,130 CYC:11659
CB8B  60        RTS                             A:9F X:00 Y:00 P:AC SP:25 PPU:323,130 CYC:11663
C15D  A9 00     LDA #$00                        A:9F X:00 Y:00 P:AC SP:27 PPU:345,130 CYC:11669
C15F  8D 00 03  STA $0300 = 00                  A:00 X:00 Y:00 P:2E SP:27 PPU:  9,131 CYC:11671
C162  8D 01 03  STA $0301 = 00                  A:00 X:00 Y:00 P:2E SP:27 PPU: 17,131 CYC:11675
C165  60        RTS                             A:00 X:00 Y:00 P:2E SP:27 PPU: 33,131 CYC:11679
C0A4  85 52     STA $52 = 00                    A:00 X:00 Y:00 P:2E SP:29 PPU: 49,131 CYC:11685
C0A6  85 DE     STA $DE = 00                    A:00 X:00 Y:00 P:2E SP:29 PPU: 57,131 CYC:11688
C0A8  A9 3F     LDA #$3F                        A:00 X:00 Y:00 P:2E SP:29 PPU: 65,131 CYC:11691
C0AA  8D 06 20  STA $2006 = 00                  A:3F X:00 Y:00 P:2C SP:29 PPU: 73,131 CYC:11693
C0AD  A9 00     LDA #$00                        A:3F X:00 Y:00 P:2C SP:29 PPU: 81,131 CYC:11697
C0AF  8D 06 20  STA $2006 = 3F                  A:00 X:00 Y:00 P:2E SP:29 PPU: 89,131 CYC:11699
C0B2  8D 06 20  STA $2006 = 00                  A:00 X:00 Y:00 P:2E SP:29 PPU:105,131 CYC:11703
C0B5  8D 06 20  STA $2006 = 00                  A:00 X:00 Y:00 P:2E SP:29 PPU:113,131 CYC:11707
C0B8  AD 02 20  LDA $2002 = 00                  A:00 X:00 Y:00 P:2E SP:29 PPU:129,131 CYC:11711
C0BB  20 81 CB  JSR $CB81                       A:00 X:00 Y:00 P:2E SP:29 PPU:137,131 CYC:11715
CB81  A5 12     LDA $12 = 01                    A:00 X:00 Y:00 P:2E SP:27 PPU:153,131 CYC:11721
CB83  8D 05 20  STA $2005 = 9F                  A:01 X:00 Y:00 P:2C SP:27 PPU:161,131 CYC:11724
CB86  A5 13     LDA $13 = 9F                    A:01 X:00 Y:00 P:2C SP:27 PPU:177,131 CYC:11728
CB88  8D 05 20  STA $2005 = 01                  A:9F X:00 Y:00 P:AC SP:27 PPU:185,131 CYC:11731
CB8B  60        RTS                             A:9F X:00 Y:00 P:AC SP:27 PPU:201,131 CYC:11735
C0BE  A5 10     LDA $10 = 11                    A:9F X:00 Y:00 P:AC SP:29 PPU:217,131 CYC:11741
C0C0  8D 00 20  STA $2000 = 11                  A:11 X:00 Y:00 P:2C SP:29 PPU:225,131 CYC:11744
C0C3  20 ED CA  JSR $CAED                       A:11 X:00 Y:00 P:2C SP:29 PPU:233,131 CYC:11748
CAED  20 35 CB  JSR $CB35                       A:11 X:00 Y:00 P:2C SP:27 PPU:257,131 CYC:11754
CB35  A9 7F     LDA #$7F                        A:11 X:00 Y:00 P:2C SP:25 PPU:273,131 CYC:11760
CB37  85 01     STA $01 = 03                    A:7F X:00 Y:00 P:2C SP:25 PPU:281,131 CYC:11762
CB39  A9 80     LDA #$80                        A:7F X:00 Y:00 P:2C SP:25 PPU:289,131 CYC:11765
CB3B  85 02     STA $02 = 80                    A:80 X:00 Y:00 P:AC SP:25 PPU:297,131 CYC:11767
CB3D  60        RTS                             A:80 X:00 Y:00 P:AC SP:25 PPU:305,131 CYC:11770
CAF0  A9 01     LDA #$01                        A:80 X:00 Y:00 P:AC SP:27 PPU:321,131 CYC:11776
CAF2  8D 16 40  STA $4016 = 00                  A:01 X:00 Y:00 P:2C SP:27 PPU:323,131 CYC:11778
CAF5  A2 00     LDX #$00                        A:01 X:00 Y:00 P:2C SP:27 PPU:335,131 CYC:11782
CAF7  A9 00     LDA #$00                        A:01 X:00 Y:00 P:2E SP:27 PPU:345,131 CYC:11784
CAF9  8D 16 40  STA $4016 = 00                  A:00 X:00 Y:00 P:2E SP:27 PPU:  9,132 CYC:11786
CAFC  20 00 CB  JSR $CB00                       A:00 X:00 Y:00 P:2E SP:27 PPU: 17,132 CYC:11790
CB00  A0 08     LDY #$08                        A:00 X:00 Y:00 P:2E SP:25 PPU: 33,132 CYC:11796
CB02  48        PHA                             A:00 X:00 Y:08 P:2C SP:25 PPU: 41,132 CYC:11798
CB03  BD 16 40  LDA $4016,X @ 4016 = 00         A:00 X:00 Y:08 P:2C SP:24 PPU: 49,132 CYC:11801
CB06  85 00     STA $00 = 01                    A:00 X:00 Y:08 P:2E SP:24 PPU: 65,132 CYC:11805
CB08  4A        LSR A                           A:00 X:00 Y:08 P:2E SP:24 PPU: 73,132 CYC:11808
CB09  05 00     ORA $00 = 00                    A:00 X:00 Y:08 P:2E SP:24 PPU: 81,132 CYC:11810
CB0B  4A        LSR A                           A:00 X:00 Y:08 P:2E SP:24 PPU: 89,132 CYC:11813
CB0C  68        PLA                             A:00 X:00 Y:08 P:2E SP:24 PPU: 89,132 CYC:11815
CB0D  2A        ROL A                           A:00 X:00 Y:08 P:2E SP:25 PPU:105,132 CYC:11819
CB0E  88        DEY                             A:00 X:00 Y:08 P:2E SP:25 PPU:113,132 CYC:11821
CB0F  D0 F1     BNE $CB02                       A:00 X:00 Y:07 P:2C SP:25 PPU:113,132 CYC:11823
CB02  48        PHA                             A:00 X:00 Y:07 P:2C SP:25 PPU:129,132 CYC:11826
CB03  BD 16 40  LDA $4016,X @ 4016 = 00         A:00 X:00 Y:07 P:2C SP:24 PPU:137,132 CYC:11829
CB06  85 00     STA $00 = 00                    A:00 X:00 Y:07 P:2E SP:24 PPU:145,132 CYC:11833
CB08  4A        LSR A                           A:00 X:00 Y:07 P:2E SP:24 PPU:153,132 CYC:11836
CB09  05 00     ORA $00 = 00                    A:00 X:00 Y:07 P:2E SP:24 PPU:161,132 CYC:11838
CB0B  4A        LSR A                           A:00 X:00 Y:07 P:2E SP:24 PPU:169,132 CYC:11841
CB0C  68        PLA                             A:00 X:00 Y:07 P:2E SP:24 PPU:177,132 CYC:11843
CB0D  2A        ROL A                           A:00 X:00 Y:07 P:2E SP:25 PPU:185,132 CYC:11847
CB0E  88        DEY                             A:00 X:00 Y:07 P:2E SP:25 PPU:193,132 CYC:11849
CB0F  D0 F1     BNE $CB02                       A:00 X:00 Y:06 P:2C SP:25 PPU:201,132 CYC:11851
CB02  48        PHA                             A:00 X:00 Y:06 P:2C SP:25 PPU:209,132 CYC:11854
CB03  BD 16 40  LDA $4016,X @ 4016 = 00         A:00 X:00 Y:06 P:2C SP:24 PPU:217,132 CYC:11857
CB06  85 00     STA $00 = 00                    A:00 X:00 Y:06 P:2E SP:24 PPU:233,132 CYC:11861
CB08  4A        LSR A                           A:00 X:00 Y:06 P:2E SP:24 PPU:241,132 CYC:11864
CB09  05 00     ORA $00 = 00                    A:00 X:00 Y:06 P:2E SP:24 PPU:249,132 CYC:11866
CB0B  4A        LSR A                           A:00 X:00 Y:06 P:2E SP:24 PPU:257,132 CYC:11869
CB0C  68        PLA                             A:00 X:00 Y:06 P:2E SP:24 PPU:257,132 CYC:11871
CB0D  2A        ROL A                           A:00 X:00 Y:06 P:2E SP:25 PPU:273,132 CYC:11875
CB0E  88        DEY                             A:00 X:00 Y:06 P:2E SP:25 PPU:281,132 CYC:11877
CB0F  D0 F1     BNE $CB02                       A:00 X:00 Y:05 P:2C SP:25 PPU:281,132 CYC:11879
CB02  48        PHA                             A:00 X:00 Y:05 P:2C SP:25 PPU:297,132 CYC:11882
CB03  BD 16 40  LDA $4016,X @ 4016 = 00         A:00 X:00 Y:05 P:2C SP:24 PPU:305,132 CYC:11885
CB06  85 00     STA $00 = 00                    A:00 X:00 Y:05 P:2E SP:24 PPU:313,132 CYC:11889
CB08  4A        LSR A                           A:00 X:00 Y:05 P:2E SP:24 PPU:321,132 CYC:11892
CB09  05 00     ORA $00 = 00                    A:00 X:00 Y:05 P:2E SP:24 PPU:326,132 CYC:11894
CB0B  4A        LSR A                           A:00 X:00 Y:05 P:2E SP:24 PPU:335,132 CYC:11897
CB0C  68        PLA                             A:00 X:00 Y:05 P:2E SP:24 PPU:345,132 CYC:11899
CB0D  2A        ROL A                           A:00 X:00 Y:05 P:2E SP:25 PPU:  9,133 CYC:11903
CB0E  88        DEY                             A:00 X:00 Y:05 P:2E SP:25 PPU: 17,133 CYC:11905
CB0F  D0 F1     BNE $CB02                       A:00 X:00 Y:04 P:2C SP:25 PPU: 25,133 CYC:11907
CB02  48        PHA                             A:00 X:00 Y:04 P:2C SP:25 PPU: 33,133 CYC:11910
CB03  BD 16 40  LDA $4016,X @ 4016 = 00         A:00 X:00 Y:04 P:2C SP:24 PPU: 41,133 CYC:11913
CB06  85 00     STA $00 = 00                    A:00 X:00 Y:04 P:2E SP:24 PPU: 57,133 CYC:11917
CB08  4A        LSR A                           A:00 X:00 Y:04 P:2E SP:24 PPU: 65,133 CYC:11920
CB09  05 00     ORA $00 = 00                    A:00 X:00 Y:04 P:2E SP:24 PPU: 65,133 CYC:11922
CB0B  4A        LSR A                           A:00 X:00 Y:04 P:2E SP:24 PPU: 81,133 CYC:11925
CB0C  68        PLA                             A:00 X:00 Y:04 P:2E SP:24 PPU: 81,133 CYC:11927
CB0D  2A        ROL A                           A:00 X:00 Y:04 P:2E SP:25 PPU: 97,133 CYC:11931
CB0E  88        DEY                             A:00 X:00 Y:04 P:2E SP:25 PPU:105,133 CYC:11933
CB0F  D0 F1     BNE $CB02                       A:00 X:00 Y:03 P:2C SP:25 PPU:105,133 CYC:11935
CB02  48        PHA                             A:00 X:00 Y:03 P:2C SP:25 PPU:113,133 CYC:11938
CB03  BD 16 40  LDA $4016,X @ 4016 = 00         A:00 X:00 Y:03 P:2C SP:24 PPU:129,133 CYC:11941
CB06  85 00     STA $00 = 00                    A:00 X:00 Y:03 P:2E SP:24 PPU:137,133 CYC:11945
CB08  4A        LSR A                           A:00 X:00 Y:03 P:2E SP:24 PPU:145,133 CYC:11948
CB09  05 00     ORA $00 = 00                    A:00 X:00 Y:03 P:2E SP:24 PPU:153,133 CYC:11950
CB0B  4A        LSR A                           A:00 X:00 Y:03 P:2E SP:24 PPU:161,133 CYC:11953
CB0C  68        PLA                             A:00 X:00 Y:03 P:2E SP:24 PPU:169,133 CYC:11955
CB0D  2A        ROL A                           A:00 X:00 Y:03 P:2E SP:25 PPU:177,133 CYC:11959
CB0E  88        DEY                             A:00 X:00 Y:03 P:2E SP:25 PPU:185,133 CYC:11961
CB0F  D0 F1     BNE $CB02                       A:00 X:00 Y:02 P:2C SP:25 PPU:193,133 CYC:11963
CB02  48        PHA                             A:00 X:00 Y:02 P:2C SP:25 PPU:201,133 CYC:11966
CB03  BD 16 40  LDA $4016,X @ 4016 = 00         A:00 X:00 Y:02 P:2C SP:24 PPU:209,133 CYC:11969
CB06  85 00     STA $00 = 00                    A:00 X:00 Y:02 P:2E SP:24 PPU:225,133 CYC:11973
CB08  4A        LSR A                           A:00 X:00 Y:02 P:2E SP:24 PPU:233,133 CYC:11976
CB09  05 00     ORA $00 = 00                    A:00 X:00 Y:02 P:2E SP:24 PPU:233,133 CYC:11978
CB0B  4A        LSR A                           A:00 X:00 Y:02 P:2E SP:24 PPU:249,133 CYC:11981
CB0C  68        PLA                             A:00 X:00 Y:02 P:2E SP:24 PPU:249,133 CYC:11983
CB0D  2A        ROL A                           A:00 X:00 Y:02 P:2E SP:25 PPU:265,133 CYC:11987
CB0E  88        DEY                             A:00 X:00 Y:02 P:2E SP:25 PPU:273,133 CYC:11989
CB0F  D0 F1     BNE $CB02                       A:00 X:00 Y:01 P:2C SP:25 PPU:273,133 CYC:11991
CB02  48        PHA                             A:00 X:00 Y:01 P:2C SP:25 PPU:281,133 CYC:11994
CB03  BD 16 40  LDA $4016,X @ 4016 = 00         A:00 X:00 Y:01 P:2C SP:24 PPU:297,133 CYC:11997
CB06  85 00     STA $00 = 00                    A:00 X:00 Y:01 P:2E SP:24 PPU:305,133 CYC:12001
CB08  4A        LSR A                           A:00 X:00 Y:01 P:2E SP:24 PPU:313,133 CYC:12004
CB09  05 00     ORA $00 = 00                    A:00 X:00 Y:01 P:2E SP:24 PPU:321,133 CYC:12006
CB0B  4A        LSR A                           A:00 X:00 Y:01 P:2E SP:24 PPU:326,133 CYC:12009
CB0C  68        PLA                             A:00 X:00 Y:01 P:2E SP:24 PPU:332,133 CYC:12011
CB0D  2A        ROL A                           A:00 X:00 Y:01 P:2E SP:25 PPU:345,133 CYC:12015
CB0E  88        DEY                             A:00 X:00 Y:01 P:2E SP:25 PPU:  9,134 CYC:12017
CB0F  D0 F1     BNE $CB02                       A:00 X:00 Y:00 P:2E SP:25 PPU: 17,134 CYC:12019
CB11  86 00     STX $00 = 00                    A:00 X:00 Y:00 P:2E SP:25 PPU: 17,134 CYC:12021
CB13  06 00     ASL $00 = 00                    A:00 X:00 Y:00 P:2E SP:25 PPU: 33,134 CYC:12024
CB15  A6 00     LDX $00 = 00                    A:00 X:00 Y:00 P:2E SP:25 PPU: 41,134 CYC:12029
CB17  B4 14     LDY $14,X @ 14 = 00             A:00 X:00 Y:00 P:2E SP:25 PPU: 57,134 CYC:12032
CB19  84 00     STY $00 = 00                    A:00 X:00 Y:00 P:2E SP:25 PPU: 65,134 CYC:12036
CB1B  95 14     STA $14,X @ 14 = 00             A:00 X:00 Y:00 P:2E SP:25 PPU: 73,134 CYC:12039
CB1D  95 15     STA $15,X @ 15 = 00             A:00 X:00 Y:00 P:2E SP:25 PPU: 89,134 CYC:12043
CB1F  A0 04     LDY #$04                        A:00 X:00 Y:00 P:2E SP:25 PPU: 97,134 CYC:12047
CB21  A5 02     LDA $02 = 80                    A:00 X:00 Y:04 P:2C SP:25 PPU:105,134 CYC:12049
CB23  24 00     BIT $00 = 00                    A:80 X:00 Y:04 P:AC SP:25 PPU:113,134 CYC:12052
CB25  F0 06     BEQ $CB2D                       A:80 X:00 Y:04 P:2E SP:25 PPU:121,134 CYC:12055
CB2D  38        SEC                             A:80 X:00 Y:04 P:2E SP:25 PPU:129,134 CYC:12058
CB2E  66 01     ROR $01 = 7F                    A:80 X:00 Y:04 P:2F SP:25 PPU:137,134 CYC:12060
CB30  46 02     LSR $02 = 80                    A:80 X:00 Y:04 P:AD SP:25 PPU:153,134 CYC:12065
CB32  88        DEY                             A:80 X:00 Y:04 P:2C SP:25 PPU:169,134 CYC:12070
CB33  D0 EC     BNE $CB21                       A:80 X:00 Y:03 P:2C SP:25 PPU:177,134 CYC:12072
CB21  A5 02     LDA $02 = 40                    A:80 X:00 Y:03 P:2C SP:25 PPU:185,134 CYC:12075
CB23  24 00     BIT $00 = 00                    A:40 X:00 Y:03 P:2C SP:25 PPU:193,134 CYC:12078
CB25  F0 06     BEQ $CB2D                       A:40 X:00 Y:03 P:2E SP:25 PPU:201,134 CYC:12081
CB2D  38        SEC                             A:40 X:00 Y:03 P:2E SP:25 PPU:209,134 CYC:12084
CB2E  66 01     ROR $01 = BF                    A:40 X:00 Y:03 P:2F SP:25 PPU:217,134 CYC:12086
CB30  46 02     LSR $02 = 40                    A:40 X:00 Y:03 P:AD SP:25 PPU:233,134 CYC:12091
CB32  88        DEY                             A:40 X:00 Y:03 P:2C SP:25 PPU:249,134 CYC:12096
CB33  D0 EC     BNE $CB21                       A:40 X:00 Y:02 P:2C SP:25 PPU:249,134 CYC:12098
CB21  A5 02     LDA $02 = 20                    A:40 X:00 Y:02 P:2C SP:25 PPU:257,134 CYC:12101
CB23  24 00     BIT $00 = 00                    A:20 X:00 Y:02 P:2C SP:25 PPU:273,134 CYC:12104
CB25  F0 06     BEQ $CB2D                       A:20 X:00 Y:02 P:2E SP:25 PPU:281,134 CYC:12107
CB2D  38        SEC                             A:20 X:00 Y:02 P:2E SP:25 PPU:289,134 CYC:12110
CB2E  66 01     ROR $01 = DF                    A:20 X:00 Y:02 P:2F SP:25 PPU:297,134 CYC:12112
CB30  46 02     LSR $02 = 20                    A:20 X:00 Y:02 P:AD SP:25 PPU:305,134 CYC:12117
CB32  88        DEY                             A:20 X:00 Y:02 P:2C SP:25 PPU:321,134 CYC:12122
CB33  D0 EC     BNE $CB21                       A:20 X:00 Y:01 P:2C SP:25 PPU:326,134 CYC:12124
CB21  A5 02     LDA $02 = 10                    A:20 X:00 Y:01 P:2C SP:25 PPU:335,134 CYC:12127
CB23  24 00     BIT $00 = 00                    A:10 X:00 Y:01 P:2C SP:25 PPU:345,134 CYC:12130
CB25  F0 06     BEQ $CB2D                       A:10 X:00 Y:01 P:2E SP:25 PPU:  9,135 CYC:12133
CB2D  38        SEC                             A:10 X:00 Y:01 P:2E SP:25 PPU: 17,135 CYC:12136
CB2E  66 01     ROR $01 = EF                    A:10 X:00 Y:01 P:2F SP:25 PPU: 25,135 CYC:12138
CB30  46 02     LSR $02 = 10                    A:10 X:00 Y:01 P:AD SP:25 PPU: 41,135 CYC:12143
CB32  88        DEY                             A:10 X:00 Y:01 P:2C SP:25 PPU: 57,135 CYC:12148
CB33  D0 EC     BNE $CB21                       A:10 X:00 Y:00 P:2E SP:25 PPU: 65,135 CYC:12150
CB35  A9 7F     LDA #$7F                        A:10 X:00 Y:00 P:2E SP:25 PPU: 65,135 CYC:12152
CB37  85 01     STA $01 = F7                    A:7F X:00 Y:00 P:2C SP:25 PPU: 73,135 CYC:12154
CB39  A9 80     LDA #$80                        A:7F X:00 Y:00 P:2C SP:25 PPU: 81,135 CYC:12157
CB3B  85 02     STA $02 = 08                    A:80 X:00 Y:00 P:AC SP:25 PPU: 89,135 CYC:12159
CB3D  60        RTS                             A:80 X:00 Y:00 P:AC SP:25 PPU: 97,135 CYC:12162
CAFF  E8        INX                             A:80 X:00 Y:00 P:AC SP:27 PPU:113,135 CYC:12168
CB00  A0 08     LDY #$08                        A:80 X:01 Y:00 P:2C SP:27 PPU:121,135 CYC:12170
CB02  48        PHA                             A:80 X:01 Y:08 P:2C SP:27 PPU:129,135 CYC:12172
CB03  BD 16 40  LDA $4016,X @ 4017 = 00         A:80 X:01 Y:08 P:2C SP:26 PPU:137,135 CYC:12175
CB06  85 00     STA $00 = 00                    A:00 X:01 Y:08 P:2E SP:26 PPU:153,135 CYC:12179
CB08  4A        LSR A                           A:00 X:01 Y:08 P:2E SP:26 PPU:161,135 CYC:12182
CB09  05 00     ORA $00 = 00                    A:00 X:01 Y:08 P:2E SP:26 PPU:161,135 CYC:12184
CB0B  4A        LSR A                           A:00 X:01 Y:08 P:2E SP:26 PPU:177,135 CYC:12187
CB0C  68        PLA                             A:00 X:01 Y:08 P:2E SP:26 PPU:177,135 CYC:12189
CB0D  2A        ROL A                           A:80 X:01 Y:08 P:AC SP:27 PPU:193,135 CYC:12193
CB0E  88        DEY                             A:00 X:01 Y:08 P:2F SP:27 PPU:201,135 CYC:12195
CB0F  D0 F1     BNE $CB02                       A:00 X:01 Y:07 P:2D SP:27 PPU:201,135 CYC:12197
CB02  48        PHA                             A:00 X:01 Y:07 P:2D SP:27 PPU:209,135 CYC:12200
CB03  BD 16 40  LDA $4016,X @ 4017 = 00         A:00 X:01 Y:07 P:2D SP:26 PPU:225,135 CYC:12203
CB06  85 00     STA $00 = 00                    A:00 X:01 Y:07 P:2F SP:26 PPU:233,135 CYC:12207
CB08  4A        LSR A                           A:00 X:01 Y:07 P:2F SP:26 PPU:241,135 CYC:12210
CB09  05 00     ORA $00 = 00                    A:00 X:01 Y:07 P:2E SP:26 PPU:249,135 CYC:12212
CB0B  4A        LSR A                           A:00 X:01 Y:07 P:2E SP:26 PPU:257,135 CYC:12215
CB0C  68        PLA                             A:00 X:01 Y:07 P:2E SP:26 PPU:265,135 CYC:12217
CB0D  2A        ROL A                           A:00 X:01 Y:07 P:2E SP:27 PPU:273,135 CYC:12221
CB0E  88        DEY                             A:00 X:01 Y:07 P:2E SP:27 PPU:281,135 CYC:12223
CB0F  D0 F1     BNE $CB02                       A:00 X:01 Y:06 P:2C SP:27 PPU:289,135 CYC:12225
CB02  48        PHA                             A:00 X:01 Y:06 P:2C SP:27 PPU:297,135 CYC:12228
CB03  BD 16 40  LDA $4016,X @ 4017 = 00         A:00 X:01 Y:06 P:2C SP:26 PPU:305,135 CYC:12231
CB06  85 00     STA $00 = 00                    A:00 X:01 Y:06 P:2E SP:26 PPU:321,135 CYC:12235
CB08  4A        LSR A                           A:00 X:01 Y:06 P:2E SP:26 PPU:323,135 CYC:12238
CB09  05 00     ORA $00 = 00                    A:00 X:01 Y:06 P:2E SP:26 PPU:329,135 CYC:12240
CB0B  4A        LSR A                           A:00 X:01 Y:06 P:2E SP:26 PPU:345,135 CYC:12243
CB0C  68        PLA                             A:00 X:01 Y:06 P:2E SP:26 PPU:345,135 CYC:12245
CB0D  2A        ROL A                           A:00 X:01 Y:06 P:2E SP:27 PPU: 17,136 CYC:12249
CB0E  88        DEY                             A:00 X:01 Y:06 P:2E SP:27 PPU: 17,136 CYC:12251
CB0F  D0 F1     BNE $CB02                       A:00 X:01 Y:05 P:2C SP:27 PPU: 25,136 CYC:12253
CB02  48        PHA                             A:00 X:01 Y:05 P:2C SP:27 PPU: 33,136 CYC:12256
CB03  BD 16 40  LDA $4016,X @ 4017 = 00         A:00 X:01 Y:05 P:2C SP:26 PPU: 41,136 CYC:12259
CB06  85 00     STA $00 = 00                    A:00 X:01 Y:05 P:2E SP:26 PPU: 57,136 CYC:12263
CB08  4A        LSR A                           A:00 X:01 Y:05 P:2E SP:26 PPU: 65,136 CYC:12266
CB09  05 00     ORA $00 = 00                    A:00 X:01 Y:05 P:2E SP:26 PPU: 73,136 CYC:12268
CB0B  4A        LSR A                           A:00 X:01 Y:05 P:2E SP:26 PPU: 81,136 CYC:12271
CB0C  68        PLA                             A:00 X:01 Y:05 P:2E SP:26 PPU: 89,136 CYC:12273
CB0D  2A        ROL A                           A:00 X:01 Y:05 P:2E SP:27 PPU: 97,136 CYC:12277
CB0E  88        DEY                             A:00 X:01 Y:05 P:2E SP:27 PPU:105,136 CYC:12279
CB0F  D0 F1     BNE $CB02                       A:00 X:01 Y:04 P:2C SP:27 PPU:113,136 CYC:12281
CB02  48        PHA                             A:00 X:01 Y:04 P:2C SP:27 PPU:121,136 CYC:12284
CB03  BD 16 40  LDA $4016,X @ 4017 = 00         A:00 X:01 Y:04 P:2C SP:26 PPU:129,136 CYC:12287
CB06  85 00     STA $00 = 00                    A:00 X:01 Y:04 P:2E SP:26 PPU:137,136 CYC:12291
CB08  4A        LSR A                           A:00 X:01 Y:04 P:2E SP:26 PPU:153,136 CYC:12294
CB09  05 00     ORA $00 = 00                    A:00 X:01 Y:04 P:2E SP:26 PPU:153,136 CYC:12296
CB0B  4A        LSR A                           A:00 X:01 Y:04 P:2E SP:26 PPU:161,136 CYC:12299
CB0C  68        PLA                             A:00 X:01 Y:04 P:2E SP:26 PPU:169,136 CYC:12301
CB0D  2A        ROL A                           A:00 X:01 Y:04 P:2E SP:27 PPU:185,136 CYC:12305
CB0E  88        DEY                             A:00 X:01 Y:04 P:2E SP:27 PPU:185,136 CYC:12307
CB0F  D0 F1     BNE $CB02                       A:00 X:01 Y:03 P:2C SP:27 PPU:193,136 CYC:12309
CB02  48        PHA                             A:00 X:01 Y:03 P:2C SP:27 PPU:201,136 CYC:12312
CB03  BD 16 40  LDA $4016,X @ 4017 = 00         A:00 X:01 Y:03 P:2C SP:26 PPU:209,136 CYC:12315
CB06  85 00     STA $00 = 00                    A:00 X:01 Y:03 P:2E SP:26 PPU:225,136 CYC:12319
CB08  4A        LSR A                           A:00 X:01 Y:03 P:2E SP:26 PPU:233,136 CYC:12322
CB09  05 00     ORA $00 = 00                    A:00 X:01 Y:03 P:2E SP:26 PPU:241,136 CYC:12324
CB0B  4A        LSR A                           A:00 X:01 Y:03 P:2E SP:26 PPU:249,136 CYC:12327
CB0C  68        PLA                             A:00 X:01 Y:03 P:2E SP:26 PPU:257,136 CYC:12329
CB0D  2A        ROL A                           A:00 X:01 Y:03 P:2E SP:27 PPU:265,136 CYC:12333
CB0E  88        DEY                             A:00 X:01 Y:03 P:2E SP:27 PPU:273,136 CYC:12335
CB0F  D0 F1     BNE $CB02                       A:00 X:01 Y:02 P:2C SP:27 PPU:281,136 CYC:12337
CB02  48        PHA                             A:00 X:01 Y:02 P:2C SP:27 PPU:289,136 CYC:12340
CB03  BD 16 40  LDA $4016,X @ 4017 = 00         A:00 X:01 Y:02 P:2C SP:26 PPU:297,136 CYC:12343
CB06  85 00     STA $00 = 00                    A:00 X:01 Y:02 P:2E SP:26 PPU:305,136 CYC:12347
CB08  4A        LSR A                           A:00 X:01 Y:02 P:2E SP:26 PPU:321,136 CYC:12350
CB09  05 00     ORA $00 = 00                    A:00 X:01 Y:02 P:2E SP:26 PPU:321,136 CYC:12352
CB0B  4A        LSR A                           A:00 X:01 Y:02 P:2E SP:26 PPU:329,136 CYC:12355
CB0C  68        PLA                             A:00 X:01 Y:02 P:2E SP:26 PPU:335,136 CYC:12357
CB0D  2A        ROL A                           A:00 X:01 Y:02 P:2E SP:27 PPU:  9,137 CYC:12361
CB0E  88        DEY                             A:00 X:01 Y:02 P:2E SP:27 PPU:  9,137 CYC:12363
CB0F  D0 F1     BNE $CB02                       A:00 X:01 Y:01 P:2C SP:27 PPU: 17,137 CYC:12365
CB02  48        PHA                             A:00 X:01 Y:01 P:2C SP:27 PPU: 25,137 CYC:12368
CB03  BD 16 40  LDA $4016,X @ 4017 = 00         A:00 X:01 Y:01 P:2C SP:26 PPU: 33,137 CYC:12371
CB06  85 00     STA $00 = 00                    A:00 X:01 Y:01 P:2E SP:26 PPU: 49,137 CYC:12375
CB08  4A        LSR A                           A:00 X:01 Y:01 P:2E SP:26 PPU: 57,137 CYC:12378
CB09  05 00     ORA $00 = 00                    A:00 X:01 Y:01 P:2E SP:26 PPU: 65,137 CYC:12380
CB0B  4A        LSR A                           A:00 X:01 Y:01 P:2E SP:26 PPU: 73,137 CYC:12383
CB0C  68        PLA                             A:00 X:01 Y:01 P:2E SP:26 PPU: 81,137 CYC:12385
CB0D  2A        ROL A                           A:00 X:01 Y:01 P:2E SP:27 PPU: 89,137 CYC:12389
CB0E  88        DEY                             A:00 X:01 Y:01 P:2E SP:27 PPU: 97,137 CYC:12391
CB0F  D0 F1     BNE $CB02                       A:00 X:01 Y:00 P:2E SP:27 PPU:105,137 CYC:12393
CB11  86 00     STX $00 = 00                    A:00 X:01 Y:00 P:2E SP:27 PPU:105,137 CYC:12395
CB13  06 00     ASL $00 = 01                    A:00 X:01 Y:00 P:2E SP:27 PPU:113,137 CYC:12398
CB15  A6 00     LDX $00 = 02                    A:00 X:01 Y:00 P:2C SP:27 PPU:129,137 CYC:12403
CB17  B4 14     LDY $14,X @ 16 = 00             A:00 X:02 Y:00 P:2C SP:27 PPU:137,137 CYC:12406
CB19  84 00     STY $00 = 02                    A:00 X:02 Y:00 P:2E SP:27 PPU:153,137 CYC:12410
CB1B  95 14     STA $14,X @ 16 = 00             A:00 X:02 Y:00 P:2E SP:27 PPU:161,137 CYC:12413
CB1D  95 15     STA $15,X @ 17 = 00             A:00 X:02 Y:00 P:2E SP:27 PPU:177,137 CYC:12417
CB1F  A0 04     LDY #$04                        A:00 X:02 Y:00 P:2E SP:27 PPU:185,137 CYC:12421
CB21  A5 02     LDA $02 = 80                    A:00 X:02 Y:04 P:2C SP:27 PPU:193,137 CYC:12423
CB23  24 00     BIT $00 = 00                    A:80 X:02 Y:04 P:AC SP:27 PPU:201,137 CYC:12426
CB25  F0 06     BEQ $CB2D                       A:80 X:02 Y:04 P:2E SP:27 PPU:209,137 CYC:12429
CB2D  38        SEC                             A:80 X:02 Y:04 P:2E SP:27 PPU:217,137 CYC:12432
CB2E  66 01     ROR $01 = 7F                    A:80 X:02 Y:04 P:2F SP:27 PPU:225,137 CYC:12434
CB30  46 02     LSR $02 = 80                    A:80 X:02 Y:04 P:AD SP:27 PPU:241,137 CYC:12439
CB32  88        DEY                             A:80 X:02 Y:04 P:2C SP:27 PPU:257,137 CYC:12444
CB33  D0 EC     BNE $CB21                       A:80 X:02 Y:03 P:2C SP:27 PPU:257,137 CYC:12446
CB21  A5 02     LDA $02 = 40                    A:80 X:02 Y:03 P:2C SP:27 PPU:273,137 CYC:12449
CB23  24 00     BIT $00 = 00                    A:40 X:02 Y:03 P:2C SP:27 PPU:281,137 CYC:12452
CB25  F0 06     BEQ $CB2D                       A:40 X:02 Y:03 P:2E SP:27 PPU:289,137 CYC:12455
CB2D  38        SEC                             A:40 X:02 Y:03 P:2E SP:27 PPU:297,137 CYC:12458
CB2E  66 01     ROR $01 = BF                    A:40 X:02 Y:03 P:2F SP:27 PPU:305,137 CYC:12460
CB30  46 02     LSR $02 = 40                    A:40 X:02 Y:03 P:AD SP:27 PPU:321,137 CYC:12465
CB32  88        DEY                             A:40 X:02 Y:03 P:2C SP:27 PPU:329,137 CYC:12470
CB33  D0 EC     BNE $CB21                       A:40 X:02 Y:02 P:2C SP:27 PPU:335,137 CYC:12472
CB21  A5 02     LDA $02 = 20                    A:40 X:02 Y:02 P:2C SP:27 PPU:345,137 CYC:12475
CB23  24 00     BIT $00 = 00                    A:20 X:02 Y:02 P:2C SP:27 PPU:  9,138 CYC:12478
CB25  F0 06     BEQ $CB2D                       A:20 X:02 Y:02 P:2E SP:27 PPU: 17,138 CYC:12481
CB2D  38        SEC                             A:20 X:02 Y:02 P:2E SP:27 PPU: 33,138 CYC:12484
CB2E  66 01     ROR $01 = DF                    A:20 X:02 Y:02 P:2F SP:27 PPU: 33,138 CYC:12486
CB30  46 02     LSR $02 = 20                    A:20 X:02 Y:02 P:AD SP:27 PPU: 49,138 CYC:12491
CB32  88        DEY                             A:20 X:02 Y:02 P:2C SP:27 PPU: 65,138 CYC:12496
CB33  D0 EC     BNE $CB21                       A:20 X:02 Y:01 P:2C SP:27 PPU: 73,138 CYC:12498
CB21  A5 02     LDA $02 = 10                    A:20 X:02 Y:01 P:2C SP:27 PPU: 81,138 CYC:12501
CB23  24 00     BIT $00 = 00                    A:10 X:02 Y:01 P:2C SP:27 PPU: 89,138 CYC:12504
CB25  F0 06     BEQ $CB2D                       A:10 X:02 Y:01 P:2E SP:27 PPU: 97,138 CYC:12507
CB2D  38        SEC                             A:10 X:02 Y:01 P:2E SP:27 PPU:105,138 CYC:12510
CB2E  66 01     ROR $01 = EF                    A:10 X:02 Y:01 P:2F SP:27 PPU:113,138 CYC:12512
CB30  46 02     LSR $02 = 10                    A:10 X:02 Y:01 P:AD SP:27 PPU:129,138 CYC:12517
CB32  88        DEY                             A:10 X:02 Y:01 P:2C SP:27 PPU:145,138 CYC:12522
CB33  D0 EC     BNE $CB21                       A:10 X:02 Y:00 P:2E SP:27 PPU:153,138 CYC:12524
CB35  A9 7F     LDA #$7F                        A:10 X:02 Y:00 P:2E SP:27 PPU:153,138 CYC:12526
CB37  85 01     STA $01 = F7                    A:7F X:02 Y:00 P:2C SP:27 PPU:161,138 CYC:12528
CB39  A9 80     LDA #$80                        A:7F X:02 Y:00 P:2C SP:27 PPU:169,138 CYC:12531
CB3B  85 02     STA $02 = 08                    A:80 X:02 Y:00 P:AC SP:27 PPU:177,138 CYC:12533
CB3D  60        RTS                             A:80 X:02 Y:00 P:AC SP:27 PPU:185,138 CYC:12536
C0C6  20 1E F9  JSR $F91E                       A:80 X:02 Y:00 P:AC SP:29 PPU:201,138 CYC:12542
F91E  A9 FF     LDA #$FF                        A:80 X:02 Y:00 P:AC SP:27 PPU:225,138 CYC:12548
F920  8D 17 40  STA $4017 = 00                  A:FF X:02 Y:00 P:AC SP:27 PPU:225,138 CYC:12550
F923  20 EB F9  JSR $F9EB                       A:FF X:02 Y:00 P:AC SP:27 PPU:241,138 CYC:12554
F9EB  A4 FF     LDY $FF = 00                    A:FF X:02 Y:00 P:AC SP:25 PPU:257,138 CYC:12560
F9ED  A5 F0     LDA $F0 = 00                    A:FF X:02 Y:00 P:2E SP:25 PPU:265,138 CYC:12563
F9EF  46 FF     LSR $FF = 00                    A:00 X:02 Y:00 P:2E SP:25 PPU:273,138 CYC:12566
F9F1  B0 B8     BCS $F9AB                       A:00 X:02 Y:00 P:2E SP:25 PPU:289,138 CYC:12571
F9F3  4A        LSR A                           A:00 X:02 Y:00 P:2E SP:25 PPU:297,138 CYC:12573
F9F4  B0 BB     BCS $F9B1                       A:00 X:02 Y:00 P:2E SP:25 PPU:305,138 CYC:12575
F9F6  46 FF     LSR $FF = 00                    A:00 X:02 Y:00 P:2E SP:25 PPU:305,138 CYC:12577
F9F8  B0 CE     BCS $F9C8                       A:00 X:02 Y:00 P:2E SP:25 PPU:321,138 CYC:12582
F9FA  4A        LSR A                           A:00 X:02 Y:00 P:2E SP:25 PPU:326,138 CYC:12584
F9FB  B0 D3     BCS $F9D0                       A:00 X:02 Y:00 P:2E SP:25 PPU:332,138 CYC:12586
F9FD  46 FF     LSR $FF = 00                    A:00 X:02 Y:00 P:2E SP:25 PPU:345,138 CYC:12588
F9FF  B0 0B     BCS $FA0C                       A:00 X:02 Y:00 P:2E SP:25 PPU:  9,139 CYC:12593
FA01  4A        LSR A                           A:00 X:02 Y:00 P:2E SP:25 PPU: 17,139 CYC:12595
FA02  B0 17     BCS $FA1B                       A:00 X:02 Y:00 P:2E SP:25 PPU: 25,139 CYC:12597
FA04  46 FF     LSR $FF = 00                    A:00 X:02 Y:00 P:2E SP:25 PPU: 33,139 CYC:12599
FA06  B0 38     BCS $FA40                       A:00 X:02 Y:00 P:2E SP:25 PPU: 41,139 CYC:12604
FA08  4A        LSR A                           A:00 X:02 Y:00 P:2E SP:25 PPU: 49,139 CYC:12606
FA09  B0 3F     BCS $FA4A                       A:00 X:02 Y:00 P:2E SP:25 PPU: 57,139 CYC:12608
FA0B  60        RTS                             A:00 X:02 Y:00 P:2E SP:25 PPU: 65,139 CYC:12610
F926  20 C4 FA  JSR $FAC4                       A:00 X:02 Y:00 P:2E SP:27 PPU: 81,139 CYC:12616
FAC4  A4 FE     LDY $FE = 00                    A:00 X:02 Y:00 P:2E SP:25 PPU: 97,139 CYC:12622
FAC6  A5 F1     LDA $F1 = 00                    A:00 X:02 Y:00 P:2E SP:25 PPU:105,139 CYC:12625
FAC8  46 FE     LSR $FE = 00                    A:00 X:02 Y:00 P:2E SP:25 PPU:113,139 CYC:12628
FACA  B0 98     BCS $FA64                       A:00 X:02 Y:00 P:2E SP:25 PPU:129,139 CYC:12633
FACC  4A        LSR A                           A:00 X:02 Y:00 P:2E SP:25 PPU:137,139 CYC:12635
FACD  B0 9C     BCS $FA6B                       A:00 X:02 Y:00 P:2E SP:25 PPU:145,139 CYC:12637
FACF  46 FE     LSR $FE = 00                    A:00 X:02 Y:00 P:2E SP:25 PPU:153,139 CYC:12639
FAD1  B0 B0     BCS $FA83                       A:00 X:02 Y:00 P:2E SP:25 PPU:161,139 CYC:12644
FAD3  4A        LSR A                           A:00 X:02 Y:00 P:2E SP:25 PPU:169,139 CYC:12646
FAD4  B0 BE     BCS $FA94                       A:00 X:02 Y:00 P:2E SP:25 PPU:177,139 CYC:12648
FAD6  46 FE     LSR $FE = 00                    A:00 X:02 Y:00 P:2E SP:25 PPU:185,139 CYC:12650
FAD8  B0 12     BCS $FAEC                       A:00 X:02 Y:00 P:2E SP:25 PPU:201,139 CYC:12655
FADA  4A        LSR A                           A:00 X:02 Y:00 P:2E SP:25 PPU:201,139 CYC:12657
FADB  B0 D8     BCS $FAB5                       A:00 X:02 Y:00 P:2E SP:25 PPU:209,139 CYC:12659
FADD  4A        LSR A                           A:00 X:02 Y:00 P:2E SP:25 PPU:217,139 CYC:12661
FADE  B0 29     BCS $FB09                       A:00 X:02 Y:00 P:2E SP:25 PPU:225,139 CYC:12663
FAE0  46 FE     LSR $FE = 00                    A:00 X:02 Y:00 P:2E SP:25 PPU:225,139 CYC:12665
FAE2  B0 15     BCS $FAF9                       A:00 X:02 Y:00 P:2E SP:25 PPU:241,139 CYC:12670
FAE4  46 FE     LSR $FE = 00                    A:00 X:02 Y:00 P:2E SP:25 PPU:249,139 CYC:12672
FAE6  B0 2F     BCS $FB17                       A:00 X:02 Y:00 P:2E SP:25 PPU:265,139 CYC:12677
FAE8  4A        LSR A                           A:00 X:02 Y:00 P:2E SP:25 PPU:273,139 CYC:12679
FAE9  B0 CA     BCS $FAB5                       A:00 X:02 Y:00 P:2E SP:25 PPU:273,139 CYC:12681
FAEB  60        RTS                             A:00 X:02 Y:00 P:2E SP:25 PPU:281,139 CYC:12683
F929  20 A1 FB  JSR $FBA1                       A:00 X:02 Y:00 P:2E SP:27 PPU:297,139 CYC:12689
FBA1  A4 FC     LDY $FC = 00                    A:00 X:02 Y:00 P:2E SP:25 PPU:321,139 CYC:12695
FBA3  A5 F2     LDA $F2 = 00                    A:00 X:02 Y:00 P:2E SP:25 PPU:323,139 CYC:12698
FBA5  46 FC     LSR $FC = 00                    A:00 X:02 Y:00 P:2E SP:25 PPU:332,139 CYC:12701
FBA7  B0 C8     BCS $FB71                       A:00 X:02 Y:00 P:2E SP:25 PPU:  9,140 CYC:12706
FBA9  4A        LSR A                           A:00 X:02 Y:00 P:2E SP:25 PPU:  9,140 CYC:12708
FBAA  B0 CC     BCS $FB78                       A:00 X:02 Y:00 P:2E SP:25 PPU: 17,140 CYC:12710
FBAC  46 FC     LSR $FC = 00                    A:00 X:02 Y:00 P:2E SP:25 PPU: 25,140 CYC:12712
FBAE  B0 0B     BCS $FBBB                       A:00 X:02 Y:00 P:2E SP:25 PPU: 41,140 CYC:12717
FBB0  4A        LSR A                           A:00 X:02 Y:00 P:2E SP:25 PPU: 41,140 CYC:12719
FBB1  B0 18     BCS $FBCB                       A:00 X:02 Y:00 P:2E SP:25 PPU: 49,140 CYC:12721
FBB3  46 FC     LSR $FC = 00                    A:00 X:02 Y:00 P:2E SP:25 PPU: 57,140 CYC:12723
FBB5  B0 24     BCS $FBDB                       A:00 X:02 Y:00 P:2E SP:25 PPU: 73,140 CYC:12728
FBB7  4A        LSR A                           A:00 X:02 Y:00 P:2E SP:25 PPU: 81,140 CYC:12730
FBB8  B0 31     BCS $FBEB                       A:00 X:02 Y:00 P:2E SP:25 PPU: 81,140 CYC:12732
FBBA  60        RTS                             A:00 X:02 Y:00 P:2E SP:25 PPU: 89,140 CYC:12734
F92C  20 FC FB  JSR $FBFC                       A:00 X:02 Y:00 P:2E SP:27 PPU:105,140 CYC:12740
FBFC  A5 FB     LDA $FB = 00                    A:00 X:02 Y:00 P:2E SP:25 PPU:129,140 CYC:12746
FBFE  D0 05     BNE $FC05                       A:00 X:02 Y:00 P:2E SP:25 PPU:137,140 CYC:12749
FC00  A5 F3     LDA $F3 = 00                    A:00 X:02 Y:00 P:2E SP:25 PPU:137,140 CYC:12751
FC02  D0 4D     BNE $FC51                       A:00 X:02 Y:00 P:2E SP:25 PPU:153,140 CYC:12754
FC04  60        RTS                             A:00 X:02 Y:00 P:2E SP:25 PPU:153,140 CYC:12756
F92F  A9 00     LDA #$00                        A:00 X:02 Y:00 P:2E SP:27 PPU:177,140 CYC:12762
F931  85 FF     STA $FF = 00                    A:00 X:02 Y:00 P:2E SP:27 PPU:177,140 CYC:12764
F933  85 FE     STA $FE = 00                    A:00 X:02 Y:00 P:2E SP:27 PPU:185,140 CYC:12767
F935  85 FC     STA $FC = 00                    A:00 X:02 Y:00 P:2E SP:27 PPU:201,140 CYC:12770
F937  85 FB     STA $FB = 00                    A:00 X:02 Y:00 P:2E SP:27 PPU:209,140 CYC:12773
F939  AC 11 07  LDY $0711 = 00                  A:00 X:02 Y:00 P:2E SP:27 PPU:217,140 CYC:12776
F93C  A5 F3     LDA $F3 = 00                    A:00 X:02 Y:00 P:2E SP:27 PPU:225,140 CYC:12780
F93E  29 0C     AND #$0C                        A:00 X:02 Y:00 P:2E SP:27 PPU:233,140 CYC:12783
F940  F0 07     BEQ $F949                       A:00 X:02 Y:00 P:2E SP:27 PPU:241,140 CYC:12785
F949  98        TYA                             A:00 X:02 Y:00 P:2E SP:27 PPU:249,140 CYC:12788
F94A  F0 03     BEQ $F94F                       A:00 X:02 Y:00 P:2E SP:27 PPU:257,140 CYC:12790
F94F  8C 11 40  STY $4011 = 00                  A:00 X:02 Y:00 P:2E SP:27 PPU:265,140 CYC:12793
F952  60        RTS                             A:00 X:02 Y:00 P:2E SP:27 PPU:281,140 CYC:12797
C0C9  A5 53     LDA $53 = 00                    A:00 X:02 Y:00 P:2E SP:29 PPU:297,140 CYC:12803
C0CB  F0 06     BEQ $C0D3                       A:00 X:02 Y:00 P:2E SP:29 PPU:305,140 CYC:12806
C0D3  A5 51     LDA $51 = 01                    A:00 X:02 Y:00 P:2E SP:29 PPU:313,140 CYC:12809
C0D5  F0 4F     BEQ $C126                       A:01 X:02 Y:00 P:2C SP:29 PPU:321,140 CYC:12812
C0D7  AE 4C 03  LDX $034C = 02                  A:01 X:02 Y:00 P:2C SP:29 PPU:326,140 CYC:12814
C0DA  F0 3E     BEQ $C11A                       A:01 X:02 Y:00 P:2C SP:29 PPU:345,140 CYC:12818
C0DC  CA        DEX                             A:01 X:02 Y:00 P:2C SP:29 PPU:345,140 CYC:12820
C0DD  F0 24     BEQ $C103                       A:01 X:01 Y:00 P:2C SP:29 PPU:  9,141 CYC:12822
C0DF  CA        DEX                             A:01 X:01 Y:00 P:2C SP:29 PPU: 17,141 CYC:12824
C0E0  D0 1E     BNE $C100                       A:01 X:00 Y:00 P:2E SP:29 PPU: 17,141 CYC:12826
C0E2  A5 11     LDA $11 = 1F                    A:01 X:00 Y:00 P:2E SP:29 PPU: 25,141 CYC:12828
C0E4  29 EF     AND #$EF                        A:1F X:00 Y:00 P:2C SP:29 PPU: 33,141 CYC:12831
C0E6  8D 01 20  STA $2001 = 1F                  A:0F X:00 Y:00 P:2C SP:29 PPU: 41,141 CYC:12833
C0E9  85 11     STA $11 = 1F                    A:0F X:00 Y:00 P:2C SP:29 PPU: 57,141 CYC:12837
C0EB  A5 15     LDA $15 = 00                    A:0F X:00 Y:00 P:2C SP:29 PPU: 65,141 CYC:12840
C0ED  29 10     AND #$10                        A:00 X:00 Y:00 P:2E SP:29 PPU: 73,141 CYC:12843
C0EF  F0 47     BEQ $C138                       A:00 X:00 Y:00 P:2E SP:29 PPU: 81,141 CYC:12845
C138  20 41 C1  JSR $C141                       A:00 X:00 Y:00 P:2E SP:29 PPU: 89,141 CYC:12849
C141  AD 02 20  LDA $2002 = 0F                  A:00 X:00 Y:00 P:2E SP:27 PPU:105,141 CYC:12855
C144  A5 10     LDA $10 = 11                    A:0F X:00 Y:00 P:2C SP:27 PPU:121,141 CYC:12859
C146  09 80     ORA #$80                        A:11 X:00 Y:00 P:2C SP:27 PPU:129,141 CYC:12862
C148  85 10     STA $10 = 11                    A:91 X:00 Y:00 P:AC SP:27 PPU:137,141 CYC:12864
C14A  8D 00 20  STA $2000 = 11                  A:91 X:00 Y:00 P:AC SP:27 PPU:145,141 CYC:12867
C14D  60        RTS                             A:91 X:00 Y:00 P:AC SP:27 PPU:153,141 CYC:12871
C13B  68        PLA                             A:91 X:00 Y:00 P:AC SP:29 PPU:177,141 CYC:12877
C13C  A8        TAY                             A:10 X:00 Y:00 P:2C SP:2A PPU:185,141 CYC:12881
C13D  68        PLA                             A:10 X:00 Y:10 P:2C SP:2A PPU:193,141 CYC:12883
C13E  AA        TAX                             A:2D X:00 Y:10 P:2C SP:2B PPU:201,141 CYC:12887
C13F  68        PLA                             A:2D X:2D Y:10 P:2C SP:2B PPU:209,141 CYC:12889
C140  40        RTI                             A:FF X:2D Y:10 P:AC SP:2C PPU:225,141 CYC:12893
00BC  00        BRK                             A:FF X:2D Y:10 P:A8 SP:2F PPU:241,141 CYC:12899
C076  48        PHA                             A:FF X:2D Y:10 P:AC SP:2C PPU:257,141 CYC:12906
C077  8A        TXA                             A:FF X:2D Y:10 P:AC SP:2B PPU:273,141 CYC:12909
C078  48        PHA                             A:2D X:2D Y:10 P:2C SP:2B PPU:273,141 CYC:12911
C079  98        TYA                             A:2D X:2D Y:10 P:2C SP:2A PPU:281,141 CYC:12914
C07A  48        PHA                             A:10 X:2D Y:10 P:2C SP:2A PPU:289,141 CYC:12916
C07B  A5 10     LDA $10 = 91                    A:10 X:2D Y:10 P:2C SP:29 PPU:297,141 CYC:12919
C07D  A6 DE     LDX $DE = 00                    A:91 X:2D Y:10 P:AC SP:29 PPU:305,141 CYC:12922
C07F  F0 02     BEQ $C083                       A:91 X:00 Y:10 P:2E SP:29 PPU:321,141 CYC:12925
C083  29 7F     AND #$7F                        A:91 X:00 Y:10 P:2E SP:29 PPU:323,141 CYC:12928
C085  20 48 C1  JSR $C148                       A:11 X:00 Y:10 P:2C SP:29 PPU:329,141 CYC:12930
C148  85 10     STA $10 = 91                    A:11 X:00 Y:10 P:2C SP:27 PPU:  9,142 CYC:12936
C14A  8D 00 20  STA $2000 = 91                  A:11 X:00 Y:10 P:2C SP:27 PPU: 17,142 CYC:12939
C14D  60        RTS                             A:11 X:00 Y:10 P:2C SP:27 PPU: 25,142 CYC:12943
C088  A5 52     LDA $52 = 00                    A:11 X:00 Y:10 P:2C SP:29 PPU: 41,142 CYC:12949
C08A  D0 09     BNE $C095                       A:00 X:00 Y:10 P:2E SP:29 PPU: 57,142 CYC:12952
C08C  A5 11     LDA $11 = 0F                    A:00 X:00 Y:10 P:2E SP:29 PPU: 57,142 CYC:12954
C08E  09 1E     ORA #$1E                        A:0F X:00 Y:10 P:2C SP:29 PPU: 65,142 CYC:12957
C090  8D 01 20  STA $2001 = 0F                  A:1F X:00 Y:10 P:2C SP:29 PPU: 73,142 CYC:12959
C093  85 11     STA $11 = 0F                    A:1F X:00 Y:10 P:2C SP:29 PPU: 89,142 CYC:12963
C095  A9 00     LDA #$00                        A:1F X:00 Y:10 P:2C SP:29 PPU: 97,142 CYC:12966
C097  8D 03 20  STA $2003 = 00                  A:00 X:00 Y:10 P:2E SP:29 PPU:105,142 CYC:12968
C09A  A9 02     LDA #$02                        A:00 X:00 Y:10 P:2E SP:29 PPU:113,142 CYC:12972
C09C  8D 14 40  STA $4014 = 00                  A:02 X:00 Y:10 P:2C SP:29 PPU:121,142 CYC:12974
C09F  A6 52     LDX $52 = 00                    A:02 X:00 Y:10 P:2C SP:29 PPU:289,146 CYC:13491
C0A1  20 50 C1  JSR $C150                       A:02 X:00 Y:10 P:2E SP:29 PPU:297,146 CYC:13494
C150  BD 00 C0  LDA $C000,X @ C000 = 01         A:02 X:00 Y:10 P:2E SP:27 PPU:321,146 CYC:13500
C153  85 00     STA $00 = 00                    A:01 X:00 Y:10 P:2C SP:27 PPU:326,146 CYC:13504
C155  BD 0A C0  LDA $C00A,X @ C00A = 03         A:01 X:00 Y:10 P:2C SP:27 PPU:335,146 CYC:13507
C158  85 01     STA $01 = 7F                    A:03 X:00 Y:10 P:2C SP:27 PPU:  9,147 CYC:13511
C15A  20 78 CB  JSR $CB78                       A:03 X:00 Y:10 P:2C SP:27 PPU: 17,147 CYC:13514
CB78  AE 02 20  LDX $2002 = 00                  A:03 X:00 Y:10 P:2C SP:25 PPU: 33,147 CYC:13520
CB7B  A0 00     LDY #$00                        A:03 X:00 Y:10 P:2E SP:25 PPU: 41,147 CYC:13524
CB7D  B1 00     LDA ($00),Y = 0301 @ 0301 = 00  A:03 X:00 Y:00 P:2E SP:25 PPU: 49,147 CYC:13526
CB7F  D0 BD     BNE $CB3E                       A:00 X:00 Y:00 P:2E SP:25 PPU: 65,147 CYC:13531
CB81  A5 12     LDA $12 = 01                    A:00 X:00 Y:00 P:2E SP:25 PPU: 73,147 CYC:13533
CB83  8D 05 20  STA $2005 = 9F                  A:01 X:00 Y:00 P:2C SP:25 PPU: 81,147 CYC:13536
CB86  A5 13     LDA $13 = 9F                    A:01 X:00 Y:00 P:2C SP:25 PPU: 89,147 CYC:13540
CB88  8D 05 20  STA $2005 = 01                  A:9F X:00 Y:00 P:AC SP:25 PPU:105,147 CYC:13543
CB8B  60        RTS                             A:9F X:00 Y:00 P:AC SP:25 PPU:113,147 CYC:13547
C15D  A9 00     LDA #$00                        A:9F X:00 Y:00 P:AC SP:27 PPU:129,147 CYC:13553
C15F  8D 00 03  STA $0300 = 00                  A:00 X:00 Y:00 P:2E SP:27 PPU:137,147 CYC:13555
C162  8D 01 03  STA $0301 = 00                  A:00 X:00 Y:00 P:2E SP:27 PPU:153,147 CYC:13559
C165  60        RTS                             A:00 X:00 Y:00 P:2E SP:27 PPU:161,147 CYC:13563
C0A4  85 52     STA $52 = 00                    A:00 X:00 Y:00 P:2E SP:29 PPU:177,147 CYC:13569
C0A6  85 DE     STA $DE = 00                    A:00 X:00 Y:00 P:2E SP:29 PPU:185,147 CYC:13572
C0A8  A9 3F     LDA #$3F                        A:00 X:00 Y:00 P:2E SP:29 PPU:201,147 CYC:13575
C0AA  8D 06 20  STA $2006 = 00                  A:3F X:00 Y:00 P:2C SP:29 PPU:201,147 CYC:13577
C0AD  A9 00     LDA #$00                        A:3F X:00 Y:00 P:2C SP:29 PPU:217,147 CYC:13581
C0AF  8D 06 20  STA $2006 = 3F                  A:00 X:00 Y:00 P:2E SP:29 PPU:225,147 CYC:13583
C0B2  8D 06 20  STA $2006 = 00                  A:00 X:00 Y:00 P:2E SP:29 PPU:233,147 CYC:13587
C0B5  8D 06 20  STA $2006 = 00                  A:00 X:00 Y:00 P:2E SP:29 PPU:249,147 CYC:13591
C0B8  AD 02 20  LDA $2002 = 00                  A:00 X:00 Y:00 P:2E SP:29 PPU:257,147 CYC:13595
C0BB  20 81 CB  JSR $CB81                       A:00 X:00 Y:00 P:2E SP:29 PPU:273,147 CYC:13599
CB81  A5 12     LDA $12 = 01                    A:00 X:00 Y:00 P:2E SP:27 PPU:289,147 CYC:13605
CB83  8D 05 20  STA $2005 = 9F                  A:01 X:00 Y:00 P:2C SP:27 PPU:297,147 CYC:13608
CB86  A5 13     LDA $13 = 9F                    A:01 X:00 Y:00 P:2C SP:27 PPU:305,147 CYC:13612
CB88  8D 05 20  STA $2005 = 01                  A:9F X:00 Y:00 P:AC SP:27 PPU:321,147 CYC:13615
CB8B  60        RTS                             A:9F X:00 Y:00 P:AC SP:27 PPU:326,147 CYC:13619
C0BE  A5 10     LDA $10 = 11                    A:9F X:00 Y:00 P:AC SP:29 PPU:345,147 CYC:13625
C0C0  8D 00 20  STA $2000 = 11                  A:11 X:00 Y:00 P:2C SP:29 PPU:  9,148 CYC:13628
C0C3  20 ED CA  JSR $CAED                       A:11 X:00 Y:00 P:2C SP:29 PPU: 25,148 CYC:13632
CAED  20 35 CB  JSR $CB35                       A:11 X:00 Y:00 P:2C SP:27 PPU: 41,148 CYC:13638
CB35  A9 7F     LDA #$7F                        A:11 X:00 Y:00 P:2C SP:25 PPU: 57,148 CYC:13644
CB37  85 01     STA $01 = 03                    A:7F X:00 Y:00 P:2C SP:25 PPU: 65,148 CYC:13646
CB39  A9 80     LDA #$80                        A:7F X:00 Y:00 P:2C SP:25 PPU: 73,148 CYC:13649
CB3B  85 02     STA $02 = 80                    A:80 X:00 Y:00 P:AC SP:25 PPU: 81,148 CYC:13651
CB3D  60        RTS                             A:80 X:00 Y:00 P:AC SP:25 PPU: 89,148 CYC:13654
CAF0  A9 01     LDA #$01                        A:80 X:00 Y:00 P:AC SP:27 PPU:105,148 CYC:13660
CAF2  8D 16 40  STA $4016 = 00                  A:01 X:00 Y:00 P:2C SP:27 PPU:113,148 CYC:13662
CAF5  A2 00     LDX #$00                        A:01 X:00 Y:00 P:2C SP:27 PPU:129,148 CYC:13666
CAF7  A9 00     LDA #$00                        A:01 X:00 Y:00 P:2E SP:27 PPU:129,148 CYC:13668
CAF9  8D 16 40  STA $4016 = 00                  A:00 X:00 Y:00 P:2E SP:27 PPU:137,148 CYC:13670
CAFC  20 00 CB  JSR $CB00                       A:00 X:00 Y:00 P:2E SP:27 PPU:153,148 CYC:13674
CB00  A0 08     LDY #$08                        A:00 X:00 Y:00 P:2E SP:25 PPU:169,148 CYC:13680
CB02  48        PHA                             A:00 X:00 Y:08 P:2C SP:25 PPU:177,148 CYC:13682
CB03  BD 16 40  LDA $4016,X @ 4016 = 00         A:00 X:00 Y:08 P:2C SP:24 PPU:185,148 CYC:13685
CB06  85 00     STA $00 = 01                    A:00 X:00 Y:08 P:2E SP:24 PPU:193,148 CYC:13689
CB08  4A        LSR A                           A:00 X:00 Y:08 P:2E SP:24 PPU:201,148 CYC:13692
CB09  05 00     ORA $00 = 00                    A:00 X:00 Y:08 P:2E SP:24 PPU:209,148 CYC:13694
CB0B  4A        LSR A                           A:00 X:00 Y:08 P:2E SP:24 PPU:217,148 CYC:13697
CB0C  68        PLA                             A:00 X:00 Y:08 P:2E SP:24 PPU:225,148 CYC:13699
CB0D  2A        ROL A                           A:00 X:00 Y:08 P:2E SP:25 PPU:233,148 CYC:13703
CB0E  88        DEY                             A:00 X:00 Y:08 P:2E SP:25 PPU:241,148 CYC:13705
CB0F  D0 F1     BNE $CB02                       A:00 X:00 Y:07 P:2C SP:25 PPU:249,148 CYC:13707
CB02  48        PHA                             A:00 X:00 Y:07 P:2C SP:25 PPU:257,148 CYC:13710
CB03  BD 16 40  LDA $4016,X @ 4016 = 00         A:00 X:00 Y:07 P:2C SP:24 PPU:265,148 CYC:13713
CB06  85 00     STA $00 = 00                    A:00 X:00 Y:07 P:2E SP:24 PPU:281,148 CYC:13717
CB08  4A        LSR A                           A:00 X:00 Y:07 P:2E SP:24 PPU:289,148 CYC:13720
CB09  05 00     ORA $00 = 00                    A:00 X:00 Y:07 P:2E SP:24 PPU:297,148 CYC:13722
CB0B  4A        LSR A                           A:00 X:00 Y:07 P:2E SP:24 PPU:305,148 CYC:13725
CB0C  68        PLA                             A:00 X:00 Y:07 P:2E SP:24 PPU:305,148 CYC:13727
CB0D  2A        ROL A                           A:00 X:00 Y:07 P:2E SP:25 PPU:321,148 CYC:13731
CB0E  88        DEY                             A:00 X:00 Y:07 P:2E SP:25 PPU:323,148 CYC:13733
CB0F  D0 F1     BNE $CB02                       A:00 X:00 Y:06 P:2C SP:25 PPU:329,148 CYC:13735
CB02  48        PHA                             A:00 X:00 Y:06 P:2C SP:25 PPU:345,148 CYC:13738
CB03  BD 16 40  LDA $4016,X @ 4016 = 00         A:00 X:00 Y:06 P:2C SP:24 PPU:  9,149 CYC:13741
CB06  85 00     STA $00 = 00                    A:00 X:00 Y:06 P:2E SP:24 PPU: 17,149 CYC:13745
CB08  4A        LSR A                           A:00 X:00 Y:06 P:2E SP:24 PPU: 25,149 CYC:13748
CB09  05 00     ORA $00 = 00                    A:00 X:00 Y:06 P:2E SP:24 PPU: 33,149 CYC:13750
CB0B  4A        LSR A                           A:00 X:00 Y:06 P:2E SP:24 PPU: 41,149 CYC:13753
CB0C  68        PLA                             A:00 X:00 Y:06 P:2E SP:24 PPU: 49,149 CYC:13755
CB0D  2A        ROL A                           A:00 X:00 Y:06 P:2E SP:25 PPU: 57,149 CYC:13759
CB0E  88        DEY                             A:00 X:00 Y:06 P:2E SP:25 PPU: 65,149 CYC:13761
CB0F  D0 F1     BNE $CB02                       A:00 X:00 Y:05 P:2C SP:25 PPU: 73,149 CYC:13763
CB02  48        PHA                             A:00 X:00 Y:05 P:2C SP:25 PPU: 81,149 CYC:13766
CB03  BD 16 40  LDA $4016,X @ 4016 = 00         A:00 X:00 Y:05 P:2C SP:24 PPU: 89,149 CYC:13769
CB06  85 00     STA $00 = 00                    A:00 X:00 Y:05 P:2E SP:24 PPU:105,149 CYC:13773
CB08  4A        LSR A                           A:00 X:00 Y:05 P:2E SP:24 PPU:113,149 CYC:13776
CB09  05 00     ORA $00 = 00                    A:00 X:00 Y:05 P:2E SP:24 PPU:113,149 CYC:13778
CB0B  4A        LSR A                           A:00 X:00 Y:05 P:2E SP:24 PPU:129,149 CYC:13781
CB0C  68        PLA                             A:00 X:00 Y:05 P:2E SP:24 PPU:129,149 CYC:13783
CB0D  2A        ROL A                           A:00 X:00 Y:05 P:2E SP:25 PPU:145,149 CYC:13787
CB0E  88        DEY                             A:00 X:00 Y:05 P:2E SP:25 PPU:153,149 CYC:13789
CB0F  D0 F1     BNE $CB02                       A:00 X:00 Y:04 P:2C SP:25 PPU:153,149 CYC:13791
CB02  48        PHA                             A:00 X:00 Y:04 P:2C SP:25 PPU:161,149 CYC:13794
CB03  BD 16 40  LDA $4016,X @ 4016 = 00         A:00 X:00 Y:04 P:2C SP:24 PPU:177,149 CYC:13797
CB06  85 00     STA $00 = 00                    A:00 X:00 Y:04 P:2E SP:24 PPU:185,149 CYC:13801
CB08  4A        LSR A                           A:00 X:00 Y:04 P:2E SP:24 PPU:193,149 CYC:13804
CB09  05 00     ORA $00 = 00                    A:00 X:00 Y:04 P:2E SP:24 PPU:201,149 CYC:13806
CB0B  4A        LSR A                           A:00 X:00 Y:04 P:2E SP:24 PPU:209,149 CYC:13809
CB0C  68        PLA                             A:00 X:00 Y:04 P:2E SP:24 PPU:217,149 CYC:13811
CB0D  2A        ROL A                           A:00 X:00 Y:04 P:2E SP:25 PPU:225,149 CYC:13815
CB0E  88        DEY                             A:00 X:00 Y:04 P:2E SP:25 PPU:233,149 CYC:13817
CB0F  D0 F1     BNE $CB02                       A:00 X:00 Y:03 P:2C SP:25 PPU:241,149 CYC:13819
CB02  48        PHA                             A:00 X:00 Y:03 P:2C SP:25 PPU:249,149 CYC:13822
CB03  BD 16 40  LDA $4016,X @ 4016 = 00         A:00 X:00 Y:03 P:2C SP:24 PPU:257,149 CYC:13825
CB06  85 00     STA $00 = 00                    A:00 X:00 Y:03 P:2E SP:24 PPU:273,149 CYC:13829
CB08  4A        LSR A                           A:00 X:00 Y:03 P:2E SP:24 PPU:281,149 CYC:13832
CB09  05 00     ORA $00 = 00                    A:00 X:00 Y:03 P:2E SP:24 PPU:281,149 CYC:13834
CB0B  4A        LSR A                           A:00 X:00 Y:03 P:2E SP:24 PPU:297,149 CYC:13837
CB0C  68        PLA                             A:00 X:00 Y:03 P:2E SP:24 PPU:297,149 CYC:13839
CB0D  2A        ROL A                           A:00 X:00 Y:03 P:2E SP:25 PPU:313,149 CYC:13843
CB0E  88        DEY                             A:00 X:00 Y:03 P:2E SP:25 PPU:321,149 CYC:13845
CB0F  D0 F1     BNE $CB02                       A:00 X:00 Y:02 P:2C SP:25 PPU:321,149 CYC:13847
CB02  48        PHA                             A:00 X:00 Y:02 P:2C SP:25 PPU:329,149 CYC:13850
CB03  BD 16 40  LDA $4016,X @ 4016 = 00         A:00 X:00 Y:02 P:2C SP:24 PPU:345,149 CYC:13853
CB06  85 00     STA $00 = 00                    A:00 X:00 Y:02 P:2E SP:24 PPU:  9,150 CYC:13857
CB08  4A        LSR A                           A:00 X:00 Y:02 P:2E SP:24 PPU: 17,150 CYC:13860
CB09  05 00     ORA $00 = 00                    A:00 X:00 Y:02 P:2E SP:24 PPU: 25,150 CYC:13862
CB0B  4A        LSR A                           A:00 X:00 Y:02 P:2E SP:24 PPU: 33,150 CYC:13865
CB0C  68        PLA                             A:00 X:00 Y:02 P:2E SP:24 PPU: 41,150 CYC:13867
CB0D  2A        ROL A                           A:00 X:00 Y:02 P:2E SP:25 PPU: 49,150 CYC:13871
CB0E  88        DEY                             A:00 X:00 Y:02 P:2E SP:25 PPU: 57,150 CYC:13873
CB0F  D0 F1     BNE $CB02                       A:00 X:00 Y:01 P:2C SP:25 PPU: 65,150 CYC:13875
CB02  48        PHA                             A:00 X:00 Y:01 P:2C SP:25 PPU: 73,150 CYC:13878
CB03  BD 16 40  LDA $4016,X @ 4016 = 00         A:00 X:00 Y:01 P:2C SP:24 PPU: 81,150 CYC:13881
CB06  85 00     STA $00 = 00                    A:00 X:00 Y:01 P:2E SP:24 PPU: 89,150 CYC:13885
CB08  4A        LSR A                           A:00 X:00 Y:01 P:2E SP:24 PPU:105,150 CYC:13888
CB09  05 00     ORA $00 = 00                    A:00 X:00 Y:01 P:2E SP:24 PPU:105,150 CYC:13890
CB0B  4A        LSR A                           A:00 X:00 Y:01 P:2E SP:24 PPU:113,150 CYC:13893
CB0C  68        PLA                             A:00 X:00 Y:01 P:2E SP:24 PPU:121,150 CYC:13895
CB0D  2A        ROL A                           A:00 X:00 Y:01 P:2E SP:25 PPU:137,150 CYC:13899
CB0E  88        DEY                             A:00 X:00 Y:01 P:2E SP:25 PPU:137,150 CYC:13901
CB0F  D0 F1     BNE $CB02                       A:00 X:00 Y:00 P:2E SP:25 PPU:145,150 CYC:13903
CB11  86 00     STX $00 = 00                    A:00 X:00 Y:00 P:2E SP:25 PPU:153,150 CYC:13905
CB13  06 00     ASL $00 = 00                    A:00 X:00 Y:00 P:2E SP:25 PPU:161,150 CYC:13908
CB15  A6 00     LDX $00 = 00                    A:00 X:00 Y:00 P:2E SP:25 PPU:177,150 CYC:13913
CB17  B4 14     LDY $14,X @ 14 = 00             A:00 X:00 Y:00 P:2E SP:25 PPU:185,150 CYC:13916
CB19  84 00     STY $00 = 00                    A:00 X:00 Y:00 P:2E SP:25 PPU:201,150 CYC:13920
CB1B  95 14     STA $14,X @ 14 = 00             A:00 X:00 Y:00 P:2E SP:25 PPU:209,150 CYC:13923
CB1D  95 15     STA $15,X @ 15 = 00             A:00 X:00 Y:00 P:2E SP:25 PPU:217,150 CYC:13927
CB1F  A0 04     LDY #$04                        A:00 X:00 Y:00 P:2E SP:25 PPU:233,150 CYC:13931
CB21  A5 02     LDA $02 = 80                    A:00 X:00 Y:04 P:2C SP:25 PPU:233,150 CYC:13933
CB23  24 00     BIT $00 = 00                    A:80 X:00 Y:04 P:AC SP:25 PPU:249,150 CYC:13936
CB25  F0 06     BEQ $CB2D                       A:80 X:00 Y:04 P:2E SP:25 PPU:257,150 CYC:13939
CB2D  38        SEC                             A:80 X:00 Y:04 P:2E SP:25 PPU:265,150 CYC:13942
CB2E  66 01     ROR $01 = 7F                    A:80 X:00 Y:04 P:2F SP:25 PPU:273,150 CYC:13944
CB30  46 02     LSR $02 = 80                    A:80 X:00 Y:04 P:AD SP:25 PPU:281,150 CYC:13949
CB32  88        DEY                             A:80 X:00 Y:04 P:2C SP:25 PPU:297,150 CYC:13954
CB33  D0 EC     BNE $CB21                       A:80 X:00 Y:03 P:2C SP:25 PPU:305,150 CYC:13956
CB21  A5 02     LDA $02 = 40                    A:80 X:00 Y:03 P:2C SP:25 PPU:313,150 CYC:13959
CB23  24 00     BIT $00 = 00                    A:40 X:00 Y:03 P:2C SP:25 PPU:321,150 CYC:13962
CB25  F0 06     BEQ $CB2D                       A:40 X:00 Y:03 P:2E SP:25 PPU:329,150 CYC:13965
CB2D  38        SEC                             A:40 X:00 Y:03 P:2E SP:25 PPU:345,150 CYC:13968
CB2E  66 01     ROR $01 = BF                    A:40 X:00 Y:03 P:2F SP:25 PPU:345,150 CYC:13970
CB30  46 02     LSR $02 = 40                    A:40 X:00 Y:03 P:AD SP:25 PPU: 17,151 CYC:13975
CB32  88        DEY                             A:40 X:00 Y:03 P:2C SP:25 PPU: 33,151 CYC:13980
CB33  D0 EC     BNE $CB21                       A:40 X:00 Y:02 P:2C SP:25 PPU: 41,151 CYC:13982
CB21  A5 02     LDA $02 = 20                    A:40 X:00 Y:02 P:2C SP:25 PPU: 49,151 CYC:13985
CB23  24 00     BIT $00 = 00                    A:20 X:00 Y:02 P:2C SP:25 PPU: 57,151 CYC:13988
CB25  F0 06     BEQ $CB2D                       A:20 X:00 Y:02 P:2E SP:25 PPU: 65,151 CYC:13991
CB2D  38        SEC                             A:20 X:00 Y:02 P:2E SP:25 PPU: 73,151 CYC:13994
CB2E  66 01     ROR $01 = DF                    A:20 X:00 Y:02 P:2F SP:25 PPU: 81,151 CYC:13996
CB30  46 02     LSR $02 = 20                    A:20 X:00 Y:02 P:AD SP:25 PPU: 97,151 CYC:14001
CB32  88        DEY                             A:20 X:00 Y:02 P:2C SP:25 PPU:113,151 CYC:14006
CB33  D0 EC     BNE $CB21                       A:20 X:00 Y:01 P:2C SP:25 PPU:113,151 CYC:14008
CB21  A5 02     LDA $02 = 10                    A:20 X:00 Y:01 P:2C SP:25 PPU:129,151 CYC:14011
CB23  24 00     BIT $00 = 00                    A:10 X:00 Y:01 P:2C SP:25 PPU:137,151 CYC:14014
CB25  F0 06     BEQ $CB2D                       A:10 X:00 Y:01 P:2E SP:25 PPU:145,151 CYC:14017
CB2D  38        SEC                             A:10 X:00 Y:01 P:2E SP:25 PPU:153,151 CYC:14020
CB2E  66 01     ROR $01 = EF                    A:10 X:00 Y:01 P:2F SP:25 PPU:161,151 CYC:14022
CB30  46 02     LSR $02 = 10                    A:10 X:00 Y:01 P:AD SP:25 PPU:177,151 CYC:14027
CB32  88        DEY                             A:10 X:00 Y:01 P:2C SP:25 PPU:185,151 CYC:14032
CB33  D0 EC     BNE $CB21                       A:10 X:00 Y:00 P:2E SP:25 PPU:193,151 CYC:14034
CB35  A9 7F     LDA #$7F                        A:10 X:00 Y:00 P:2E SP:25 PPU:201,151 CYC:14036
CB37  85 01     STA $01 = F7                    A:7F X:00 Y:00 P:2C SP:25 PPU:209,151 CYC:14038
CB39  A9 80     LDA #$80                        A:7F X:00 Y:00 P:2C SP:25 PPU:217,151 CYC:14041
CB3B  85 02     STA $02 = 08                    A:80 X:00 Y:00 P:AC SP:25 PPU:225,151 CYC:14043
CB3D  60        RTS                             A:80 X:00 Y:00 P:AC SP:25 PPU:233,151 CYC:14046
CAFF  E8        INX                             A:80 X:00 Y:00 P:AC SP:27 PPU:249,151 CYC:14052
CB00  A0 08     LDY #$08                        A:80 X:01 Y:00 P:2C SP:27 PPU:257,151 CYC:14054
CB02  48        PHA                             A:80 X:01 Y:08 P:2C SP:27 PPU:257,151 CYC:14056
CB03  BD 16 40  LDA $4016,X @ 4017 = 00         A:80 X:01 Y:08 P:2C SP:26 PPU:273,151 CYC:14059
CB06  85 00     STA $00 = 00                    A:00 X:01 Y:08 P:2E SP:26 PPU:281,151 CYC:14063
CB08  4A        LSR A                           A:00 X:01 Y:08 P:2E SP:26 PPU:289,151 CYC:14066
CB09  05 00     ORA $00 = 00                    A:00 X:01 Y:08 P:2E SP:26 PPU:297,151 CYC:14068
CB0B  4A        LSR A                           A:00 X:01 Y:08 P:2E SP:26 PPU:305,151 CYC:14071
CB0C  68        PLA                             A:00 X:01 Y:08 P:2E SP:26 PPU:313,151 CYC:14073
CB0D  2A        ROL A                           A:80 X:01 Y:08 P:AC SP:27 PPU:321,151 CYC:14077
CB0E  88        DEY                             A:00 X:01 Y:08 P:2F SP:27 PPU:326,151 CYC:14079
CB0F  D0 F1     BNE $CB02                       A:00 X:01 Y:07 P:2D SP:27 PPU:332,151 CYC:14081
CB02  48        PHA                             A:00 X:01 Y:07 P:2D SP:27 PPU:345,151 CYC:14084
CB03  BD 16 40  LDA $4016,X @ 4017 = 00         A:00 X:01 Y:07 P:2D SP:26 PPU:  9,152 CYC:14087
CB06  85 00     STA $00 = 00                    A:00 X:01 Y:07 P:2F SP:26 PPU: 17,152 CYC:14091
CB08  4A        LSR A                           A:00 X:01 Y:07 P:2F SP:26 PPU: 33,152 CYC:14094
CB09  05 00     ORA $00 = 00                    A:00 X:01 Y:07 P:2E SP:26 PPU: 33,152 CYC:14096
CB0B  4A        LSR A                           A:00 X:01 Y:07 P:2E SP:26 PPU: 41,152 CYC:14099
CB0C  68        PLA                             A:00 X:01 Y:07 P:2E SP:26 PPU: 49,152 CYC:14101
CB0D  2A        ROL A                           A:00 X:01 Y:07 P:2E SP:27 PPU: 65,152 CYC:14105
CB0E  88        DEY                             A:00 X:01 Y:07 P:2E SP:27 PPU: 65,152 CYC:14107
CB0F  D0 F1     BNE $CB02                       A:00 X:01 Y:06 P:2C SP:27 PPU: 73,152 CYC:14109
CB02  48        PHA                             A:00 X:01 Y:06 P:2C SP:27 PPU: 81,152 CYC:14112
CB03  BD 16 40  LDA $4016,X @ 4017 = 00         A:00 X:01 Y:06 P:2C SP:26 PPU: 89,152 CYC:14115
CB06  85 00     STA $00 = 00                    A:00 X:01 Y:06 P:2E SP:26 PPU:105,152 CYC:14119
CB08  4A        LSR A                           A:00 X:01 Y:06 P:2E SP:26 PPU:113,152 CYC:14122
CB09  05 00     ORA $00 = 00                    A:00 X:01 Y:06 P:2E SP:26 PPU:121,152 CYC:14124
CB0B  4A        LSR A                           A:00 X:01 Y:06 P:2E SP:26 PPU:129,152 CYC:14127
CB0C  68        PLA                             A:00 X:01 Y:06 P:2E SP:26 PPU:137,152 CYC:14129
CB0D  2A        ROL A                           A:00 X:01 Y:06 P:2E SP:27 PPU:145,152 CYC:14133
CB0E  88        DEY                             A:00 X:01 Y:06 P:2E SP:27 PPU:153,152 CYC:14135
CB0F  D0 F1     BNE $CB02                       A:00 X:01 Y:05 P:2C SP:27 PPU:161,152 CYC:14137
CB02  48        PHA                             A:00 X:01 Y:05 P:2C SP:27 PPU:169,152 CYC:14140
CB03  BD 16 40  LDA $4016,X @ 4017 = 00         A:00 X:01 Y:05 P:2C SP:26 PPU:177,152 CYC:14143
CB06  85 00     STA $00 = 00                    A:00 X:01 Y:05 P:2E SP:26 PPU:185,152 CYC:14147
CB08  4A        LSR A                           A:00 X:01 Y:05 P:2E SP:26 PPU:201,152 CYC:14150
CB09  05 00     ORA $00 = 00                    A:00 X:01 Y:05 P:2E SP:26 PPU:201,152 CYC:14152
CB0B  4A        LSR A                           A:00 X:01 Y:05 P:2E SP:26 PPU:209,152 CYC:14155
CB0C  68        PLA                             A:00 X:01 Y:05 P:2E SP:26 PPU:217,152 CYC:14157
CB0D  2A        ROL A                           A:00 X:01 Y:05 P:2E SP:27 PPU:233,152 CYC:14161
CB0E  88        DEY                             A:00 X:01 Y:05 P:2E SP:27 PPU:233,152 CYC:14163
CB0F  D0 F1     BNE $CB02                       A:00 X:01 Y:04 P:2C SP:27 PPU:241,152 CYC:14165
CB02  48        PHA                             A:00 X:01 Y:04 P:2C SP:27 PPU:249,152 CYC:14168
CB03  BD 16 40  LDA $4016,X @ 4017 = 00         A:00 X:01 Y:04 P:2C SP:26 PPU:257,152 CYC:14171
CB06  85 00     STA $00 = 00                    A:00 X:01 Y:04 P:2E SP:26 PPU:273,152 CYC:14175
CB08  4A        LSR A                           A:00 X:01 Y:04 P:2E SP:26 PPU:281,152 CYC:14178
CB09  05 00     ORA $00 = 00                    A:00 X:01 Y:04 P:2E SP:26 PPU:289,152 CYC:14180
CB0B  4A        LSR A                           A:00 X:01 Y:04 P:2E SP:26 PPU:297,152 CYC:14183
CB0C  68        PLA                             A:00 X:01 Y:04 P:2E SP:26 PPU:305,152 CYC:14185
CB0D  2A        ROL A                           A:00 X:01 Y:04 P:2E SP:27 PPU:313,152 CYC:14189
CB0E  88        DEY                             A:00 X:01 Y:04 P:2E SP:27 PPU:321,152 CYC:14191
CB0F  D0 F1     BNE $CB02                       A:00 X:01 Y:03 P:2C SP:27 PPU:323,152 CYC:14193
CB02  48        PHA                             A:00 X:01 Y:03 P:2C SP:27 PPU:332,152 CYC:14196
CB03  BD 16 40  LDA $4016,X @ 4017 = 00         A:00 X:01 Y:03 P:2C SP:26 PPU:345,152 CYC:14199
CB06  85 00     STA $00 = 00                    A:00 X:01 Y:03 P:2E SP:26 PPU:  9,153 CYC:14203
CB08  4A        LSR A                           A:00 X:01 Y:03 P:2E SP:26 PPU: 17,153 CYC:14206
CB09  05 00     ORA $00 = 00                    A:00 X:01 Y:03 P:2E SP:26 PPU: 25,153 CYC:14208
CB0B  4A        LSR A                           A:00 X:01 Y:03 P:2E SP:26 PPU: 33,153 CYC:14211
CB0C  68        PLA                             A:00 X:01 Y:03 P:2E SP:26 PPU: 41,153 CYC:14213
CB0D  2A        ROL A                           A:00 X:01 Y:03 P:2E SP:27 PPU: 57,153 CYC:14217
CB0E  88        DEY                             A:00 X:01 Y:03 P:2E SP:27 PPU: 57,153 CYC:14219
CB0F  D0 F1     BNE $CB02                       A:00 X:01 Y:02 P:2C SP:27 PPU: 65,153 CYC:14221
CB02  48        PHA                             A:00 X:01 Y:02 P:2C SP:27 PPU: 73,153 CYC:14224
CB03  BD 16 40  LDA $4016,X @ 4017 = 00         A:00 X:01 Y:02 P:2C SP:26 PPU: 81,153 CYC:14227
CB06  85 00     STA $00 = 00                    A:00 X:01 Y:02 P:2E SP:26 PPU: 97,153 CYC:14231
CB08  4A        LSR A                           A:00 X:01 Y:02 P:2E SP:26 PPU:105,153 CYC:14234
CB09  05 00     ORA $00 = 00                    A:00 X:01 Y:02 P:2E SP:26 PPU:113,153 CYC:14236
CB0B  4A        LSR A                           A:00 X:01 Y:02 P:2E SP:26 PPU:121,153 CYC:14239
CB0C  68        PLA                             A:00 X:01 Y:02 P:2E SP:26 PPU:129,153 CYC:14241
CB0D  2A        ROL A                           A:00 X:01 Y:02 P:2E SP:27 PPU:137,153 CYC:14245
CB0E  88        DEY                             A:00 X:01 Y:02 P:2E SP:27 PPU:145,153 CYC:14247
CB0F  D0 F1     BNE $CB02                       A:00 X:01 Y:01 P:2C SP:27 PPU:153,153 CYC:14249
CB02  48        PHA                             A:00 X:01 Y:01 P:2C SP:27 PPU:161,153 CYC:14252
CB03  BD 16 40  LDA $4016,X @ 4017 = 00         A:00 X:01 Y:01 P:2C SP:26 PPU:169,153 CYC:14255
CB06  85 00     STA $00 = 00                    A:00 X:01 Y:01 P:2E SP:26 PPU:177,153 CYC:14259
CB08  4A        LSR A                           A:00 X:01 Y:01 P:2E SP:26 PPU:185,153 CYC:14262
CB09  05 00     ORA $00 = 00                    A:00 X:01 Y:01 P:2E SP:26 PPU:193,153 CYC:14264
CB0B  4A        LSR A                           A:00 X:01 Y:01 P:2E SP:26 PPU:201,153 CYC:14267
CB0C  68        PLA                             A:00 X:01 Y:01 P:2E SP:26 PPU:209,153 CYC:14269
CB0D  2A        ROL A                           A:00 X:01 Y:01 P:2E SP:27 PPU:225,153 CYC:14273
CB0E  88        DEY                             A:00 X:01 Y:01 P:2E SP:27 PPU:225,153 CYC:14275
CB0F  D0 F1     BNE $CB02                       A:00 X:01 Y:00 P:2E SP:27 PPU:233,153 CYC:14277
CB11  86 00     STX $00 = 00                    A:00 X:01 Y:00 P:2E SP:27 PPU:241,153 CYC:14279
CB13  06 00     ASL $00 = 01                    A:00 X:01 Y:00 P:2E SP:27 PPU:249,153 CYC:14282
CB15  A6 00     LDX $00 = 02                    A:00 X:01 Y:00 P:2C SP:27 PPU:265,153 CYC:14287
CB17  B4 14     LDY $14,X @ 16 = 00             A:00 X:02 Y:00 P:2C SP:27 PPU:273,153 CYC:14290
CB19  84 00     STY $00 = 02                    A:00 X:02 Y:00 P:2E SP:27 PPU:281,153 CYC:14294
CB1B  95 14     STA $14,X @ 16 = 00             A:00 X:02 Y:00 P:2E SP:27 PPU:297,153 CYC:14297
CB1D  95 15     STA $15,X @ 17 = 00             A:00 X:02 Y:00 P:2E SP:27 PPU:305,153 CYC:14301
CB1F  A0 04     LDY #$04                        A:00 X:02 Y:00 P:2E SP:27 PPU:321,153 CYC:14305
CB21  A5 02     LDA $02 = 80                    A:00 X:02 Y:04 P:2C SP:27 PPU:321,153 CYC:14307
CB23  24 00     BIT $00 = 00                    A:80 X:02 Y:04 P:AC SP:27 PPU:329,153 CYC:14310
CB25  F0 06     BEQ $CB2D                       A:80 X:02 Y:04 P:2E SP:27 PPU:345,153 CYC:14313
CB2D  38        SEC                             A:80 X:02 Y:04 P:2E SP:27 PPU:  9,154 CYC:14316
CB2E  66 01     ROR $01 = 7F                    A:80 X:02 Y:04 P:2F SP:27 PPU:  9,154 CYC:14318
CB30  46 02     LSR $02 = 80                    A:80 X:02 Y:04 P:AD SP:27 PPU: 25,154 CYC:14323
CB32  88        DEY                             A:80 X:02 Y:04 P:2C SP:27 PPU: 41,154 CYC:14328
CB33  D0 EC     BNE $CB21                       A:80 X:02 Y:03 P:2C SP:27 PPU: 49,154 CYC:14330
CB21  A5 02     LDA $02 = 40                    A:80 X:02 Y:03 P:2C SP:27 PPU: 57,154 CYC:14333
CB23  24 00     BIT $00 = 00                    A:40 X:02 Y:03 P:2C SP:27 PPU: 65,154 CYC:14336
CB25  F0 06     BEQ $CB2D                       A:40 X:02 Y:03 P:2E SP:27 PPU: 73,154 CYC:14339
CB2D  38        SEC                             A:40 X:02 Y:03 P:2E SP:27 PPU: 81,154 CYC:14342
CB2E  66 01     ROR $01 = BF                    A:40 X:02 Y:03 P:2F SP:27 PPU: 89,154 CYC:14344
CB30  46 02     LSR $02 = 40                    A:40 X:02 Y:03 P:AD SP:27 PPU:105,154 CYC:14349
CB32  88        DEY                             A:40 X:02 Y:03 P:2C SP:27 PPU:121,154 CYC:14354
CB33  D0 EC     BNE $CB21                       A:40 X:02 Y:02 P:2C SP:27 PPU:129,154 CYC:14356
CB21  A5 02     LDA $02 = 20                    A:40 X:02 Y:02 P:2C SP:27 PPU:137,154 CYC:14359
CB23  24 00     BIT $00 = 00                    A:20 X:02 Y:02 P:2C SP:27 PPU:145,154 CYC:14362
CB25  F0 06     BEQ $CB2D                       A:20 X:02 Y:02 P:2E SP:27 PPU:153,154 CYC:14365
CB2D  38        SEC                             A:20 X:02 Y:02 P:2E SP:27 PPU:161,154 CYC:14368
CB2E  66 01     ROR $01 = DF                    A:20 X:02 Y:02 P:2F SP:27 PPU:169,154 CYC:14370
CB30  46 02     LSR $02 = 20                    A:20 X:02 Y:02 P:AD SP:27 PPU:185,154 CYC:14375
CB32  88        DEY                             A:20 X:02 Y:02 P:2C SP:27 PPU:201,154 CYC:14380
CB33  D0 EC     BNE $CB21                       A:20 X:02 Y:01 P:2C SP:27 PPU:201,154 CYC:14382
CB21  A5 02     LDA $02 = 10                    A:20 X:02 Y:01 P:2C SP:27 PPU:209,154 CYC:14385
CB23  24 00     BIT $00 = 00                    A:10 X:02 Y:01 P:2C SP:27 PPU:225,154 CYC:14388
CB25  F0 06     BEQ $CB2D                       A:10 X:02 Y:01 P:2E SP:27 PPU:233,154 CYC:14391
CB2D  38        SEC                             A:10 X:02 Y:01 P:2E SP:27 PPU:241,154 CYC:14394
CB2E  66 01     ROR $01 = EF                    A:10 X:02 Y:01 P:2F SP:27 PPU:249,154 CYC:14396
CB30  46 02     LSR $02 = 10                    A:10 X:02 Y:01 P:AD SP:27 PPU:257,154 CYC:14401
CB32  88        DEY                             A:10 X:02 Y:01 P:2C SP:27 PPU:273,154 CYC:14406
CB33  D0 EC     BNE $CB21                       A:10 X:02 Y:00 P:2E SP:27 PPU:281,154 CYC:14408
CB35  A9 7F     LDA #$7F                        A:10 X:02 Y:00 P:2E SP:27 PPU:289,154 CYC:14410
CB37  85 01     STA $01 = F7                    A:7F X:02 Y:00 P:2C SP:27 PPU:297,154 CYC:14412
CB39  A9 80     LDA #$80                        A:7F X:02 Y:00 P:2C SP:27 PPU:305,154 CYC:14415
CB3B  85 02     STA $02 = 08                    A:80 X:02 Y:00 P:AC SP:27 PPU:305,154 CYC:14417
CB3D  60        RTS                             A:80 X:02 Y:00 P:AC SP:27 PPU:321,154 CYC:14420
C0C6  20 1E F9  JSR $F91E                       A:80 X:02 Y:00 P:AC SP:29 PPU:332,154 CYC:14426
F91E  A9 FF     LDA #$FF                        A:80 X:02 Y:00 P:AC SP:27 PPU:  9,155 CYC:14432
F920  8D 17 40  STA $4017 = 00                  A:FF X:02 Y:00 P:AC SP:27 PPU: 17,155 CYC:14434
F923  20 EB F9  JSR $F9EB                       A:FF X:02 Y:00 P:AC SP:27 PPU: 25,155 CYC:14438
F9EB  A4 FF     LDY $FF = 00                    A:FF X:02 Y:00 P:AC SP:25 PPU: 41,155 CYC:14444
F9ED  A5 F0     LDA $F0 = 00                    A:FF X:02 Y:00 P:2E SP:25 PPU: 57,155 CYC:14447
F9EF  46 FF     LSR $FF = 00                    A:00 X:02 Y:00 P:2E SP:25 PPU: 65,155 CYC:14450
F9F1  B0 B8     BCS $F9AB                       A:00 X:02 Y:00 P:2E SP:25 PPU: 81,155 CYC:14455
F9F3  4A        LSR A                           A:00 X:02 Y:00 P:2E SP:25 PPU: 81,155 CYC:14457
F9F4  B0 BB     BCS $F9B1                       A:00 X:02 Y:00 P:2E SP:25 PPU: 89,155 CYC:14459
F9F6  46 FF     LSR $FF = 00                    A:00 X:02 Y:00 P:2E SP:25 PPU: 97,155 CYC:14461
F9F8  B0 CE     BCS $F9C8                       A:00 X:02 Y:00 P:2E SP:25 PPU:113,155 CYC:14466
F9FA  4A        LSR A                           A:00 X:02 Y:00 P:2E SP:25 PPU:113,155 CYC:14468
F9FB  B0 D3     BCS $F9D0                       A:00 X:02 Y:00 P:2E SP:25 PPU:121,155 CYC:14470
F9FD  46 FF     LSR $FF = 00                    A:00 X:02 Y:00 P:2E SP:25 PPU:129,155 CYC:14472
F9FF  B0 0B     BCS $FA0C                       A:00 X:02 Y:00 P:2E SP:25 PPU:145,155 CYC:14477
FA01  4A        LSR A                           A:00 X:02 Y:00 P:2E SP:25 PPU:153,155 CYC:14479
FA02  B0 17     BCS $FA1B                       A:00 X:02 Y:00 P:2E SP:25 PPU:153,155 CYC:14481
FA04  46 FF     LSR $FF = 00                    A:00 X:02 Y:00 P:2E SP:25 PPU:161,155 CYC:14483
FA06  B0 38     BCS $FA40                       A:00 X:02 Y:00 P:2E SP:25 PPU:177,155 CYC:14488
FA08  4A        LSR A                           A:00 X:02 Y:00 P:2E SP:25 PPU:185,155 CYC:14490
FA09  B0 3F     BCS $FA4A                       A:00 X:02 Y:00 P:2E SP:25 PPU:185,155 CYC:14492
FA0B  60        RTS                             A:00 X:02 Y:00 P:2E SP:25 PPU:193,155 CYC:14494
F926  20 C4 FA  JSR $FAC4                       A:00 X:02 Y:00 P:2E SP:27 PPU:209,155 CYC:14500
FAC4  A4 FE     LDY $FE = 00                    A:00 X:02 Y:00 P:2E SP:25 PPU:233,155 CYC:14506
FAC6  A5 F1     LDA $F1 = 00                    A:00 X:02 Y:00 P:2E SP:25 PPU:241,155 CYC:14509
FAC8  46 FE     LSR $FE = 00                    A:00 X:02 Y:00 P:2E SP:25 PPU:249,155 CYC:14512
FACA  B0 98     BCS $FA64                       A:00 X:02 Y:00 P:2E SP:25 PPU:265,155 CYC:14517
FACC  4A        LSR A                           A:00 X:02 Y:00 P:2E SP:25 PPU:273,155 CYC:14519
FACD  B0 9C     BCS $FA6B                       A:00 X:02 Y:00 P:2E SP:25 PPU:273,155 CYC:14521
FACF  46 FE     LSR $FE = 00                    A:00 X:02 Y:00 P:2E SP:25 PPU:281,155 CYC:14523
FAD1  B0 B0     BCS $FA83                       A:00 X:02 Y:00 P:2E SP:25 PPU:297,155 CYC:14528
FAD3  4A        LSR A                           A:00 X:02 Y:00 P:2E SP:25 PPU:305,155 CYC:14530
FAD4  B0 BE     BCS $FA94                       A:00 X:02 Y:00 P:2E SP:25 PPU:305,155 CYC:14532
FAD6  46 FE     LSR $FE = 00                    A:00 X:02 Y:00 P:2E SP:25 PPU:313,155 CYC:14534
FAD8  B0 12     BCS $FAEC                       A:00 X:02 Y:00 P:2E SP:25 PPU:326,155 CYC:14539
FADA  4A        LSR A                           A:00 X:02 Y:00 P:2E SP:25 PPU:332,155 CYC:14541
FADB  B0 D8     BCS $FAB5                       A:00 X:02 Y:00 P:2E SP:25 PPU:345,155 CYC:14543
FADD  4A        LSR A                           A:00 X:02 Y:00 P:2E SP:25 PPU:345,155 CYC:14545
FADE  B0 29     BCS $FB09                       A:00 X:02 Y:00 P:2E SP:25 PPU:  9,156 CYC:14547
FAE0  46 FE     LSR $FE = 00                    A:00 X:02 Y:00 P:2E SP:25 PPU: 17,156 CYC:14549
FAE2  B0 15     BCS $FAF9                       A:00 X:02 Y:00 P:2E SP:25 PPU: 33,156 CYC:14554
FAE4  46 FE     LSR $FE = 00                    A:00 X:02 Y:00 P:2E SP:25 PPU: 33,156 CYC:14556
FAE6  B0 2F     BCS $FB17                       A:00 X:02 Y:00 P:2E SP:25 PPU: 49,156 CYC:14561
FAE8  4A        LSR A                           A:00 X:02 Y:00 P:2E SP:25 PPU: 57,156 CYC:14563
FAE9  B0 CA     BCS $FAB5                       A:00 X:02 Y:00 P:2E SP:25 PPU: 65,156 CYC:14565
FAEB  60        RTS                             A:00 X:02 Y:00 P:2E SP:25 PPU: 65,156 CYC:14567
F929  20 A1 FB  JSR $FBA1                       A:00 X:02 Y:00 P:2E SP:27 PPU: 89,156 CYC:14573
FBA1  A4 FC     LDY $FC = 00                    A:00 X:02 Y:00 P:2E SP:25 PPU:105,156 CYC:14579
FBA3  A5 F2     LDA $F2 = 00                    A:00 X:02 Y:00 P:2E SP:25 PPU:113,156 CYC:14582
FBA5  46 FC     LSR $FC = 00                    A:00 X:02 Y:00 P:2E SP:25 PPU:121,156 CYC:14585
FBA7  B0 C8     BCS $FB71                       A:00 X:02 Y:00 P:2E SP:25 PPU:137,156 CYC:14590
FBA9  4A        LSR A                           A:00 X:02 Y:00 P:2E SP:25 PPU:145,156 CYC:14592
FBAA  B0 CC     BCS $FB78                       A:00 X:02 Y:00 P:2E SP:25 PPU:153,156 CYC:14594
FBAC  46 FC     LSR $FC = 00                    A:00 X:02 Y:00 P:2E SP:25 PPU:153,156 CYC:14596
FBAE  B0 0B     BCS $FBBB                       A:00 X:02 Y:00 P:2E SP:25 PPU:169,156 CYC:14601
FBB0  4A        LSR A                           A:00 X:02 Y:00 P:2E SP:25 PPU:177,156 CYC:14603
FBB1  B0 18     BCS $FBCB                       A:00 X:02 Y:00 P:2E SP:25 PPU:185,156 CYC:14605
FBB3  46 FC     LSR $FC = 00                    A:00 X:02 Y:00 P:2E SP:25 PPU:185,156 CYC:14607
FBB5  B0 24     BCS $FBDB                       A:00 X:02 Y:00 P:2E SP:25 PPU:201,156 CYC:14612
FBB7  4A        LSR A                           A:00 X:02 Y:00 P:2E SP:25 PPU:209,156 CYC:14614
FBB8  B0 31     BCS $FBEB                       A:00 X:02 Y:00 P:2E SP:25 PPU:217,156 CYC:14616
FBBA  60        RTS                             A:00 X:02 Y:00 P:2E SP:25 PPU:225,156 CYC:14618
F92C  20 FC FB  JSR $FBFC                       A:00 X:02 Y:00 P:2E SP:27 PPU:241,156 CYC:14624
FBFC  A5 FB     LDA $FB = 00                    A:00 X:02 Y:00 P:2E SP:25 PPU:257,156 CYC:14630
FBFE  D0 05     BNE $FC05                       A:00 X:02 Y:00 P:2E SP:25 PPU:265,156 CYC:14633
FC00  A5 F3     LDA $F3 = 00                    A:00 X:02 Y:00 P:2E SP:25 PPU:273,156 CYC:14635
FC02  D0 4D     BNE $FC51                       A:00 X:02 Y:00 P:2E SP:25 PPU:281,156 CYC:14638
FC04  60        RTS                             A:00 X:02 Y:00 P:2E SP:25 PPU:289,156 CYC:14640
F92F  A9 00     LDA #$00                        A:00 X:02 Y:00 P:2E SP:27 PPU:305,156 CYC:14646
F931  85 FF     STA $FF = 00                    A:00 X:02 Y:00 P:2E SP:27 PPU:313,156 CYC:14648
F933  85 FE     STA $FE = 00                    A:00 X:02 Y:00 P:2E SP:27 PPU:321,156 CYC:14651
F935  85 FC     STA $FC = 00                    A:00 X:02 Y:00 P:2E SP:27 PPU:326,156 CYC:14654
F937  85 FB     STA $FB = 00                    A:00 X:02 Y:00 P:2E SP:27 PPU:335,156 CYC:14657
F939  AC 11 07  LDY $0711 = 00                  A:00 X:02 Y:00 P:2E SP:27 PPU:345,156 CYC:14660
F93C  A5 F3     LDA $F3 = 00                    A:00 X:02 Y:00 P:2E SP:27 PPU: 17,157 CYC:14664
F93E  29 0C     AND #$0C                        A:00 X:02 Y:00 P:2E SP:27 PPU: 25,157 CYC:14667
F940  F0 07     BEQ $F949                       A:00 X:02 Y:00 P:2E SP:27 PPU: 33,157 CYC:14669
F949  98        TYA                             A:00 X:02 Y:00 P:2E SP:27 PPU: 41,157 CYC:14672
F94A  F0 03     BEQ $F94F                       A:00 X:02 Y:00 P:2E SP:27 PPU: 41,157 CYC:14674
F94F  8C 11 40  STY $4011 = 00                  A:00 X:02 Y:00 P:2E SP:27 PPU: 57,157 CYC:14677
F952  60        RTS                             A:00 X:02 Y:00 P:2E SP:27 PPU: 65,157 CYC:14681
C0C9  A5 53     LDA $53 = 00                    A:00 X:02 Y:00 P:2E SP:29 PPU: 81,157 CYC:14687
C0CB  F0 06     BEQ $C0D3                       A:00 X:02 Y:00 P:2E SP:29 PPU: 89,157 CYC:14690
C0D3  A5 51     LDA $51 = 01                    A:00 X:02 Y:00 P:2E SP:29 PPU:105,157 CYC:14693
C0D5  F0 4F     BEQ $C126                       A:01 X:02 Y:00 P:2C SP:29 PPU:113,157 CYC:14696
C0D7  AE 4C 03  LDX $034C = 02                  A:01 X:02 Y:00 P:2C SP:29 PPU:113,157 CYC:14698
C0DA  F0 3E     BEQ $C11A                       A:01 X:02 Y:00 P:2C SP:29 PPU:129,157 CYC:14702
C0DC  CA        DEX                             A:01 X:02 Y:00 P:2C SP:29 PPU:137,157 CYC:14704
C0DD  F0 24     BEQ $C103                       A:01 X:01 Y:00 P:2C SP:29 PPU:137,157 CYC:14706
C0DF  CA        DEX                             A:01 X:01 Y:00 P:2C SP:29 PPU:145,157 CYC:14708
C0E0  D0 1E     BNE $C100                       A:01 X:00 Y:00 P:2E SP:29 PPU:153,157 CYC:14710
C0E2  A5 11     LDA $11 = 1F                    A:01 X:00 Y:00 P:2E SP:29 PPU:161,157 CYC:14712
C0E4  29 EF     AND #$EF                        A:1F X:00 Y:00 P:2C SP:29 PPU:169,157 CYC:14715
C0E6  8D 01 20  STA $2001 = 1F                  A:0F X:00 Y:00 P:2C SP:29 PPU:177,157 CYC:14717
C0E9  85 11     STA $11 = 1F                    A:0F X:00 Y:00 P:2C SP:29 PPU:185,157 CYC:14721
C0EB  A5 15     LDA $15 = 00                    A:0F X:00 Y:00 P:2C SP:29 PPU:193,157 CYC:14724
C0ED  29 10     AND #$10                        A:00 X:00 Y:00 P:2E SP:29 PPU:201,157 CYC:14727
C0EF  F0 47     BEQ $C138                       A:00 X:00 Y:00 P:2E SP:29 PPU:209,157 CYC:14729
C138  20 41 C1  JSR $C141                       A:00 X:00 Y:00 P:2E SP:29 PPU:225,157 CYC:14733
C141  AD 02 20  LDA $2002 = 0F                  A:00 X:00 Y:00 P:2E SP:27 PPU:241,157 CYC:14739
C144  A5 10     LDA $10 = 11                    A:0F X:00 Y:00 P:2C SP:27 PPU:249,157 CYC:14743
C146  09 80     ORA #$80                        A:11 X:00 Y:00 P:2C SP:27 PPU:257,157 CYC:14746
C148  85 10     STA $10 = 11                    A:91 X:00 Y:00 P:AC SP:27 PPU:265,157 CYC:14748
C14A  8D 00 20  STA $2000 = 11                  A:91 X:00 Y:00 P:AC SP:27 PPU:273,157 CYC:14751
C14D  60        RTS                             A:91 X:00 Y:00 P:AC SP:27 PPU:289,157 CYC:14755
C13B  68        PLA                             A:91 X:00 Y:00 P:AC SP:29 PPU:305,157 CYC:14761
C13C  A8        TAY                             A:10 X:00 Y:00 P:2C SP:2A PPU:321,157 CYC:14765
C13D  68        PLA                             A:10 X:00 Y:10 P:2C SP:2A PPU:321,157 CYC:14767
C13E  AA        TAX                             A:2D X:00 Y:10 P:2C SP:2B PPU:332,157 CYC:14771
C13F  68        PLA                             A:2D X:2D Y:10 P:2C SP:2B PPU:345,157 CYC:14773
C140  40        RTI                             A:FF X:2D Y:10 P:AC SP:2C PPU:  9,158 CYC:14777
00BD  3F                                     A:FF X:2D Y:10 P:A8 SP:2F PPU: 25,158 CYC:14783
00BE  00        BRK                             A:FF X:2D Y:10 P:A8 SP:2F PPU: 25,158 CYC:14783
C076  48        PHA                             A:FF X:2D Y:10 P:AC SP:2C PPU: 49,158 CYC:14790
C077  8A        TXA                             A:FF X:2D Y:10 P:AC SP:2B PPU: 57,158 CYC:14793
C078  48        PHA                             A:2D X:2D Y:10 P:2C SP:2B PPU: 65,158 CYC:14795
C079  98        TYA                             A:2D X:2D Y:10 P:2C SP:2A PPU: 73,158 CYC:14798
C07A  48        PHA                             A:10 X:2D Y:10 P:2C SP:2A PPU: 81,158 CYC:14800
C07B  A5 10     LDA $10 = 91                    A:10 X:2D Y:10 P:2C SP:29 PPU: 89,158 CYC:14803
C07D  A6 DE     LDX $DE = 00                    A:91 X:2D Y:10 P:AC SP:29 PPU: 97,158 CYC:14806
C07F  F0 02     BEQ $C083                       A:91 X:00 Y:10 P:2E SP:29 PPU:105,158 CYC:14809
C083  29 7F     AND #$7F                        A:91 X:00 Y:10 P:2E SP:29 PPU:113,158 CYC:14812
C085  20 48 C1  JSR $C148                       A:11 X:00 Y:10 P:2C SP:29 PPU:121,158 CYC:14814
C148  85 10     STA $10 = 91                    A:11 X:00 Y:10 P:2C SP:27 PPU:137,158 CYC:14820
C14A  8D 00 20  STA $2000 = 91                  A:11 X:00 Y:10 P:2C SP:27 PPU:145,158 CYC:14823
C14D  60        RTS                             A:11 X:00 Y:10 P:2C SP:27 PPU:161,158 CYC:14827
C088  A5 52     LDA $52 = 00                    A:11 X:00 Y:10 P:2C SP:29 PPU:177,158 CYC:14833
C08A  D0 09     BNE $C095                       A:00 X:00 Y:10 P:2E SP:29 PPU:185,158 CYC:14836
C08C  A5 11     LDA $11 = 0F                    A:00 X:00 Y:10 P:2E SP:29 PPU:193,158 CYC:14838
C08E  09 1E     ORA #$1E                        A:0F X:00 Y:10 P:2C SP:29 PPU:201,158 CYC:14841
C090  8D 01 20  STA $2001 = 0F                  A:1F X:00 Y:10 P:2C SP:29 PPU:209,158 CYC:14843
C093  85 11     STA $11 = 0F                    A:1F X:00 Y:10 P:2C SP:29 PPU:217,158 CYC:14847
C095  A9 00     LDA #$00                        A:1F X:00 Y:10 P:2C SP:29 PPU:225,158 CYC:14850
C097  8D 03 20  STA $2003 = 00                  A:00 X:00 Y:10 P:2E SP:29 PPU:233,158 CYC:14852
C09A  A9 02     LDA #$02                        A:00 X:00 Y:10 P:2E SP:29 PPU:249,158 CYC:14856
C09C  8D 14 40  STA $4014 = 00                  A:02 X:00 Y:10 P:2C SP:29 PPU:249,158 CYC:14858
C09F  A6 52     LDX $52 = 00                    A:02 X:00 Y:10 P:2C SP:29 PPU: 81,163 CYC:15375
C0A1  20 50 C1  JSR $C150                       A:02 X:00 Y:10 P:2E SP:29 PPU: 89,163 CYC:15378
C150  BD 00 C0  LDA $C000,X @ C000 = 01         A:02 X:00 Y:10 P:2E SP:27 PPU:105,163 CYC:15384
C153  85 00     STA $00 = 00                    A:01 X:00 Y:10 P:2C SP:27 PPU:113,163 CYC:15388
C155  BD 0A C0  LDA $C00A,X @ C00A = 03         A:01 X:00 Y:10 P:2C SP:27 PPU:129,163 CYC:15391
C158  85 01     STA $01 = 7F                    A:03 X:00 Y:10 P:2C SP:27 PPU:137,163 CYC:15395
C15A  20 78 CB  JSR $CB78                       A:03 X:00 Y:10 P:2C SP:27 PPU:145,163 CYC:15398
CB78  AE 02 20  LDX $2002 = 00                  A:03 X:00 Y:10 P:2C SP:25 PPU:161,163 CYC:15404
CB7B  A0 00     LDY #$00                        A:03 X:00 Y:10 P:2E SP:25 PPU:177,163 CYC:15408
CB7D  B1 00     LDA ($00),Y = 0301 @ 0301 = 00  A:03 X:00 Y:00 P:2E SP:25 PPU:185,163 CYC:15410
CB7F  D0 BD     BNE $CB3E                       A:00 X:00 Y:00 P:2E SP:25 PPU:201,163 CYC:15415
CB81  A5 12     LDA $12 = 01                    A:00 X:00 Y:00 P:2E SP:25 PPU:201,163 CYC:15417
CB83  8D 05 20  STA $2005 = 9F                  A:01 X:00 Y:00 P:2C SP:25 PPU:209,163 CYC:15420
CB86  A5 13     LDA $13 = 9F                    A:01 X:00 Y:00 P:2C SP:25 PPU:225,163 CYC:15424
CB88  8D 05 20  STA $2005 = 01                  A:9F X:00 Y:00 P:AC SP:25 PPU:233,163 CYC:15427
CB8B  60        RTS                             A:9F X:00 Y:00 P:AC SP:25 PPU:249,163 CYC:15431
C15D  A9 00     LDA #$00                        A:9F X:00 Y:00 P:AC SP:27 PPU:265,163 CYC:15437
C15F  8D 00 03  STA $0300 = 00                  A:00 X:00 Y:00 P:2E SP:27 PPU:273,163 CYC:15439
C162  8D 01 03  STA $0301 = 00                  A:00 X:00 Y:00 P:2E SP:27 PPU:281,163 CYC:15443
C165  60        RTS                             A:00 X:00 Y:00 P:2E SP:27 PPU:297,163 CYC:15447
C0A4  85 52     STA $52 = 00                    A:00 X:00 Y:00 P:2E SP:29 PPU:313,163 CYC:15453
C0A6  85 DE     STA $DE = 00                    A:00 X:00 Y:00 P:2E SP:29 PPU:321,163 CYC:15456
C0A8  A9 3F     LDA #$3F                        A:00 X:00 Y:00 P:2E SP:29 PPU:326,163 CYC:15459
C0AA  8D 06 20  STA $2006 = 00                  A:3F X:00 Y:00 P:2C SP:29 PPU:332,163 CYC:15461
C0AD  A9 00     LDA #$00                        A:3F X:00 Y:00 P:2C SP:29 PPU:345,163 CYC:15465
C0AF  8D 06 20  STA $2006 = 3F                  A:00 X:00 Y:00 P:2E SP:29 PPU:  9,164 CYC:15467
C0B2  8D 06 20  STA $2006 = 00                  A:00 X:00 Y:00 P:2E SP:29 PPU: 17,164 CYC:15471
C0B5  8D 06 20  STA $2006 = 00                  A:00 X:00 Y:00 P:2E SP:29 PPU: 33,164 CYC:15475
C0B8  AD 02 20  LDA $2002 = 00                  A:00 X:00 Y:00 P:2E SP:29 PPU: 41,164 CYC:15479
C0BB  20 81 CB  JSR $CB81                       A:00 X:00 Y:00 P:2E SP:29 PPU: 57,164 CYC:15483
CB81  A5 12     LDA $12 = 01                    A:00 X:00 Y:00 P:2E SP:27 PPU: 73,164 CYC:15489
CB83  8D 05 20  STA $2005 = 9F                  A:01 X:00 Y:00 P:2C SP:27 PPU: 81,164 CYC:15492
CB86  A5 13     LDA $13 = 9F                    A:01 X:00 Y:00 P:2C SP:27 PPU: 97,164 CYC:15496
CB88  8D 05 20  STA $2005 = 01                  A:9F X:00 Y:00 P:AC SP:27 PPU:105,164 CYC:15499
CB8B  60        RTS                             A:9F X:00 Y:00 P:AC SP:27 PPU:113,164 CYC:15503
C0BE  A5 10     LDA $10 = 11                    A:9F X:00 Y:00 P:AC SP:29 PPU:137,164 CYC:15509
C0C0  8D 00 20  STA $2000 = 11                  A:11 X:00 Y:00 P:2C SP:29 PPU:145,164 CYC:15512
C0C3  20 ED CA  JSR $CAED                       A:11 X:00 Y:00 P:2C SP:29 PPU:153,164 CYC:15516
CAED  20 35 CB  JSR $CB35                       A:11 X:00 Y:00 P:2C SP:27 PPU:177,164 CYC:15522
CB35  A9 7F     LDA #$7F                        A:11 X:00 Y:00 P:2C SP:25 PPU:193,164 CYC:15528
CB37  85 01     STA $01 = 03                    A:7F X:00 Y:00 P:2C SP:25 PPU:201,164 CYC:15530
CB39  A9 80     LDA #$80                        A:7F X:00 Y:00 P:2C SP:25 PPU:209,164 CYC:15533
CB3B  85 02     STA $02 = 80                    A:80 X:00 Y:00 P:AC SP:25 PPU:209,164 CYC:15535
CB3D  60        RTS                             A:80 X:00 Y:00 P:AC SP:25 PPU:225,164 CYC:15538
CAF0  A9 01     LDA #$01                        A:80 X:00 Y:00 P:AC SP:27 PPU:241,164 CYC:15544
CAF2  8D 16 40  STA $4016 = 00                  A:01 X:00 Y:00 P:2C SP:27 PPU:249,164 CYC:15546
CAF5  A2 00     LDX #$00                        A:01 X:00 Y:00 P:2C SP:27 PPU:257,164 CYC:15550
CAF7  A9 00     LDA #$00                        A:01 X:00 Y:00 P:2E SP:27 PPU:265,164 CYC:15552
CAF9  8D 16 40  STA $4016 = 00                  A:00 X:00 Y:00 P:2E SP:27 PPU:273,164 CYC:15554
CAFC  20 00 CB  JSR $CB00                       A:00 X:00 Y:00 P:2E SP:27 PPU:281,164 CYC:15558
CB00  A0 08     LDY #$08                        A:00 X:00 Y:00 P:2E SP:25 PPU:297,164 CYC:15564
CB02  48        PHA                             A:00 X:00 Y:08 P:2C SP:25 PPU:305,164 CYC:15566
CB03  BD 16 40  LDA $4016,X @ 4016 = 00         A:00 X:00 Y:08 P:2C SP:24 PPU:313,164 CYC:15569
CB06  85 00     STA $00 = 01                    A:00 X:00 Y:08 P:2E SP:24 PPU:323,164 CYC:15573
CB08  4A        LSR A                           A:00 X:00 Y:08 P:2E SP:24 PPU:332,164 CYC:15576
CB09  05 00     ORA $00 = 00                    A:00 X:00 Y:08 P:2E SP:24 PPU:345,164 CYC:15578
CB0B  4A        LSR A                           A:00 X:00 Y:08 P:2E SP:24 PPU:  9,165 CYC:15581
CB0C  68        PLA                             A:00 X:00 Y:08 P:2E SP:24 PPU:  9,165 CYC:15583
CB0D  2A        ROL A                           A:00 X:00 Y:08 P:2E SP:25 PPU: 25,165 CYC:15587
CB0E  88        DEY                             A:00 X:00 Y:08 P:2E SP:25 PPU: 33,165 CYC:15589
CB0F  D0 F1     BNE $CB02                       A:00 X:00 Y:07 P:2C SP:25 PPU: 33,165 CYC:15591
CB02  48        PHA                             A:00 X:00 Y:07 P:2C SP:25 PPU: 41,165 CYC:15594
CB03  BD 16 40  LDA $4016,X @ 4016 = 00         A:00 X:00 Y:07 P:2C SP:24 PPU: 57,165 CYC:15597
CB06  85 00     STA $00 = 00                    A:00 X:00 Y:07 P:2E SP:24 PPU: 65,165 CYC:15601
CB08  4A        LSR A                           A:00 X:00 Y:07 P:2E SP:24 PPU: 73,165 CYC:15604
CB09  05 00     ORA $00 = 00                    A:00 X:00 Y:07 P:2E SP:24 PPU: 81,165 CYC:15606
CB0B  4A        LSR A                           A:00 X:00 Y:07 P:2E SP:24 PPU: 89,165 CYC:15609
CB0C  68        PLA                             A:00 X:00 Y:07 P:2E SP:24 PPU: 97,165 CYC:15611
CB0D  2A        ROL A                           A:00 X:00 Y:07 P:2E SP:25 PPU:105,165 CYC:15615
CB0E  88        DEY                             A:00 X:00 Y:07 P:2E SP:25 PPU:113,165 CYC:15617
CB0F  D0 F1     BNE $CB02                       A:00 X:00 Y:06 P:2C SP:25 PPU:121,165 CYC:15619
CB02  48        PHA                             A:00 X:00 Y:06 P:2C SP:25 PPU:129,165 CYC:15622
CB03  BD 16 40  LDA $4016,X @ 4016 = 00         A:00 X:00 Y:06 P:2C SP:24 PPU:137,165 CYC:15625
CB06  85 00     STA $00 = 00                    A:00 X:00 Y:06 P:2E SP:24 PPU:153,165 CYC:15629
CB08  4A        LSR A                           A:00 X:00 Y:06 P:2E SP:24 PPU:161,165 CYC:15632
CB09  05 00     ORA $00 = 00                    A:00 X:00 Y:06 P:2E SP:24 PPU:161,165 CYC:15634
CB0B  4A        LSR A                           A:00 X:00 Y:06 P:2E SP:24 PPU:177,165 CYC:15637
CB0C  68        PLA                             A:00 X:00 Y:06 P:2E SP:24 PPU:177,165 CYC:15639
CB0D  2A        ROL A                           A:00 X:00 Y:06 P:2E SP:25 PPU:193,165 CYC:15643
CB0E  88        DEY                             A:00 X:00 Y:06 P:2E SP:25 PPU:201,165 CYC:15645
CB0F  D0 F1     BNE $CB02                       A:00 X:00 Y:05 P:2C SP:25 PPU:201,165 CYC:15647
CB02  48        PHA                             A:00 X:00 Y:05 P:2C SP:25 PPU:209,165 CYC:15650
CB03  BD 16 40  LDA $4016,X @ 4016 = 00         A:00 X:00 Y:05 P:2C SP:24 PPU:225,165 CYC:15653
CB06  85 00     STA $00 = 00                    A:00 X:00 Y:05 P:2E SP:24 PPU:233,165 CYC:15657
CB08  4A        LSR A                           A:00 X:00 Y:05 P:2E SP:24 PPU:241,165 CYC:15660
CB09  05 00     ORA $00 = 00                    A:00 X:00 Y:05 P:2E SP:24 PPU:249,165 CYC:15662
CB0B  4A        LSR A                           A:00 X:00 Y:05 P:2E SP:24 PPU:257,165 CYC:15665
CB0C  68        PLA                             A:00 X:00 Y:05 P:2E SP:24 PPU:265,165 CYC:15667
CB0D  2A        ROL A                           A:00 X:00 Y:05 P:2E SP:25 PPU:273,165 CYC:15671
CB0E  88        DEY                             A:00 X:00 Y:05 P:2E SP:25 PPU:281,165 CYC:15673
CB0F  D0 F1     BNE $CB02                       A:00 X:00 Y:04 P:2C SP:25 PPU:289,165 CYC:15675
CB02  48        PHA                             A:00 X:00 Y:04 P:2C SP:25 PPU:297,165 CYC:15678
CB03  BD 16 40  LDA $4016,X @ 4016 = 00         A:00 X:00 Y:04 P:2C SP:24 PPU:305,165 CYC:15681
CB06  85 00     STA $00 = 00                    A:00 X:00 Y:04 P:2E SP:24 PPU:321,165 CYC:15685
CB08  4A        LSR A                           A:00 X:00 Y:04 P:2E SP:24 PPU:323,165 CYC:15688
CB09  05 00     ORA $00 = 00                    A:00 X:00 Y:04 P:2E SP:24 PPU:329,165 CYC:15690
CB0B  4A        LSR A                           A:00 X:00 Y:04 P:2E SP:24 PPU:345,165 CYC:15693
CB0C  68        PLA                             A:00 X:00 Y:04 P:2E SP:24 PPU:345,165 CYC:15695
CB0D  2A        ROL A                           A:00 X:00 Y:04 P:2E SP:25 PPU: 17,166 CYC:15699
CB0E  88        DEY                             A:00 X:00 Y:04 P:2E SP:25 PPU: 17,166 CYC:15701
CB0F  D0 F1     BNE $CB02                       A:00 X:00 Y:03 P:2C SP:25 PPU: 25,166 CYC:15703
CB02  48        PHA                             A:00 X:00 Y:03 P:2C SP:25 PPU: 33,166 CYC:15706
CB03  BD 16 40  LDA $4016,X @ 4016 = 00         A:00 X:00 Y:03 P:2C SP:24 PPU: 41,166 CYC:15709
CB06  85 00     STA $00 = 00                    A:00 X:00 Y:03 P:2E SP:24 PPU: 57,166 CYC:15713
CB08  4A        LSR A                           A:00 X:00 Y:03 P:2E SP:24 PPU: 65,166 CYC:15716
CB09  05 00     ORA $00 = 00                    A:00 X:00 Y:03 P:2E SP:24 PPU: 73,166 CYC:15718
CB0B  4A        LSR A                           A:00 X:00 Y:03 P:2E SP:24 PPU: 81,166 CYC:15721
CB0C  68        PLA                             A:00 X:00 Y:03 P:2E SP:24 PPU: 89,166 CYC:15723
CB0D  2A        ROL A                           A:00 X:00 Y:03 P:2E SP:25 PPU: 97,166 CYC:15727
CB0E  88        DEY                             A:00 X:00 Y:03 P:2E SP:25 PPU:105,166 CYC:15729
CB0F  D0 F1     BNE $CB02                       A:00 X:00 Y:02 P:2C SP:25 PPU:113,166 CYC:15731
CB02  48        PHA                             A:00 X:00 Y:02 P:2C SP:25 PPU:121,166 CYC:15734
CB03  BD 16 40  LDA $4016,X @ 4016 = 00         A:00 X:00 Y:02 P:2C SP:24 PPU:129,166 CYC:15737
CB06  85 00     STA $00 = 00                    A:00 X:00 Y:02 P:2E SP:24 PPU:137,166 CYC:15741
CB08  4A        LSR A                           A:00 X:00 Y:02 P:2E SP:24 PPU:153,166 CYC:15744
CB09  05 00     ORA $00 = 00                    A:00 X:00 Y:02 P:2E SP:24 PPU:153,166 CYC:15746
CB0B  4A        LSR A                           A:00 X:00 Y:02 P:2E SP:24 PPU:161,166 CYC:15749
CB0C  68        PLA                             A:00 X:00 Y:02 P:2E SP:24 PPU:169,166 CYC:15751
CB0D  2A        ROL A                           A:00 X:00 Y:02 P:2E SP:25 PPU:185,166 CYC:15755
CB0E  88        DEY                             A:00 X:00 Y:02 P:2E SP:25 PPU:185,166 CYC:15757
CB0F  D0 F1     BNE $CB02                       A:00 X:00 Y:01 P:2C SP:25 PPU:193,166 CYC:15759
CB02  48        PHA                             A:00 X:00 Y:01 P:2C SP:25 PPU:201,166 CYC:15762
CB03  BD 16 40  LDA $4016,X @ 4016 = 00         A:00 X:00 Y:01 P:2C SP:24 PPU:209,166 CYC:15765
CB06  85 00     STA $00 = 00                    A:00 X:00 Y:01 P:2E SP:24 PPU:225,166 CYC:15769
CB08  4A        LSR A                           A:00 X:00 Y:01 P:2E SP:24 PPU:233,166 CYC:15772
CB09  05 00     ORA $00 = 00                    A:00 X:00 Y:01 P:2E SP:24 PPU:241,166 CYC:15774
CB0B  4A        LSR A                           A:00 X:00 Y:01 P:2E SP:24 PPU:249,166 CYC:15777
CB0C  68        PLA                             A:00 X:00 Y:01 P:2E SP:24 PPU:257,166 CYC:15779
CB0D  2A        ROL A                           A:00 X:00 Y:01 P:2E SP:25 PPU:265,166 CYC:15783
CB0E  88        DEY                             A:00 X:00 Y:01 P:2E SP:25 PPU:273,166 CYC:15785
CB0F  D0 F1     BNE $CB02                       A:00 X:00 Y:00 P:2E SP:25 PPU:281,166 CYC:15787
CB11  86 00     STX $00 = 00                    A:00 X:00 Y:00 P:2E SP:25 PPU:281,166 CYC:15789
CB13  06 00     ASL $00 = 00                    A:00 X:00 Y:00 P:2E SP:25 PPU:297,166 CYC:15792
CB15  A6 00     LDX $00 = 00                    A:00 X:00 Y:00 P:2E SP:25 PPU:305,166 CYC:15797
CB17  B4 14     LDY $14,X @ 14 = 00             A:00 X:00 Y:00 P:2E SP:25 PPU:321,166 CYC:15800
CB19  84 00     STY $00 = 00                    A:00 X:00 Y:00 P:2E SP:25 PPU:326,166 CYC:15804
CB1B  95 14     STA $14,X @ 14 = 00             A:00 X:00 Y:00 P:2E SP:25 PPU:335,166 CYC:15807
CB1D  95 15     STA $15,X @ 15 = 00             A:00 X:00 Y:00 P:2E SP:25 PPU:  9,167 CYC:15811
CB1F  A0 04     LDY #$04                        A:00 X:00 Y:00 P:2E SP:25 PPU: 17,167 CYC:15815
CB21  A5 02     LDA $02 = 80                    A:00 X:00 Y:04 P:2C SP:25 PPU: 25,167 CYC:15817
CB23  24 00     BIT $00 = 00                    A:80 X:00 Y:04 P:AC SP:25 PPU: 33,167 CYC:15820
CB25  F0 06     BEQ $CB2D                       A:80 X:00 Y:04 P:2E SP:25 PPU: 41,167 CYC:15823
CB2D  38        SEC                             A:80 X:00 Y:04 P:2E SP:25 PPU: 49,167 CYC:15826
CB2E  66 01     ROR $01 = 7F                    A:80 X:00 Y:04 P:2F SP:25 PPU: 57,167 CYC:15828
CB30  46 02     LSR $02 = 80                    A:80 X:00 Y:04 P:AD SP:25 PPU: 73,167 CYC:15833
CB32  88        DEY                             A:80 X:00 Y:04 P:2C SP:25 PPU: 89,167 CYC:15838
CB33  D0 EC     BNE $CB21                       A:80 X:00 Y:03 P:2C SP:25 PPU: 89,167 CYC:15840
CB21  A5 02     LDA $02 = 40                    A:80 X:00 Y:03 P:2C SP:25 PPU:105,167 CYC:15843
CB23  24 00     BIT $00 = 00                    A:40 X:00 Y:03 P:2C SP:25 PPU:113,167 CYC:15846
CB25  F0 06     BEQ $CB2D                       A:40 X:00 Y:03 P:2E SP:25 PPU:121,167 CYC:15849
CB2D  38        SEC                             A:40 X:00 Y:03 P:2E SP:25 PPU:129,167 CYC:15852
CB2E  66 01     ROR $01 = BF                    A:40 X:00 Y:03 P:2F SP:25 PPU:137,167 CYC:15854
CB30  46 02     LSR $02 = 40                    A:40 X:00 Y:03 P:AD SP:25 PPU:153,167 CYC:15859
CB32  88        DEY                             A:40 X:00 Y:03 P:2C SP:25 PPU:161,167 CYC:15864
CB33  D0 EC     BNE $CB21                       A:40 X:00 Y:02 P:2C SP:25 PPU:169,167 CYC:15866
CB21  A5 02     LDA $02 = 20                    A:40 X:00 Y:02 P:2C SP:25 PPU:177,167 CYC:15869
CB23  24 00     BIT $00 = 00                    A:20 X:00 Y:02 P:2C SP:25 PPU:185,167 CYC:15872
CB25  F0 06     BEQ $CB2D                       A:20 X:00 Y:02 P:2E SP:25 PPU:201,167 CYC:15875
CB2D  38        SEC                             A:20 X:00 Y:02 P:2E SP:25 PPU:209,167 CYC:15878
CB2E  66 01     ROR $01 = DF                    A:20 X:00 Y:02 P:2F SP:25 PPU:209,167 CYC:15880
CB30  46 02     LSR $02 = 20                    A:20 X:00 Y:02 P:AD SP:25 PPU:225,167 CYC:15885
CB32  88        DEY                             A:20 X:00 Y:02 P:2C SP:25 PPU:241,167 CYC:15890
CB33  D0 EC     BNE $CB21                       A:20 X:00 Y:01 P:2C SP:25 PPU:249,167 CYC:15892
CB21  A5 02     LDA $02 = 10                    A:20 X:00 Y:01 P:2C SP:25 PPU:257,167 CYC:15895
CB23  24 00     BIT $00 = 00                    A:10 X:00 Y:01 P:2C SP:25 PPU:265,167 CYC:15898
CB25  F0 06     BEQ $CB2D                       A:10 X:00 Y:01 P:2E SP:25 PPU:273,167 CYC:15901
CB2D  38        SEC                             A:10 X:00 Y:01 P:2E SP:25 PPU:281,167 CYC:15904
CB2E  66 01     ROR $01 = EF                    A:10 X:00 Y:01 P:2F SP:25 PPU:289,167 CYC:15906
CB30  46 02     LSR $02 = 10                    A:10 X:00 Y:01 P:AD SP:25 PPU:305,167 CYC:15911
CB32  88        DEY                             A:10 X:00 Y:01 P:2C SP:25 PPU:321,167 CYC:15916
CB33  D0 EC     BNE $CB21                       A:10 X:00 Y:00 P:2E SP:25 PPU:323,167 CYC:15918
CB35  A9 7F     LDA #$7F                        A:10 X:00 Y:00 P:2E SP:25 PPU:329,167 CYC:15920
CB37  85 01     STA $01 = F7                    A:7F X:00 Y:00 P:2C SP:25 PPU:335,167 CYC:15922
CB39  A9 80     LDA #$80                        A:7F X:00 Y:00 P:2C SP:25 PPU:345,167 CYC:15925
CB3B  85 02     STA $02 = 08                    A:80 X:00 Y:00 P:AC SP:25 PPU:  9,168 CYC:15927
CB3D  60        RTS                             A:80 X:00 Y:00 P:AC SP:25 PPU: 17,168 CYC:15930
CAFF  E8        INX                             A:80 X:00 Y:00 P:AC SP:27 PPU: 33,168 CYC:15936
CB00  A0 08     LDY #$08                        A:80 X:01 Y:00 P:2C SP:27 PPU: 41,168 CYC:15938
CB02  48        PHA                             A:80 X:01 Y:08 P:2C SP:27 PPU: 49,168 CYC:15940
CB03  BD 16 40  LDA $4016,X @ 4017 = 00         A:80 X:01 Y:08 P:2C SP:26 PPU: 57,168 CYC:15943
CB06  85 00     STA $00 = 00                    A:00 X:01 Y:08 P:2E SP:26 PPU: 65,168 CYC:15947
CB08  4A        LSR A                           A:00 X:01 Y:08 P:2E SP:26 PPU: 81,168 CYC:15950
CB09  05 00     ORA $00 = 00                    A:00 X:01 Y:08 P:2E SP:26 PPU: 81,168 CYC:15952
CB0B  4A        LSR A                           A:00 X:01 Y:08 P:2E SP:26 PPU: 89,168 CYC:15955
CB0C  68        PLA                             A:00 X:01 Y:08 P:2E SP:26 PPU: 97,168 CYC:15957
CB0D  2A        ROL A                           A:80 X:01 Y:08 P:AC SP:27 PPU:113,168 CYC:15961
CB0E  88        DEY                             A:00 X:01 Y:08 P:2F SP:27 PPU:113,168 CYC:15963
CB0F  D0 F1     BNE $CB02                       A:00 X:01 Y:07 P:2D SP:27 PPU:121,168 CYC:15965
CB02  48        PHA                             A:00 X:01 Y:07 P:2D SP:27 PPU:129,168 CYC:15968
CB03  BD 16 40  LDA $4016,X @ 4017 = 00         A:00 X:01 Y:07 P:2D SP:26 PPU:137,168 CYC:15971
CB06  85 00     STA $00 = 00                    A:00 X:01 Y:07 P:2F SP:26 PPU:153,168 CYC:15975
CB08  4A        LSR A                           A:00 X:01 Y:07 P:2F SP:26 PPU:161,168 CYC:15978
CB09  05 00     ORA $00 = 00                    A:00 X:01 Y:07 P:2E SP:26 PPU:169,168 CYC:15980
CB0B  4A        LSR A                           A:00 X:01 Y:07 P:2E SP:26 PPU:177,168 CYC:15983
CB0C  68        PLA                             A:00 X:01 Y:07 P:2E SP:26 PPU:185,168 CYC:15985
CB0D  2A        ROL A                           A:00 X:01 Y:07 P:2E SP:27 PPU:193,168 CYC:15989
CB0E  88        DEY                             A:00 X:01 Y:07 P:2E SP:27 PPU:201,168 CYC:15991
CB0F  D0 F1     BNE $CB02                       A:00 X:01 Y:06 P:2C SP:27 PPU:209,168 CYC:15993
CB02  48        PHA                             A:00 X:01 Y:06 P:2C SP:27 PPU:217,168 CYC:15996
CB03  BD 16 40  LDA $4016,X @ 4017 = 00         A:00 X:01 Y:06 P:2C SP:26 PPU:225,168 CYC:15999
CB06  85 00     STA $00 = 00                    A:00 X:01 Y:06 P:2E SP:26 PPU:233,168 CYC:16003
CB08  4A        LSR A                           A:00 X:01 Y:06 P:2E SP:26 PPU:249,168 CYC:16006
CB09  05 00     ORA $00 = 00                    A:00 X:01 Y:06 P:2E SP:26 PPU:249,168 CYC:16008
CB0B  4A        LSR A                           A:00 X:01 Y:06 P:2E SP:26 PPU:257,168 CYC:16011
CB0C  68        PLA                             A:00 X:01 Y:06 P:2E SP:26 PPU:265,168 CYC:16013
CB0D  2A        ROL A                           A:00 X:01 Y:06 P:2E SP:27 PPU:281,168 CYC:16017
CB0E  88        DEY                             A:00 X:01 Y:06 P:2E SP:27 PPU:281,168 CYC:16019
CB0F  D0 F1     BNE $CB02                       A:00 X:01 Y:05 P:2C SP:27 PPU:289,168 CYC:16021
CB02  48        PHA                             A:00 X:01 Y:05 P:2C SP:27 PPU:297,168 CYC:16024
CB03  BD 16 40  LDA $4016,X @ 4017 = 00         A:00 X:01 Y:05 P:2C SP:26 PPU:305,168 CYC:16027
CB06  85 00     STA $00 = 00                    A:00 X:01 Y:05 P:2E SP:26 PPU:321,168 CYC:16031
CB08  4A        LSR A                           A:00 X:01 Y:05 P:2E SP:26 PPU:326,168 CYC:16034
CB09  05 00     ORA $00 = 00                    A:00 X:01 Y:05 P:2E SP:26 PPU:332,168 CYC:16036
CB0B  4A        LSR A                           A:00 X:01 Y:05 P:2E SP:26 PPU:345,168 CYC:16039
CB0C  68        PLA                             A:00 X:01 Y:05 P:2E SP:26 PPU:  9,169 CYC:16041
CB0D  2A        ROL A                           A:00 X:01 Y:05 P:2E SP:27 PPU: 17,169 CYC:16045
CB0E  88        DEY                             A:00 X:01 Y:05 P:2E SP:27 PPU: 25,169 CYC:16047
CB0F  D0 F1     BNE $CB02                       A:00 X:01 Y:04 P:2C SP:27 PPU: 33,169 CYC:16049
CB02  48        PHA                             A:00 X:01 Y:04 P:2C SP:27 PPU: 41,169 CYC:16052
CB03  BD 16 40  LDA $4016,X @ 4017 = 00         A:00 X:01 Y:04 P:2C SP:26 PPU: 49,169 CYC:16055
CB06  85 00     STA $00 = 00                    A:00 X:01 Y:04 P:2E SP:26 PPU: 57,169 CYC:16059
CB08  4A        LSR A                           A:00 X:01 Y:04 P:2E SP:26 PPU: 65,169 CYC:16062
CB09  05 00     ORA $00 = 00                    A:00 X:01 Y:04 P:2E SP:26 PPU: 73,169 CYC:16064
CB0B  4A        LSR A                           A:00 X:01 Y:04 P:2E SP:26 PPU: 81,169 CYC:16067
CB0C  68        PLA                             A:00 X:01 Y:04 P:2E SP:26 PPU: 89,169 CYC:16069
CB0D  2A        ROL A                           A:00 X:01 Y:04 P:2E SP:27 PPU:105,169 CYC:16073
CB0E  88        DEY                             A:00 X:01 Y:04 P:2E SP:27 PPU:105,169 CYC:16075
CB0F  D0 F1     BNE $CB02                       A:00 X:01 Y:03 P:2C SP:27 PPU:113,169 CYC:16077
CB02  48        PHA                             A:00 X:01 Y:03 P:2C SP:27 PPU:121,169 CYC:16080
CB03  BD 16 40  LDA $4016,X @ 4017 = 00         A:00 X:01 Y:03 P:2C SP:26 PPU:129,169 CYC:16083
CB06  85 00     STA $00 = 00                    A:00 X:01 Y:03 P:2E SP:26 PPU:145,169 CYC:16087
CB08  4A        LSR A                           A:00 X:01 Y:03 P:2E SP:26 PPU:153,169 CYC:16090
CB09  05 00     ORA $00 = 00                    A:00 X:01 Y:03 P:2E SP:26 PPU:161,169 CYC:16092
CB0B  4A        LSR A                           A:00 X:01 Y:03 P:2E SP:26 PPU:169,169 CYC:16095
CB0C  68        PLA                             A:00 X:01 Y:03 P:2E SP:26 PPU:177,169 CYC:16097
CB0D  2A        ROL A                           A:00 X:01 Y:03 P:2E SP:27 PPU:185,169 CYC:16101
CB0E  88        DEY                             A:00 X:01 Y:03 P:2E SP:27 PPU:193,169 CYC:16103
CB0F  D0 F1     BNE $CB02                       A:00 X:01 Y:02 P:2C SP:27 PPU:201,169 CYC:16105
CB02  48        PHA                             A:00 X:01 Y:02 P:2C SP:27 PPU:209,169 CYC:16108
CB03  BD 16 40  LDA $4016,X @ 4017 = 00         A:00 X:01 Y:02 P:2C SP:26 PPU:217,169 CYC:16111
CB06  85 00     STA $00 = 00                    A:00 X:01 Y:02 P:2E SP:26 PPU:225,169 CYC:16115
CB08  4A        LSR A                           A:00 X:01 Y:02 P:2E SP:26 PPU:233,169 CYC:16118
CB09  05 00     ORA $00 = 00                    A:00 X:01 Y:02 P:2E SP:26 PPU:241,169 CYC:16120
CB0B  4A        LSR A                           A:00 X:01 Y:02 P:2E SP:26 PPU:249,169 CYC:16123
CB0C  68        PLA                             A:00 X:01 Y:02 P:2E SP:26 PPU:257,169 CYC:16125
CB0D  2A        ROL A                           A:00 X:01 Y:02 P:2E SP:27 PPU:273,169 CYC:16129
CB0E  88        DEY                             A:00 X:01 Y:02 P:2E SP:27 PPU:273,169 CYC:16131
CB0F  D0 F1     BNE $CB02                       A:00 X:01 Y:01 P:2C SP:27 PPU:281,169 CYC:16133
CB02  48        PHA                             A:00 X:01 Y:01 P:2C SP:27 PPU:289,169 CYC:16136
CB03  BD 16 40  LDA $4016,X @ 4017 = 00         A:00 X:01 Y:01 P:2C SP:26 PPU:297,169 CYC:16139
CB06  85 00     STA $00 = 00                    A:00 X:01 Y:01 P:2E SP:26 PPU:313,169 CYC:16143
CB08  4A        LSR A                           A:00 X:01 Y:01 P:2E SP:26 PPU:321,169 CYC:16146
CB09  05 00     ORA $00 = 00                    A:00 X:01 Y:01 P:2E SP:26 PPU:323,169 CYC:16148
CB0B  4A        LSR A                           A:00 X:01 Y:01 P:2E SP:26 PPU:332,169 CYC:16151
CB0C  68        PLA                             A:00 X:01 Y:01 P:2E SP:26 PPU:345,169 CYC:16153
CB0D  2A        ROL A                           A:00 X:01 Y:01 P:2E SP:27 PPU:  9,170 CYC:16157
CB0E  88        DEY                             A:00 X:01 Y:01 P:2E SP:27 PPU: 17,170 CYC:16159
CB0F  D0 F1     BNE $CB02                       A:00 X:01 Y:00 P:2E SP:27 PPU: 17,170 CYC:16161
CB11  86 00     STX $00 = 00                    A:00 X:01 Y:00 P:2E SP:27 PPU: 25,170 CYC:16163
CB13  06 00     ASL $00 = 01                    A:00 X:01 Y:00 P:2E SP:27 PPU: 33,170 CYC:16166
CB15  A6 00     LDX $00 = 02                    A:00 X:01 Y:00 P:2C SP:27 PPU: 49,170 CYC:16171
CB17  B4 14     LDY $14,X @ 16 = 00             A:00 X:02 Y:00 P:2C SP:27 PPU: 57,170 CYC:16174
CB19  84 00     STY $00 = 02                    A:00 X:02 Y:00 P:2E SP:27 PPU: 73,170 CYC:16178
CB1B  95 14     STA $14,X @ 16 = 00             A:00 X:02 Y:00 P:2E SP:27 PPU: 81,170 CYC:16181
CB1D  95 15     STA $15,X @ 17 = 00             A:00 X:02 Y:00 P:2E SP:27 PPU: 89,170 CYC:16185
CB1F  A0 04     LDY #$04                        A:00 X:02 Y:00 P:2E SP:27 PPU:105,170 CYC:16189
CB21  A5 02     LDA $02 = 80                    A:00 X:02 Y:04 P:2C SP:27 PPU:113,170 CYC:16191
CB23  24 00     BIT $00 = 00                    A:80 X:02 Y:04 P:AC SP:27 PPU:121,170 CYC:16194
CB25  F0 06     BEQ $CB2D                       A:80 X:02 Y:04 P:2E SP:27 PPU:129,170 CYC:16197
CB2D  38        SEC                             A:80 X:02 Y:04 P:2E SP:27 PPU:137,170 CYC:16200
CB2E  66 01     ROR $01 = 7F                    A:80 X:02 Y:04 P:2F SP:27 PPU:145,170 CYC:16202
CB30  46 02     LSR $02 = 80                    A:80 X:02 Y:04 P:AD SP:27 PPU:161,170 CYC:16207
CB32  88        DEY                             A:80 X:02 Y:04 P:2C SP:27 PPU:177,170 CYC:16212
CB33  D0 EC     BNE $CB21                       A:80 X:02 Y:03 P:2C SP:27 PPU:177,170 CYC:16214
CB21  A5 02     LDA $02 = 40                    A:80 X:02 Y:03 P:2C SP:27 PPU:185,170 CYC:16217
CB23  24 00     BIT $00 = 00                    A:40 X:02 Y:03 P:2C SP:27 PPU:201,170 CYC:16220
CB25  F0 06     BEQ $CB2D                       A:40 X:02 Y:03 P:2E SP:27 PPU:209,170 CYC:16223
CB2D  38        SEC                             A:40 X:02 Y:03 P:2E SP:27 PPU:217,170 CYC:16226
CB2E  66 01     ROR $01 = BF                    A:40 X:02 Y:03 P:2F SP:27 PPU:225,170 CYC:16228
CB30  46 02     LSR $02 = 40                    A:40 X:02 Y:03 P:AD SP:27 PPU:233,170 CYC:16233
CB32  88        DEY                             A:40 X:02 Y:03 P:2C SP:27 PPU:249,170 CYC:16238
CB33  D0 EC     BNE $CB21                       A:40 X:02 Y:02 P:2C SP:27 PPU:257,170 CYC:16240
CB21  A5 02     LDA $02 = 20                    A:40 X:02 Y:02 P:2C SP:27 PPU:265,170 CYC:16243
CB23  24 00     BIT $00 = 00                    A:20 X:02 Y:02 P:2C SP:27 PPU:273,170 CYC:16246
CB25  F0 06     BEQ $CB2D                       A:20 X:02 Y:02 P:2E SP:27 PPU:281,170 CYC:16249
CB2D  38        SEC                             A:20 X:02 Y:02 P:2E SP:27 PPU:297,170 CYC:16252
CB2E  66 01     ROR $01 = DF                    A:20 X:02 Y:02 P:2F SP:27 PPU:297,170 CYC:16254
CB30  46 02     LSR $02 = 20                    A:20 X:02 Y:02 P:AD SP:27 PPU:313,170 CYC:16259
CB32  88        DEY                             A:20 X:02 Y:02 P:2C SP:27 PPU:326,170 CYC:16264
CB33  D0 EC     BNE $CB21                       A:20 X:02 Y:01 P:2C SP:27 PPU:332,170 CYC:16266
CB21  A5 02     LDA $02 = 10                    A:20 X:02 Y:01 P:2C SP:27 PPU:345,170 CYC:16269
CB23  24 00     BIT $00 = 00                    A:10 X:02 Y:01 P:2C SP:27 PPU:  9,171 CYC:16272
CB25  F0 06     BEQ $CB2D                       A:10 X:02 Y:01 P:2E SP:27 PPU: 17,171 CYC:16275
CB2D  38        SEC                             A:10 X:02 Y:01 P:2E SP:27 PPU: 25,171 CYC:16278
CB2E  66 01     ROR $01 = EF                    A:10 X:02 Y:01 P:2F SP:27 PPU: 33,171 CYC:16280
CB30  46 02     LSR $02 = 10                    A:10 X:02 Y:01 P:AD SP:27 PPU: 49,171 CYC:16285
CB32  88        DEY                             A:10 X:02 Y:01 P:2C SP:27 PPU: 65,171 CYC:16290
CB33  D0 EC     BNE $CB21                       A:10 X:02 Y:00 P:2E SP:27 PPU: 65,171 CYC:16292
CB35  A9 7F     LDA #$7F                        A:10 X:02 Y:00 P:2E SP:27 PPU: 73,171 CYC:16294
CB37  85 01     STA $01 = F7                    A:7F X:02 Y:00 P:2C SP:27 PPU: 81,171 CYC:16296
CB39  A9 80     LDA #$80                        A:7F X:02 Y:00 P:2C SP:27 PPU: 89,171 CYC:16299
CB3B  85 02     STA $02 = 08                    A:80 X:02 Y:00 P:AC SP:27 PPU: 97,171 CYC:16301
CB3D  60        RTS                             A:80 X:02 Y:00 P:AC SP:27 PPU:105,171 CYC:16304
C0C6  20 1E F9  JSR $F91E                       A:80 X:02 Y:00 P:AC SP:29 PPU:121,171 CYC:16310
F91E  A9 FF     LDA #$FF                        A:80 X:02 Y:00 P:AC SP:27 PPU:137,171 CYC:16316
F920  8D 17 40  STA $4017 = 00                  A:FF X:02 Y:00 P:AC SP:27 PPU:145,171 CYC:16318
F923  20 EB F9  JSR $F9EB                       A:FF X:02 Y:00 P:AC SP:27 PPU:161,171 CYC:16322
F9EB  A4 FF     LDY $FF = 00                    A:FF X:02 Y:00 P:AC SP:25 PPU:177,171 CYC:16328
F9ED  A5 F0     LDA $F0 = 00                    A:FF X:02 Y:00 P:2E SP:25 PPU:185,171 CYC:16331
F9EF  46 FF     LSR $FF = 00                    A:00 X:02 Y:00 P:2E SP:25 PPU:193,171 CYC:16334
F9F1  B0 B8     BCS $F9AB                       A:00 X:02 Y:00 P:2E SP:25 PPU:209,171 CYC:16339
F9F3  4A        LSR A                           A:00 X:02 Y:00 P:2E SP:25 PPU:217,171 CYC:16341
F9F4  B0 BB     BCS $F9B1                       A:00 X:02 Y:00 P:2E SP:25 PPU:225,171 CYC:16343
F9F6  46 FF     LSR $FF = 00                    A:00 X:02 Y:00 P:2E SP:25 PPU:225,171 CYC:16345
F9F8  B0 CE     BCS $F9C8                       A:00 X:02 Y:00 P:2E SP:25 PPU:241,171 CYC:16350
F9FA  4A        LSR A                           A:00 X:02 Y:00 P:2E SP:25 PPU:249,171 CYC:16352
F9FB  B0 D3     BCS $F9D0                       A:00 X:02 Y:00 P:2E SP:25 PPU:257,171 CYC:16354
F9FD  46 FF     LSR $FF = 00                    A:00 X:02 Y:00 P:2E SP:25 PPU:257,171 CYC:16356
F9FF  B0 0B     BCS $FA0C                       A:00 X:02 Y:00 P:2E SP:25 PPU:273,171 CYC:16361
FA01  4A        LSR A                           A:00 X:02 Y:00 P:2E SP:25 PPU:281,171 CYC:16363
FA02  B0 17     BCS $FA1B                       A:00 X:02 Y:00 P:2E SP:25 PPU:289,171 CYC:16365
FA04  46 FF     LSR $FF = 00                    A:00 X:02 Y:00 P:2E SP:25 PPU:297,171 CYC:16367
FA06  B0 38     BCS $FA40                       A:00 X:02 Y:00 P:2E SP:25 PPU:305,171 CYC:16372
FA08  4A        LSR A                           A:00 X:02 Y:00 P:2E SP:25 PPU:313,171 CYC:16374
FA09  B0 3F     BCS $FA4A                       A:00 X:02 Y:00 P:2E SP:25 PPU:321,171 CYC:16376
FA0B  60        RTS                             A:00 X:02 Y:00 P:2E SP:25 PPU:323,171 CYC:16378
F926  20 C4 FA  JSR $FAC4                       A:00 X:02 Y:00 P:2E SP:27 PPU:345,171 CYC:16384
FAC4  A4 FE     LDY $FE = 00                    A:00 X:02 Y:00 P:2E SP:25 PPU: 17,172 CYC:16390
FAC6  A5 F1     LDA $F1 = 00                    A:00 X:02 Y:00 P:2E SP:25 PPU: 25,172 CYC:16393
FAC8  46 FE     LSR $FE = 00                    A:00 X:02 Y:00 P:2E SP:25 PPU: 33,172 CYC:16396
FACA  B0 98     BCS $FA64                       A:00 X:02 Y:00 P:2E SP:25 PPU: 49,172 CYC:16401
FACC  4A        LSR A                           A:00 X:02 Y:00 P:2E SP:25 PPU: 57,172 CYC:16403
FACD  B0 9C     BCS $FA6B                       A:00 X:02 Y:00 P:2E SP:25 PPU: 65,172 CYC:16405
FACF  46 FE     LSR $FE = 00                    A:00 X:02 Y:00 P:2E SP:25 PPU: 65,172 CYC:16407
FAD1  B0 B0     BCS $FA83                       A:00 X:02 Y:00 P:2E SP:25 PPU: 81,172 CYC:16412
FAD3  4A        LSR A                           A:00 X:02 Y:00 P:2E SP:25 PPU: 89,172 CYC:16414
FAD4  B0 BE     BCS $FA94                       A:00 X:02 Y:00 P:2E SP:25 PPU: 97,172 CYC:16416
FAD6  46 FE     LSR $FE = 00                    A:00 X:02 Y:00 P:2E SP:25 PPU:105,172 CYC:16418
FAD8  B0 12     BCS $FAEC                       A:00 X:02 Y:00 P:2E SP:25 PPU:113,172 CYC:16423
FADA  4A        LSR A                           A:00 X:02 Y:00 P:2E SP:25 PPU:121,172 CYC:16425
FADB  B0 D8     BCS $FAB5                       A:00 X:02 Y:00 P:2E SP:25 PPU:129,172 CYC:16427
FADD  4A        LSR A                           A:00 X:02 Y:00 P:2E SP:25 PPU:137,172 CYC:16429
FADE  B0 29     BCS $FB09                       A:00 X:02 Y:00 P:2E SP:25 PPU:137,172 CYC:16431
FAE0  46 FE     LSR $FE = 00                    A:00 X:02 Y:00 P:2E SP:25 PPU:145,172 CYC:16433
FAE2  B0 15     BCS $FAF9                       A:00 X:02 Y:00 P:2E SP:25 PPU:161,172 CYC:16438
FAE4  46 FE     LSR $FE = 00                    A:00 X:02 Y:00 P:2E SP:25 PPU:169,172 CYC:16440
FAE6  B0 2F     BCS $FB17                       A:00 X:02 Y:00 P:2E SP:25 PPU:185,172 CYC:16445
FAE8  4A        LSR A                           A:00 X:02 Y:00 P:2E SP:25 PPU:185,172 CYC:16447
FAE9  B0 CA     BCS $FAB5                       A:00 X:02 Y:00 P:2E SP:25 PPU:193,172 CYC:16449
FAEB  60        RTS                             A:00 X:02 Y:00 P:2E SP:25 PPU:201,172 CYC:16451
F929  20 A1 FB  JSR $FBA1                       A:00 X:02 Y:00 P:2E SP:27 PPU:217,172 CYC:16457
FBA1  A4 FC     LDY $FC = 00                    A:00 X:02 Y:00 P:2E SP:25 PPU:233,172 CYC:16463
FBA3  A5 F2     LDA $F2 = 00                    A:00 X:02 Y:00 P:2E SP:25 PPU:249,172 CYC:16466
FBA5  46 FC     LSR $FC = 00                    A:00 X:02 Y:00 P:2E SP:25 PPU:257,172 CYC:16469
FBA7  B0 C8     BCS $FB71                       A:00 X:02 Y:00 P:2E SP:25 PPU:273,172 CYC:16474
FBA9  4A        LSR A                           A:00 X:02 Y:00 P:2E SP:25 PPU:273,172 CYC:16476
FBAA  B0 CC     BCS $FB78                       A:00 X:02 Y:00 P:2E SP:25 PPU:281,172 CYC:16478
FBAC  46 FC     LSR $FC = 00                    A:00 X:02 Y:00 P:2E SP:25 PPU:289,172 CYC:16480
FBAE  B0 0B     BCS $FBBB                       A:00 X:02 Y:00 P:2E SP:25 PPU:305,172 CYC:16485
FBB0  4A        LSR A                           A:00 X:02 Y:00 P:2E SP:25 PPU:305,172 CYC:16487
FBB1  B0 18     BCS $FBCB                       A:00 X:02 Y:00 P:2E SP:25 PPU:313,172 CYC:16489
FBB3  46 FC     LSR $FC = 00                    A:00 X:02 Y:00 P:2E SP:25 PPU:321,172 CYC:16491
FBB5  B0 24     BCS $FBDB                       A:00 X:02 Y:00 P:2E SP:25 PPU:332,172 CYC:16496
FBB7  4A        LSR A                           A:00 X:02 Y:00 P:2E SP:25 PPU:345,172 CYC:16498
FBB8  B0 31     BCS $FBEB                       A:00 X:02 Y:00 P:2E SP:25 PPU:345,172 CYC:16500
FBBA  60        RTS                             A:00 X:02 Y:00 P:2E SP:25 PPU:  9,173 CYC:16502
F92C  20 FC FB  JSR $FBFC                       A:00 X:02 Y:00 P:2E SP:27 PPU: 25,173 CYC:16508
FBFC  A5 FB     LDA $FB = 00                    A:00 X:02 Y:00 P:2E SP:25 PPU: 41,173 CYC:16514
FBFE  D0 05     BNE $FC05                       A:00 X:02 Y:00 P:2E SP:25 PPU: 57,173 CYC:16517
FC00  A5 F3     LDA $F3 = 00                    A:00 X:02 Y:00 P:2E SP:25 PPU: 57,173 CYC:16519
FC02  D0 4D     BNE $FC51                       A:00 X:02 Y:00 P:2E SP:25 PPU: 65,173 CYC:16522
FC04  60        RTS                             A:00 X:02 Y:00 P:2E SP:25 PPU: 73,173 CYC:16524
F92F  A9 00     LDA #$00                        A:00 X:02 Y:00 P:2E SP:27 PPU: 89,173 CYC:16530
F931  85 FF     STA $FF = 00                    A:00 X:02 Y:00 P:2E SP:27 PPU: 97,173 CYC:16532
F933  85 FE     STA $FE = 00                    A:00 X:02 Y:00 P:2E SP:27 PPU:105,173 CYC:16535
F935  85 FC     STA $FC = 00                    A:00 X:02 Y:00 P:2E SP:27 PPU:113,173 CYC:16538
F937  85 FB     STA $FB = 00                    A:00 X:02 Y:00 P:2E SP:27 PPU:129,173 CYC:16541
F939  AC 11 07  LDY $0711 = 00                  A:00 X:02 Y:00 P:2E SP:27 PPU:137,173 CYC:16544
F93C  A5 F3     LDA $F3 = 00                    A:00 X:02 Y:00 P:2E SP:27 PPU:145,173 CYC:16548
F93E  29 0C     AND #$0C                        A:00 X:02 Y:00 P:2E SP:27 PPU:153,173 CYC:16551
F940  F0 07     BEQ $F949                       A:00 X:02 Y:00 P:2E SP:27 PPU:161,173 CYC:16553
F949  98        TYA                             A:00 X:02 Y:00 P:2E SP:27 PPU:169,173 CYC:16556
F94A  F0 03     BEQ $F94F                       A:00 X:02 Y:00 P:2E SP:27 PPU:177,173 CYC:16558
F94F  8C 11 40  STY $4011 = 00                  A:00 X:02 Y:00 P:2E SP:27 PPU:185,173 CYC:16561
F952  60        RTS                             A:00 X:02 Y:00 P:2E SP:27 PPU:201,173 CYC:16565
C0C9  A5 53     LDA $53 = 00                    A:00 X:02 Y:00 P:2E SP:29 PPU:217,173 CYC:16571
C0CB  F0 06     BEQ $C0D3                       A:00 X:02 Y:00 P:2E SP:29 PPU:225,173 CYC:16574
C0D3  A5 51     LDA $51 = 01                    A:00 X:02 Y:00 P:2E SP:29 PPU:233,173 CYC:16577
C0D5  F0 4F     BEQ $C126                       A:01 X:02 Y:00 P:2C SP:29 PPU:241,173 CYC:16580
C0D7  AE 4C 03  LDX $034C = 02                  A:01 X:02 Y:00 P:2C SP:29 PPU:249,173 CYC:16582
C0DA  F0 3E     BEQ $C11A                       A:01 X:02 Y:00 P:2C SP:29 PPU:257,173 CYC:16586
C0DC  CA        DEX                             A:01 X:02 Y:00 P:2C SP:29 PPU:265,173 CYC:16588
C0DD  F0 24     BEQ $C103                       A:01 X:01 Y:00 P:2C SP:29 PPU:273,173 CYC:16590
C0DF  CA        DEX                             A:01 X:01 Y:00 P:2C SP:29 PPU:281,173 CYC:16592
C0E0  D0 1E     BNE $C100                       A:01 X:00 Y:00 P:2E SP:29 PPU:281,173 CYC:16594
C0E2  A5 11     LDA $11 = 1F                    A:01 X:00 Y:00 P:2E SP:29 PPU:289,173 CYC:16596
C0E4  29 EF     AND #$EF                        A:1F X:00 Y:00 P:2C SP:29 PPU:297,173 CYC:16599
C0E6  8D 01 20  STA $2001 = 1F                  A:0F X:00 Y:00 P:2C SP:29 PPU:305,173 CYC:16601
C0E9  85 11     STA $11 = 1F                    A:0F X:00 Y:00 P:2C SP:29 PPU:321,173 CYC:16605
C0EB  A5 15     LDA $15 = 00                    A:0F X:00 Y:00 P:2C SP:29 PPU:323,173 CYC:16608
C0ED  29 10     AND #$10                        A:00 X:00 Y:00 P:2E SP:29 PPU:332,173 CYC:16611
C0EF  F0 47     BEQ $C138                       A:00 X:00 Y:00 P:2E SP:29 PPU:345,173 CYC:16613
C138  20 41 C1  JSR $C141                       A:00 X:00 Y:00 P:2E SP:29 PPU:  9,174 CYC:16617
C141  AD 02 20  LDA $2002 = 0F                  A:00 X:00 Y:00 P:2E SP:27 PPU: 25,174 CYC:16623
C144  A5 10     LDA $10 = 11                    A:0F X:00 Y:00 P:2C SP:27 PPU: 41,174 CYC:16627
C146  09 80     ORA #$80                        A:11 X:00 Y:00 P:2C SP:27 PPU: 49,174 CYC:16630
C148  85 10     STA $10 = 11                    A:91 X:00 Y:00 P:AC SP:27 PPU: 57,174 CYC:16632
C14A  8D 00 20  STA $2000 = 11                  A:91 X:00 Y:00 P:AC SP:27 PPU: 65,174 CYC:16635
C14D  60        RTS                             A:91 X:00 Y:00 P:AC SP:27 PPU: 73,174 CYC:16639
C13B  68        PLA                             A:91 X:00 Y:00 P:AC SP:29 PPU: 89,174 CYC:16645
C13C  A8        TAY                             A:10 X:00 Y:00 P:2C SP:2A PPU:105,174 CYC:16649
C13D  68        PLA                             A:10 X:00 Y:10 P:2C SP:2A PPU:113,174 CYC:16651
C13E  AA        TAX                             A:2D X:00 Y:10 P:2C SP:2B PPU:121,174 CYC:16655
C13F  68        PLA                             A:2D X:2D Y:10 P:2C SP:2B PPU:129,174 CYC:16657
C140  40        RTI                             A:FF X:2D Y:10 P:AC SP:2C PPU:137,174 CYC:16661
00BF  01 01     ORA ($01,X) @ 2E = 0000 = 00    A:FF X:2D Y:10 P:A8 SP:2F PPU:161,174 CYC:16667
00C1  00        BRK                             A:FF X:2D Y:10 P:A8 SP:2F PPU:177,174 CYC:16673
C076  48        PHA                             A:FF X:2D Y:10 P:AC SP:2C PPU:201,174 CYC:16680
C077  8A        TXA                             A:FF X:2D Y:10 P:AC SP:2B PPU:209,174 CYC:16683
C078  48        PHA                             A:2D X:2D Y:10 P:2C SP:2B PPU:209,174 CYC:16685
C079  98        TYA                             A:2D X:2D Y:10 P:2C SP:2A PPU:225,174 CYC:16688
C07A  48        PHA                             A:10 X:2D Y:10 P:2C SP:2A PPU:225,174 CYC:16690
C07B  A5 10     LDA $10 = 91                    A:10 X:2D Y:10 P:2C SP:29 PPU:233,174 CYC:16693
C07D  A6 DE     LDX $DE = 00                    A:91 X:2D Y:10 P:AC SP:29 PPU:249,174 CYC:16696
C07F  F0 02     BEQ $C083                       A:91 X:00 Y:10 P:2E SP:29 PPU:257,174 CYC:16699
C083  29 7F     AND #$7F                        A:91 X:00 Y:10 P:2E SP:29 PPU:265,174 CYC:16702
C085  20 48 C1  JSR $C148                       A:11 X:00 Y:10 P:2C SP:29 PPU:273,174 CYC:16704
C148  85 10     STA $10 = 91                    A:11 X:00 Y:10 P:2C SP:27 PPU:289,174 CYC:16710
C14A  8D 00 20  STA $2000 = 91                  A:11 X:00 Y:10 P:2C SP:27 PPU:297,174 CYC:16713
C14D  60        RTS                             A:11 X:00 Y:10 P:2C SP:27 PPU:305,174 CYC:16717
C088  A5 52     LDA $52 = 00                    A:11 X:00 Y:10 P:2C SP:29 PPU:323,174 CYC:16723
C08A  D0 09     BNE $C095                       A:00 X:00 Y:10 P:2E SP:29 PPU:332,174 CYC:16726
C08C  A5 11     LDA $11 = 0F                    A:00 X:00 Y:10 P:2E SP:29 PPU:345,174 CYC:16728
C08E  09 1E     ORA #$1E                        A:0F X:00 Y:10 P:2C SP:29 PPU:  9,175 CYC:16731
C090  8D 01 20  STA $2001 = 0F                  A:1F X:00 Y:10 P:2C SP:29 PPU:  9,175 CYC:16733
C093  85 11     STA $11 = 0F                    A:1F X:00 Y:10 P:2C SP:29 PPU: 25,175 CYC:16737
C095  A9 00     LDA #$00                        A:1F X:00 Y:10 P:2C SP:29 PPU: 33,175 CYC:16740
C097  8D 03 20  STA $2003 = 00                  A:00 X:00 Y:10 P:2E SP:29 PPU: 41,175 CYC:16742
C09A  A9 02     LDA #$02                        A:00 X:00 Y:10 P:2E SP:29 PPU: 49,175 CYC:16746
C09C  8D 14 40  STA $4014 = 00                  A:02 X:00 Y:10 P:2C SP:29 PPU: 57,175 CYC:16748
C09F  A6 52     LDX $52 = 00                    A:02 X:00 Y:10 P:2C SP:29 PPU:225,179 CYC:17265
C0A1  20 50 C1  JSR $C150                       A:02 X:00 Y:10 P:2E SP:29 PPU:233,179 CYC:17268
C150  BD 00 C0  LDA $C000,X @ C000 = 01         A:02 X:00 Y:10 P:2E SP:27 PPU:257,179 CYC:17274
C153  85 00     STA $00 = 00                    A:01 X:00 Y:10 P:2C SP:27 PPU:265,179 CYC:17278
C155  BD 0A C0  LDA $C00A,X @ C00A = 03         A:01 X:00 Y:10 P:2C SP:27 PPU:273,179 CYC:17281
C158  85 01     STA $01 = 7F                    A:03 X:00 Y:10 P:2C SP:27 PPU:289,179 CYC:17285
C15A  20 78 CB  JSR $CB78                       A:03 X:00 Y:10 P:2C SP:27 PPU:297,179 CYC:17288
CB78  AE 02 20  LDX $2002 = 00                  A:03 X:00 Y:10 P:2C SP:25 PPU:313,179 CYC:17294
CB7B  A0 00     LDY #$00                        A:03 X:00 Y:10 P:2E SP:25 PPU:323,179 CYC:17298
CB7D  B1 00     LDA ($00),Y = 0301 @ 0301 = 00  A:03 X:00 Y:00 P:2E SP:25 PPU:329,179 CYC:17300
CB7F  D0 BD     BNE $CB3E                       A:00 X:00 Y:00 P:2E SP:25 PPU:345,179 CYC:17305
CB81  A5 12     LDA $12 = 01                    A:00 X:00 Y:00 P:2E SP:25 PPU:  9,180 CYC:17307
CB83  8D 05 20  STA $2005 = 9F                  A:01 X:00 Y:00 P:2C SP:25 PPU: 17,180 CYC:17310
CB86  A5 13     LDA $13 = 9F                    A:01 X:00 Y:00 P:2C SP:25 PPU: 33,180 CYC:17314
CB88  8D 05 20  STA $2005 = 01                  A:9F X:00 Y:00 P:AC SP:25 PPU: 41,180 CYC:17317
CB8B  60        RTS                             A:9F X:00 Y:00 P:AC SP:25 PPU: 49,180 CYC:17321
C15D  A9 00     LDA #$00                        A:9F X:00 Y:00 P:AC SP:27 PPU: 65,180 CYC:17327
C15F  8D 00 03  STA $0300 = 00                  A:00 X:00 Y:00 P:2E SP:27 PPU: 73,180 CYC:17329
C162  8D 01 03  STA $0301 = 00                  A:00 X:00 Y:00 P:2E SP:27 PPU: 89,180 CYC:17333
C165  60        RTS                             A:00 X:00 Y:00 P:2E SP:27 PPU: 97,180 CYC:17337
C0A4  85 52     STA $52 = 00                    A:00 X:00 Y:00 P:2E SP:29 PPU:113,180 CYC:17343
C0A6  85 DE     STA $DE = 00                    A:00 X:00 Y:00 P:2E SP:29 PPU:129,180 CYC:17346
C0A8  A9 3F     LDA #$3F                        A:00 X:00 Y:00 P:2E SP:29 PPU:137,180 CYC:17349
C0AA  8D 06 20  STA $2006 = 00                  A:3F X:00 Y:00 P:2C SP:29 PPU:137,180 CYC:17351
C0AD  A9 00     LDA #$00                        A:3F X:00 Y:00 P:2C SP:29 PPU:153,180 CYC:17355
C0AF  8D 06 20  STA $2006 = 3F                  A:00 X:00 Y:00 P:2E SP:29 PPU:161,180 CYC:17357
C0B2  8D 06 20  STA $2006 = 00                  A:00 X:00 Y:00 P:2E SP:29 PPU:169,180 CYC:17361
C0B5  8D 06 20  STA $2006 = 00                  A:00 X:00 Y:00 P:2E SP:29 PPU:185,180 CYC:17365
C0B8  AD 02 20  LDA $2002 = 00                  A:00 X:00 Y:00 P:2E SP:29 PPU:193,180 CYC:17369
C0BB  20 81 CB  JSR $CB81                       A:00 X:00 Y:00 P:2E SP:29 PPU:209,180 CYC:17373
CB81  A5 12     LDA $12 = 01                    A:00 X:00 Y:00 P:2E SP:27 PPU:225,180 CYC:17379
CB83  8D 05 20  STA $2005 = 9F                  A:01 X:00 Y:00 P:2C SP:27 PPU:233,180 CYC:17382
CB86  A5 13     LDA $13 = 9F                    A:01 X:00 Y:00 P:2C SP:27 PPU:249,180 CYC:17386
CB88  8D 05 20  STA $2005 = 01                  A:9F X:00 Y:00 P:AC SP:27 PPU:257,180 CYC:17389
CB8B  60        RTS                             A:9F X:00 Y:00 P:AC SP:27 PPU:265,180 CYC:17393
C0BE  A5 10     LDA $10 = 11                    A:9F X:00 Y:00 P:AC SP:29 PPU:281,180 CYC:17399
C0C0  8D 00 20  STA $2000 = 11                  A:11 X:00 Y:00 P:2C SP:29 PPU:297,180 CYC:17402
C0C3  20 ED CA  JSR $CAED                       A:11 X:00 Y:00 P:2C SP:29 PPU:305,180 CYC:17406
CAED  20 35 CB  JSR $CB35                       A:11 X:00 Y:00 P:2C SP:27 PPU:321,180 CYC:17412
CB35  A9 7F     LDA #$7F                        A:11 X:00 Y:00 P:2C SP:25 PPU:345,180 CYC:17418
CB37  85 01     STA $01 = 03                    A:7F X:00 Y:00 P:2C SP:25 PPU:345,180 CYC:17420
CB39  A9 80     LDA #$80                        A:7F X:00 Y:00 P:2C SP:25 PPU:  9,181 CYC:17423
CB3B  85 02     STA $02 = 80                    A:80 X:00 Y:00 P:AC SP:25 PPU: 17,181 CYC:17425
CB3D  60        RTS                             A:80 X:00 Y:00 P:AC SP:25 PPU: 25,181 CYC:17428
CAF0  A9 01     LDA #$01                        A:80 X:00 Y:00 P:AC SP:27 PPU: 41,181 CYC:17434
CAF2  8D 16 40  STA $4016 = 00                  A:01 X:00 Y:00 P:2C SP:27 PPU: 49,181 CYC:17436
CAF5  A2 00     LDX #$00                        A:01 X:00 Y:00 P:2C SP:27 PPU: 65,181 CYC:17440
CAF7  A9 00     LDA #$00                        A:01 X:00 Y:00 P:2E SP:27 PPU: 65,181 CYC:17442
CAF9  8D 16 40  STA $4016 = 00                  A:00 X:00 Y:00 P:2E SP:27 PPU: 73,181 CYC:17444
CAFC  20 00 CB  JSR $CB00                       A:00 X:00 Y:00 P:2E SP:27 PPU: 89,181 CYC:17448
CB00  A0 08     LDY #$08                        A:00 X:00 Y:00 P:2E SP:25 PPU:105,181 CYC:17454
CB02  48        PHA                             A:00 X:00 Y:08 P:2C SP:25 PPU:113,181 CYC:17456
CB03  BD 16 40  LDA $4016,X @ 4016 = 00         A:00 X:00 Y:08 P:2C SP:24 PPU:121,181 CYC:17459
CB06  85 00     STA $00 = 01                    A:00 X:00 Y:08 P:2E SP:24 PPU:129,181 CYC:17463
CB08  4A        LSR A                           A:00 X:00 Y:08 P:2E SP:24 PPU:137,181 CYC:17466
CB09  05 00     ORA $00 = 00                    A:00 X:00 Y:08 P:2E SP:24 PPU:145,181 CYC:17468
CB0B  4A        LSR A                           A:00 X:00 Y:08 P:2E SP:24 PPU:153,181 CYC:17471
CB0C  68        PLA                             A:00 X:00 Y:08 P:2E SP:24 PPU:161,181 CYC:17473
CB0D  2A        ROL A                           A:00 X:00 Y:08 P:2E SP:25 PPU:177,181 CYC:17477
CB0E  88        DEY                             A:00 X:00 Y:08 P:2E SP:25 PPU:177,181 CYC:17479
CB0F  D0 F1     BNE $CB02                       A:00 X:00 Y:07 P:2C SP:25 PPU:185,181 CYC:17481
CB02  48        PHA                             A:00 X:00 Y:07 P:2C SP:25 PPU:193,181 CYC:17484
CB03  BD 16 40  LDA $4016,X @ 4016 = 00         A:00 X:00 Y:07 P:2C SP:24 PPU:201,181 CYC:17487
CB06  85 00     STA $00 = 00                    A:00 X:00 Y:07 P:2E SP:24 PPU:217,181 CYC:17491
CB08  4A        LSR A                           A:00 X:00 Y:07 P:2E SP:24 PPU:225,181 CYC:17494
CB09  05 00     ORA $00 = 00                    A:00 X:00 Y:07 P:2E SP:24 PPU:233,181 CYC:17496
CB0B  4A        LSR A                           A:00 X:00 Y:07 P:2E SP:24 PPU:241,181 CYC:17499
CB0C  68        PLA                             A:00 X:00 Y:07 P:2E SP:24 PPU:249,181 CYC:17501
CB0D  2A        ROL A                           A:00 X:00 Y:07 P:2E SP:25 PPU:257,181 CYC:17505
CB0E  88        DEY                             A:00 X:00 Y:07 P:2E SP:25 PPU:265,181 CYC:17507
CB0F  D0 F1     BNE $CB02                       A:00 X:00 Y:06 P:2C SP:25 PPU:273,181 CYC:17509
CB02  48        PHA                             A:00 X:00 Y:06 P:2C SP:25 PPU:281,181 CYC:17512
CB03  BD 16 40  LDA $4016,X @ 4016 = 00         A:00 X:00 Y:06 P:2C SP:24 PPU:289,181 CYC:17515
CB06  85 00     STA $00 = 00                    A:00 X:00 Y:06 P:2E SP:24 PPU:297,181 CYC:17519
CB08  4A        LSR A                           A:00 X:00 Y:06 P:2E SP:24 PPU:305,181 CYC:17522
CB09  05 00     ORA $00 = 00                    A:00 X:00 Y:06 P:2E SP:24 PPU:313,181 CYC:17524
CB0B  4A        LSR A                           A:00 X:00 Y:06 P:2E SP:24 PPU:321,181 CYC:17527
CB0C  68        PLA                             A:00 X:00 Y:06 P:2E SP:24 PPU:326,181 CYC:17529
CB0D  2A        ROL A                           A:00 X:00 Y:06 P:2E SP:25 PPU:345,181 CYC:17533
CB0E  88        DEY                             A:00 X:00 Y:06 P:2E SP:25 PPU:345,181 CYC:17535
CB0F  D0 F1     BNE $CB02                       A:00 X:00 Y:05 P:2C SP:25 PPU:  9,182 CYC:17537
CB02  48        PHA                             A:00 X:00 Y:05 P:2C SP:25 PPU: 17,182 CYC:17540
CB03  BD 16 40  LDA $4016,X @ 4016 = 00         A:00 X:00 Y:05 P:2C SP:24 PPU: 25,182 CYC:17543
CB06  85 00     STA $00 = 00                    A:00 X:00 Y:05 P:2E SP:24 PPU: 41,182 CYC:17547
CB08  4A        LSR A                           A:00 X:00 Y:05 P:2E SP:24 PPU: 49,182 CYC:17550
CB09  05 00     ORA $00 = 00                    A:00 X:00 Y:05 P:2E SP:24 PPU: 57,182 CYC:17552
CB0B  4A        LSR A                           A:00 X:00 Y:05 P:2E SP:24 PPU: 65,182 CYC:17555
CB0C  68        PLA                             A:00 X:00 Y:05 P:2E SP:24 PPU: 65,182 CYC:17557
CB0D  2A        ROL A                           A:00 X:00 Y:05 P:2E SP:25 PPU: 81,182 CYC:17561
CB0E  88        DEY                             A:00 X:00 Y:05 P:2E SP:25 PPU: 89,182 CYC:17563
CB0F  D0 F1     BNE $CB02                       A:00 X:00 Y:04 P:2C SP:25 PPU: 89,182 CYC:17565
CB02  48        PHA                             A:00 X:00 Y:04 P:2C SP:25 PPU:105,182 CYC:17568
CB03  BD 16 40  LDA $4016,X @ 4016 = 00         A:00 X:00 Y:04 P:2C SP:24 PPU:113,182 CYC:17571
CB06  85 00     STA $00 = 00                    A:00 X:00 Y:04 P:2E SP:24 PPU:121,182 CYC:17575
CB08  4A        LSR A                           A:00 X:00 Y:04 P:2E SP:24 PPU:129,182 CYC:17578
CB09  05 00     ORA $00 = 00                    A:00 X:00 Y:04 P:2E SP:24 PPU:137,182 CYC:17580
CB0B  4A        LSR A                           A:00 X:00 Y:04 P:2E SP:24 PPU:145,182 CYC:17583
CB0C  68        PLA                             A:00 X:00 Y:04 P:2E SP:24 PPU:153,182 CYC:17585
CB0D  2A        ROL A                           A:00 X:00 Y:04 P:2E SP:25 PPU:161,182 CYC:17589
CB0E  88        DEY                             A:00 X:00 Y:04 P:2E SP:25 PPU:169,182 CYC:17591
CB0F  D0 F1     BNE $CB02                       A:00 X:00 Y:03 P:2C SP:25 PPU:177,182 CYC:17593
CB02  48        PHA                             A:00 X:00 Y:03 P:2C SP:25 PPU:185,182 CYC:17596
CB03  BD 16 40  LDA $4016,X @ 4016 = 00         A:00 X:00 Y:03 P:2C SP:24 PPU:193,182 CYC:17599
CB06  85 00     STA $00 = 00                    A:00 X:00 Y:03 P:2E SP:24 PPU:209,182 CYC:17603
CB08  4A        LSR A                           A:00 X:00 Y:03 P:2E SP:24 PPU:217,182 CYC:17606
CB09  05 00     ORA $00 = 00                    A:00 X:00 Y:03 P:2E SP:24 PPU:225,182 CYC:17608
CB0B  4A        LSR A                           A:00 X:00 Y:03 P:2E SP:24 PPU:233,182 CYC:17611
CB0C  68        PLA                             A:00 X:00 Y:03 P:2E SP:24 PPU:233,182 CYC:17613
CB0D  2A        ROL A                           A:00 X:00 Y:03 P:2E SP:25 PPU:249,182 CYC:17617
CB0E  88        DEY                             A:00 X:00 Y:03 P:2E SP:25 PPU:257,182 CYC:17619
CB0F  D0 F1     BNE $CB02                       A:00 X:00 Y:02 P:2C SP:25 PPU:257,182 CYC:17621
CB02  48        PHA                             A:00 X:00 Y:02 P:2C SP:25 PPU:273,182 CYC:17624
CB03  BD 16 40  LDA $4016,X @ 4016 = 00         A:00 X:00 Y:02 P:2C SP:24 PPU:281,182 CYC:17627
CB06  85 00     STA $00 = 00                    A:00 X:00 Y:02 P:2E SP:24 PPU:289,182 CYC:17631
CB08  4A        LSR A                           A:00 X:00 Y:02 P:2E SP:24 PPU:297,182 CYC:17634
CB09  05 00     ORA $00 = 00                    A:00 X:00 Y:02 P:2E SP:24 PPU:305,182 CYC:17636
CB0B  4A        LSR A                           A:00 X:00 Y:02 P:2E SP:24 PPU:313,182 CYC:17639
CB0C  68        PLA                             A:00 X:00 Y:02 P:2E SP:24 PPU:321,182 CYC:17641
CB0D  2A        ROL A                           A:00 X:00 Y:02 P:2E SP:25 PPU:329,182 CYC:17645
CB0E  88        DEY                             A:00 X:00 Y:02 P:2E SP:25 PPU:335,182 CYC:17647
CB0F  D0 F1     BNE $CB02                       A:00 X:00 Y:01 P:2C SP:25 PPU:345,182 CYC:17649
CB02  48        PHA                             A:00 X:00 Y:01 P:2C SP:25 PPU:  9,183 CYC:17652
CB03  BD 16 40  LDA $4016,X @ 4016 = 00         A:00 X:00 Y:01 P:2C SP:24 PPU: 17,183 CYC:17655
CB06  85 00     STA $00 = 00                    A:00 X:00 Y:01 P:2E SP:24 PPU: 33,183 CYC:17659
CB08  4A        LSR A                           A:00 X:00 Y:01 P:2E SP:24 PPU: 41,183 CYC:17662
CB09  05 00     ORA $00 = 00                    A:00 X:00 Y:01 P:2E SP:24 PPU: 41,183 CYC:17664
CB0B  4A        LSR A                           A:00 X:00 Y:01 P:2E SP:24 PPU: 57,183 CYC:17667
CB0C  68        PLA                             A:00 X:00 Y:01 P:2E SP:24 PPU: 57,183 CYC:17669
CB0D  2A        ROL A                           A:00 X:00 Y:01 P:2E SP:25 PPU: 73,183 CYC:17673
CB0E  88        DEY                             A:00 X:00 Y:01 P:2E SP:25 PPU: 81,183 CYC:17675
CB0F  D0 F1     BNE $CB02                       A:00 X:00 Y:00 P:2E SP:25 PPU: 81,183 CYC:17677
CB11  86 00     STX $00 = 00                    A:00 X:00 Y:00 P:2E SP:25 PPU: 89,183 CYC:17679
CB13  06 00     ASL $00 = 00                    A:00 X:00 Y:00 P:2E SP:25 PPU: 97,183 CYC:17682
CB15  A6 00     LDX $00 = 00                    A:00 X:00 Y:00 P:2E SP:25 PPU:113,183 CYC:17687
CB17  B4 14     LDY $14,X @ 14 = 00             A:00 X:00 Y:00 P:2E SP:25 PPU:121,183 CYC:17690
CB19  84 00     STY $00 = 00                    A:00 X:00 Y:00 P:2E SP:25 PPU:137,183 CYC:17694
CB1B  95 14     STA $14,X @ 14 = 00             A:00 X:00 Y:00 P:2E SP:25 PPU:145,183 CYC:17697
CB1D  95 15     STA $15,X @ 15 = 00             A:00 X:00 Y:00 P:2E SP:25 PPU:153,183 CYC:17701
CB1F  A0 04     LDY #$04                        A:00 X:00 Y:00 P:2E SP:25 PPU:169,183 CYC:17705
CB21  A5 02     LDA $02 = 80                    A:00 X:00 Y:04 P:2C SP:25 PPU:177,183 CYC:17707
CB23  24 00     BIT $00 = 00                    A:80 X:00 Y:04 P:AC SP:25 PPU:185,183 CYC:17710
CB25  F0 06     BEQ $CB2D                       A:80 X:00 Y:04 P:2E SP:25 PPU:193,183 CYC:17713
CB2D  38        SEC                             A:80 X:00 Y:04 P:2E SP:25 PPU:201,183 CYC:17716
CB2E  66 01     ROR $01 = 7F                    A:80 X:00 Y:04 P:2F SP:25 PPU:209,183 CYC:17718
CB30  46 02     LSR $02 = 80                    A:80 X:00 Y:04 P:AD SP:25 PPU:225,183 CYC:17723
CB32  88        DEY                             A:80 X:00 Y:04 P:2C SP:25 PPU:233,183 CYC:17728
CB33  D0 EC     BNE $CB21                       A:80 X:00 Y:03 P:2C SP:25 PPU:241,183 CYC:17730
CB21  A5 02     LDA $02 = 40                    A:80 X:00 Y:03 P:2C SP:25 PPU:249,183 CYC:17733
CB23  24 00     BIT $00 = 00                    A:40 X:00 Y:03 P:2C SP:25 PPU:257,183 CYC:17736
CB25  F0 06     BEQ $CB2D                       A:40 X:00 Y:03 P:2E SP:25 PPU:273,183 CYC:17739
CB2D  38        SEC                             A:40 X:00 Y:03 P:2E SP:25 PPU:281,183 CYC:17742
CB2E  66 01     ROR $01 = BF                    A:40 X:00 Y:03 P:2F SP:25 PPU:281,183 CYC:17744
CB30  46 02     LSR $02 = 40                    A:40 X:00 Y:03 P:AD SP:25 PPU:297,183 CYC:17749
CB32  88        DEY                             A:40 X:00 Y:03 P:2C SP:25 PPU:313,183 CYC:17754
CB33  D0 EC     BNE $CB21                       A:40 X:00 Y:02 P:2C SP:25 PPU:321,183 CYC:17756
CB21  A5 02     LDA $02 = 20                    A:40 X:00 Y:02 P:2C SP:25 PPU:326,183 CYC:17759
CB23  24 00     BIT $00 = 00                    A:20 X:00 Y:02 P:2C SP:25 PPU:335,183 CYC:17762
CB25  F0 06     BEQ $CB2D                       A:20 X:00 Y:02 P:2E SP:25 PPU:345,183 CYC:17765
CB2D  38        SEC                             A:20 X:00 Y:02 P:2E SP:25 PPU:  9,184 CYC:17768
CB2E  66 01     ROR $01 = DF                    A:20 X:00 Y:02 P:2F SP:25 PPU: 17,184 CYC:17770
CB30  46 02     LSR $02 = 20                    A:20 X:00 Y:02 P:AD SP:25 PPU: 33,184 CYC:17775
CB32  88        DEY                             A:20 X:00 Y:02 P:2C SP:25 PPU: 49,184 CYC:17780
CB33  D0 EC     BNE $CB21                       A:20 X:00 Y:01 P:2C SP:25 PPU: 57,184 CYC:17782
CB21  A5 02     LDA $02 = 10                    A:20 X:00 Y:01 P:2C SP:25 PPU: 65,184 CYC:17785
CB23  24 00     BIT $00 = 00                    A:10 X:00 Y:01 P:2C SP:25 PPU: 73,184 CYC:17788
CB25  F0 06     BEQ $CB2D                       A:10 X:00 Y:01 P:2E SP:25 PPU: 81,184 CYC:17791
CB2D  38        SEC                             A:10 X:00 Y:01 P:2E SP:25 PPU: 89,184 CYC:17794
CB2E  66 01     ROR $01 = EF                    A:10 X:00 Y:01 P:2F SP:25 PPU: 97,184 CYC:17796
CB30  46 02     LSR $02 = 10                    A:10 X:00 Y:01 P:AD SP:25 PPU:113,184 CYC:17801
CB32  88        DEY                             A:10 X:00 Y:01 P:2C SP:25 PPU:129,184 CYC:17806
CB33  D0 EC     BNE $CB21                       A:10 X:00 Y:00 P:2E SP:25 PPU:129,184 CYC:17808
CB35  A9 7F     LDA #$7F                        A:10 X:00 Y:00 P:2E SP:25 PPU:137,184 CYC:17810
CB37  85 01     STA $01 = F7                    A:7F X:00 Y:00 P:2C SP:25 PPU:145,184 CYC:17812
CB39  A9 80     LDA #$80                        A:7F X:00 Y:00 P:2C SP:25 PPU:153,184 CYC:17815
CB3B  85 02     STA $02 = 08                    A:80 X:00 Y:00 P:AC SP:25 PPU:161,184 CYC:17817
CB3D  60        RTS                             A:80 X:00 Y:00 P:AC SP:25 PPU:169,184 CYC:17820
CAFF  E8        INX                             A:80 X:00 Y:00 P:AC SP:27 PPU:185,184 CYC:17826
CB00  A0 08     LDY #$08                        A:80 X:01 Y:00 P:2C SP:27 PPU:193,184 CYC:17828
CB02  48        PHA                             A:80 X:01 Y:08 P:2C SP:27 PPU:201,184 CYC:17830
CB03  BD 16 40  LDA $4016,X @ 4017 = 00         A:80 X:01 Y:08 P:2C SP:26 PPU:209,184 CYC:17833
CB06  85 00     STA $00 = 00                    A:00 X:01 Y:08 P:2E SP:26 PPU:217,184 CYC:17837
CB08  4A        LSR A                           A:00 X:01 Y:08 P:2E SP:26 PPU:225,184 CYC:17840
CB09  05 00     ORA $00 = 00                    A:00 X:01 Y:08 P:2E SP:26 PPU:233,184 CYC:17842
CB0B  4A        LSR A                           A:00 X:01 Y:08 P:2E SP:26 PPU:241,184 CYC:17845
CB0C  68        PLA                             A:00 X:01 Y:08 P:2E SP:26 PPU:249,184 CYC:17847
CB0D  2A        ROL A                           A:80 X:01 Y:08 P:AC SP:27 PPU:257,184 CYC:17851
CB0E  88        DEY                             A:00 X:01 Y:08 P:2F SP:27 PPU:265,184 CYC:17853
CB0F  D0 F1     BNE $CB02                       A:00 X:01 Y:07 P:2D SP:27 PPU:273,184 CYC:17855
CB02  48        PHA                             A:00 X:01 Y:07 P:2D SP:27 PPU:281,184 CYC:17858
CB03  BD 16 40  LDA $4016,X @ 4017 = 00         A:00 X:01 Y:07 P:2D SP:26 PPU:289,184 CYC:17861
CB06  85 00     STA $00 = 00                    A:00 X:01 Y:07 P:2F SP:26 PPU:305,184 CYC:17865
CB08  4A        LSR A                           A:00 X:01 Y:07 P:2F SP:26 PPU:313,184 CYC:17868
CB09  05 00     ORA $00 = 00                    A:00 X:01 Y:07 P:2E SP:26 PPU:321,184 CYC:17870
CB0B  4A        LSR A                           A:00 X:01 Y:07 P:2E SP:26 PPU:323,184 CYC:17873
CB0C  68        PLA                             A:00 X:01 Y:07 P:2E SP:26 PPU:329,184 CYC:17875
CB0D  2A        ROL A                           A:00 X:01 Y:07 P:2E SP:27 PPU:345,184 CYC:17879
CB0E  88        DEY                             A:00 X:01 Y:07 P:2E SP:27 PPU:  9,185 CYC:17881
CB0F  D0 F1     BNE $CB02                       A:00 X:01 Y:06 P:2C SP:27 PPU:  9,185 CYC:17883
CB02  48        PHA                             A:00 X:01 Y:06 P:2C SP:27 PPU: 17,185 CYC:17886
CB03  BD 16 40  LDA $4016,X @ 4017 = 00         A:00 X:01 Y:06 P:2C SP:26 PPU: 33,185 CYC:17889
CB06  85 00     STA $00 = 00                    A:00 X:01 Y:06 P:2E SP:26 PPU: 41,185 CYC:17893
CB08  4A        LSR A                           A:00 X:01 Y:06 P:2E SP:26 PPU: 49,185 CYC:17896
CB09  05 00     ORA $00 = 00                    A:00 X:01 Y:06 P:2E SP:26 PPU: 57,185 CYC:17898
CB0B  4A        LSR A                           A:00 X:01 Y:06 P:2E SP:26 PPU: 65,185 CYC:17901
CB0C  68        PLA                             A:00 X:01 Y:06 P:2E SP:26 PPU: 73,185 CYC:17903
CB0D  2A        ROL A                           A:00 X:01 Y:06 P:2E SP:27 PPU: 81,185 CYC:17907
CB0E  88        DEY                             A:00 X:01 Y:06 P:2E SP:27 PPU: 89,185 CYC:17909
CB0F  D0 F1     BNE $CB02                       A:00 X:01 Y:05 P:2C SP:27 PPU: 97,185 CYC:17911
CB02  48        PHA                             A:00 X:01 Y:05 P:2C SP:27 PPU:105,185 CYC:17914
CB03  BD 16 40  LDA $4016,X @ 4017 = 00         A:00 X:01 Y:05 P:2C SP:26 PPU:113,185 CYC:17917
CB06  85 00     STA $00 = 00                    A:00 X:01 Y:05 P:2E SP:26 PPU:129,185 CYC:17921
CB08  4A        LSR A                           A:00 X:01 Y:05 P:2E SP:26 PPU:137,185 CYC:17924
CB09  05 00     ORA $00 = 00                    A:00 X:01 Y:05 P:2E SP:26 PPU:137,185 CYC:17926
CB0B  4A        LSR A                           A:00 X:01 Y:05 P:2E SP:26 PPU:153,185 CYC:17929
CB0C  68        PLA                             A:00 X:01 Y:05 P:2E SP:26 PPU:153,185 CYC:17931
CB0D  2A        ROL A                           A:00 X:01 Y:05 P:2E SP:27 PPU:169,185 CYC:17935
CB0E  88        DEY                             A:00 X:01 Y:05 P:2E SP:27 PPU:177,185 CYC:17937
CB0F  D0 F1     BNE $CB02                       A:00 X:01 Y:04 P:2C SP:27 PPU:177,185 CYC:17939
CB02  48        PHA                             A:00 X:01 Y:04 P:2C SP:27 PPU:185,185 CYC:17942
CB03  BD 16 40  LDA $4016,X @ 4017 = 00         A:00 X:01 Y:04 P:2C SP:26 PPU:201,185 CYC:17945
CB06  85 00     STA $00 = 00                    A:00 X:01 Y:04 P:2E SP:26 PPU:209,185 CYC:17949
CB08  4A        LSR A                           A:00 X:01 Y:04 P:2E SP:26 PPU:217,185 CYC:17952
CB09  05 00     ORA $00 = 00                    A:00 X:01 Y:04 P:2E SP:26 PPU:225,185 CYC:17954
CB0B  4A        LSR A                           A:00 X:01 Y:04 P:2E SP:26 PPU:233,185 CYC:17957
CB0C  68        PLA                             A:00 X:01 Y:04 P:2E SP:26 PPU:241,185 CYC:17959
CB0D  2A        ROL A                           A:00 X:01 Y:04 P:2E SP:27 PPU:249,185 CYC:17963
CB0E  88        DEY                             A:00 X:01 Y:04 P:2E SP:27 PPU:257,185 CYC:17965
CB0F  D0 F1     BNE $CB02                       A:00 X:01 Y:03 P:2C SP:27 PPU:265,185 CYC:17967
CB02  48        PHA                             A:00 X:01 Y:03 P:2C SP:27 PPU:273,185 CYC:17970
CB03  BD 16 40  LDA $4016,X @ 4017 = 00         A:00 X:01 Y:03 P:2C SP:26 PPU:281,185 CYC:17973
CB06  85 00     STA $00 = 00                    A:00 X:01 Y:03 P:2E SP:26 PPU:297,185 CYC:17977
CB08  4A        LSR A                           A:00 X:01 Y:03 P:2E SP:26 PPU:305,185 CYC:17980
CB09  05 00     ORA $00 = 00                    A:00 X:01 Y:03 P:2E SP:26 PPU:305,185 CYC:17982
CB0B  4A        LSR A                           A:00 X:01 Y:03 P:2E SP:26 PPU:321,185 CYC:17985
CB0C  68        PLA                             A:00 X:01 Y:03 P:2E SP:26 PPU:321,185 CYC:17987
CB0D  2A        ROL A                           A:00 X:01 Y:03 P:2E SP:27 PPU:332,185 CYC:17991
CB0E  88        DEY                             A:00 X:01 Y:03 P:2E SP:27 PPU:345,185 CYC:17993
CB0F  D0 F1     BNE $CB02                       A:00 X:01 Y:02 P:2C SP:27 PPU:345,185 CYC:17995
CB02  48        PHA                             A:00 X:01 Y:02 P:2C SP:27 PPU:  9,186 CYC:17998
CB03  BD 16 40  LDA $4016,X @ 4017 = 00         A:00 X:01 Y:02 P:2C SP:26 PPU: 17,186 CYC:18001
CB06  85 00     STA $00 = 00                    A:00 X:01 Y:02 P:2E SP:26 PPU: 33,186 CYC:18005
CB08  4A        LSR A                           A:00 X:01 Y:02 P:2E SP:26 PPU: 41,186 CYC:18008
CB09  05 00     ORA $00 = 00                    A:00 X:01 Y:02 P:2E SP:26 PPU: 49,186 CYC:18010
CB0B  4A        LSR A                           A:00 X:01 Y:02 P:2E SP:26 PPU: 57,186 CYC:18013
CB0C  68        PLA                             A:00 X:01 Y:02 P:2E SP:26 PPU: 65,186 CYC:18015
CB0D  2A        ROL A                           A:00 X:01 Y:02 P:2E SP:27 PPU: 73,186 CYC:18019
CB0E  88        DEY                             A:00 X:01 Y:02 P:2E SP:27 PPU: 81,186 CYC:18021
CB0F  D0 F1     BNE $CB02                       A:00 X:01 Y:01 P:2C SP:27 PPU: 89,186 CYC:18023
CB02  48        PHA                             A:00 X:01 Y:01 P:2C SP:27 PPU: 97,186 CYC:18026
CB03  BD 16 40  LDA $4016,X @ 4017 = 00         A:00 X:01 Y:01 P:2C SP:26 PPU:105,186 CYC:18029
CB06  85 00     STA $00 = 00                    A:00 X:01 Y:01 P:2E SP:26 PPU:113,186 CYC:18033
CB08  4A        LSR A                           A:00 X:01 Y:01 P:2E SP:26 PPU:129,186 CYC:18036
CB09  05 00     ORA $00 = 00                    A:00 X:01 Y:01 P:2E SP:26 PPU:129,186 CYC:18038
CB0B  4A        LSR A                           A:00 X:01 Y:01 P:2E SP:26 PPU:137,186 CYC:18041
CB0C  68        PLA                             A:00 X:01 Y:01 P:2E SP:26 PPU:145,186 CYC:18043
CB0D  2A        ROL A                           A:00 X:01 Y:01 P:2E SP:27 PPU:161,186 CYC:18047
CB0E  88        DEY                             A:00 X:01 Y:01 P:2E SP:27 PPU:161,186 CYC:18049
CB0F  D0 F1     BNE $CB02                       A:00 X:01 Y:00 P:2E SP:27 PPU:169,186 CYC:18051
CB11  86 00     STX $00 = 00                    A:00 X:01 Y:00 P:2E SP:27 PPU:177,186 CYC:18053
CB13  06 00     ASL $00 = 01                    A:00 X:01 Y:00 P:2E SP:27 PPU:185,186 CYC:18056
CB15  A6 00     LDX $00 = 02                    A:00 X:01 Y:00 P:2C SP:27 PPU:201,186 CYC:18061
CB17  B4 14     LDY $14,X @ 16 = 00             A:00 X:02 Y:00 P:2C SP:27 PPU:209,186 CYC:18064
CB19  84 00     STY $00 = 02                    A:00 X:02 Y:00 P:2E SP:27 PPU:225,186 CYC:18068
CB1B  95 14     STA $14,X @ 16 = 00             A:00 X:02 Y:00 P:2E SP:27 PPU:233,186 CYC:18071
CB1D  95 15     STA $15,X @ 17 = 00             A:00 X:02 Y:00 P:2E SP:27 PPU:241,186 CYC:18075
CB1F  A0 04     LDY #$04                        A:00 X:02 Y:00 P:2E SP:27 PPU:257,186 CYC:18079
CB21  A5 02     LDA $02 = 80                    A:00 X:02 Y:04 P:2C SP:27 PPU:257,186 CYC:18081
CB23  24 00     BIT $00 = 00                    A:80 X:02 Y:04 P:AC SP:27 PPU:273,186 CYC:18084
CB25  F0 06     BEQ $CB2D                       A:80 X:02 Y:04 P:2E SP:27 PPU:281,186 CYC:18087
CB2D  38        SEC                             A:80 X:02 Y:04 P:2E SP:27 PPU:289,186 CYC:18090
CB2E  66 01     ROR $01 = 7F                    A:80 X:02 Y:04 P:2F SP:27 PPU:297,186 CYC:18092
CB30  46 02     LSR $02 = 80                    A:80 X:02 Y:04 P:AD SP:27 PPU:305,186 CYC:18097
CB32  88        DEY                             A:80 X:02 Y:04 P:2C SP:27 PPU:321,186 CYC:18102
CB33  D0 EC     BNE $CB21                       A:80 X:02 Y:03 P:2C SP:27 PPU:326,186 CYC:18104
CB21  A5 02     LDA $02 = 40                    A:80 X:02 Y:03 P:2C SP:27 PPU:335,186 CYC:18107
CB23  24 00     BIT $00 = 00                    A:40 X:02 Y:03 P:2C SP:27 PPU:345,186 CYC:18110
CB25  F0 06     BEQ $CB2D                       A:40 X:02 Y:03 P:2E SP:27 PPU:  9,187 CYC:18113
CB2D  38        SEC                             A:40 X:02 Y:03 P:2E SP:27 PPU: 17,187 CYC:18116
CB2E  66 01     ROR $01 = BF                    A:40 X:02 Y:03 P:2F SP:27 PPU: 25,187 CYC:18118
CB30  46 02     LSR $02 = 40                    A:40 X:02 Y:03 P:AD SP:27 PPU: 41,187 CYC:18123
CB32  88        DEY                             A:40 X:02 Y:03 P:2C SP:27 PPU: 57,187 CYC:18128
CB33  D0 EC     BNE $CB21                       A:40 X:02 Y:02 P:2C SP:27 PPU: 65,187 CYC:18130
CB21  A5 02     LDA $02 = 20                    A:40 X:02 Y:02 P:2C SP:27 PPU: 73,187 CYC:18133
CB23  24 00     BIT $00 = 00                    A:20 X:02 Y:02 P:2C SP:27 PPU: 81,187 CYC:18136
CB25  F0 06     BEQ $CB2D                       A:20 X:02 Y:02 P:2E SP:27 PPU: 89,187 CYC:18139
CB2D  38        SEC                             A:20 X:02 Y:02 P:2E SP:27 PPU: 97,187 CYC:18142
CB2E  66 01     ROR $01 = DF                    A:20 X:02 Y:02 P:2F SP:27 PPU:105,187 CYC:18144
CB30  46 02     LSR $02 = 20                    A:20 X:02 Y:02 P:AD SP:27 PPU:121,187 CYC:18149
CB32  88        DEY                             A:20 X:02 Y:02 P:2C SP:27 PPU:137,187 CYC:18154
CB33  D0 EC     BNE $CB21                       A:20 X:02 Y:01 P:2C SP:27 PPU:137,187 CYC:18156
CB21  A5 02     LDA $02 = 10                    A:20 X:02 Y:01 P:2C SP:27 PPU:153,187 CYC:18159
CB23  24 00     BIT $00 = 00                    A:10 X:02 Y:01 P:2C SP:27 PPU:161,187 CYC:18162
CB25  F0 06     BEQ $CB2D                       A:10 X:02 Y:01 P:2E SP:27 PPU:169,187 CYC:18165
CB2D  38        SEC                             A:10 X:02 Y:01 P:2E SP:27 PPU:177,187 CYC:18168
CB2E  66 01     ROR $01 = EF                    A:10 X:02 Y:01 P:2F SP:27 PPU:185,187 CYC:18170
CB30  46 02     LSR $02 = 10                    A:10 X:02 Y:01 P:AD SP:27 PPU:201,187 CYC:18175
CB32  88        DEY                             A:10 X:02 Y:01 P:2C SP:27 PPU:209,187 CYC:18180
CB33  D0 EC     BNE $CB21                       A:10 X:02 Y:00 P:2E SP:27 PPU:217,187 CYC:18182
CB35  A9 7F     LDA #$7F                        A:10 X:02 Y:00 P:2E SP:27 PPU:225,187 CYC:18184
CB37  85 01     STA $01 = F7                    A:7F X:02 Y:00 P:2C SP:27 PPU:233,187 CYC:18186
CB39  A9 80     LDA #$80                        A:7F X:02 Y:00 P:2C SP:27 PPU:241,187 CYC:18189
CB3B  85 02     STA $02 = 08                    A:80 X:02 Y:00 P:AC SP:27 PPU:249,187 CYC:18191
CB3D  60        RTS                             A:80 X:02 Y:00 P:AC SP:27 PPU:257,187 CYC:18194
C0C6  20 1E F9  JSR $F91E                       A:80 X:02 Y:00 P:AC SP:29 PPU:273,187 CYC:18200
F91E  A9 FF     LDA #$FF                        A:80 X:02 Y:00 P:AC SP:27 PPU:289,187 CYC:18206
F920  8D 17 40  STA $4017 = 00                  A:FF X:02 Y:00 P:AC SP:27 PPU:297,187 CYC:18208
F923  20 EB F9  JSR $F9EB                       A:FF X:02 Y:00 P:AC SP:27 PPU:305,187 CYC:18212
F9EB  A4 FF     LDY $FF = 00                    A:FF X:02 Y:00 P:AC SP:25 PPU:323,187 CYC:18218
F9ED  A5 F0     LDA $F0 = 00                    A:FF X:02 Y:00 P:2E SP:25 PPU:332,187 CYC:18221
F9EF  46 FF     LSR $FF = 00                    A:00 X:02 Y:00 P:2E SP:25 PPU:345,187 CYC:18224
F9F1  B0 B8     BCS $F9AB                       A:00 X:02 Y:00 P:2E SP:25 PPU: 17,188 CYC:18229
F9F3  4A        LSR A                           A:00 X:02 Y:00 P:2E SP:25 PPU: 17,188 CYC:18231
F9F4  B0 BB     BCS $F9B1                       A:00 X:02 Y:00 P:2E SP:25 PPU: 25,188 CYC:18233
F9F6  46 FF     LSR $FF = 00                    A:00 X:02 Y:00 P:2E SP:25 PPU: 33,188 CYC:18235
F9F8  B0 CE     BCS $F9C8                       A:00 X:02 Y:00 P:2E SP:25 PPU: 49,188 CYC:18240
F9FA  4A        LSR A                           A:00 X:02 Y:00 P:2E SP:25 PPU: 57,188 CYC:18242
F9FB  B0 D3     BCS $F9D0                       A:00 X:02 Y:00 P:2E SP:25 PPU: 57,188 CYC:18244
F9FD  46 FF     LSR $FF = 00                    A:00 X:02 Y:00 P:2E SP:25 PPU: 65,188 CYC:18246
F9FF  B0 0B     BCS $FA0C                       A:00 X:02 Y:00 P:2E SP:25 PPU: 81,188 CYC:18251
FA01  4A        LSR A                           A:00 X:02 Y:00 P:2E SP:25 PPU: 89,188 CYC:18253
FA02  B0 17     BCS $FA1B                       A:00 X:02 Y:00 P:2E SP:25 PPU: 89,188 CYC:18255
FA04  46 FF     LSR $FF = 00                    A:00 X:02 Y:00 P:2E SP:25 PPU: 97,188 CYC:18257
FA06  B0 38     BCS $FA40                       A:00 X:02 Y:00 P:2E SP:25 PPU:113,188 CYC:18262
FA08  4A        LSR A                           A:00 X:02 Y:00 P:2E SP:25 PPU:121,188 CYC:18264
FA09  B0 3F     BCS $FA4A                       A:00 X:02 Y:00 P:2E SP:25 PPU:129,188 CYC:18266
FA0B  60        RTS                             A:00 X:02 Y:00 P:2E SP:25 PPU:129,188 CYC:18268
F926  20 C4 FA  JSR $FAC4                       A:00 X:02 Y:00 P:2E SP:27 PPU:153,188 CYC:18274
FAC4  A4 FE     LDY $FE = 00                    A:00 X:02 Y:00 P:2E SP:25 PPU:169,188 CYC:18280
FAC6  A5 F1     LDA $F1 = 00                    A:00 X:02 Y:00 P:2E SP:25 PPU:177,188 CYC:18283
FAC8  46 FE     LSR $FE = 00                    A:00 X:02 Y:00 P:2E SP:25 PPU:185,188 CYC:18286
FACA  B0 98     BCS $FA64                       A:00 X:02 Y:00 P:2E SP:25 PPU:201,188 CYC:18291
FACC  4A        LSR A                           A:00 X:02 Y:00 P:2E SP:25 PPU:209,188 CYC:18293
FACD  B0 9C     BCS $FA6B                       A:00 X:02 Y:00 P:2E SP:25 PPU:209,188 CYC:18295
FACF  46 FE     LSR $FE = 00                    A:00 X:02 Y:00 P:2E SP:25 PPU:217,188 CYC:18297
FAD1  B0 B0     BCS $FA83                       A:00 X:02 Y:00 P:2E SP:25 PPU:233,188 CYC:18302
FAD3  4A        LSR A                           A:00 X:02 Y:00 P:2E SP:25 PPU:241,188 CYC:18304
FAD4  B0 BE     BCS $FA94                       A:00 X:02 Y:00 P:2E SP:25 PPU:249,188 CYC:18306
FAD6  46 FE     LSR $FE = 00                    A:00 X:02 Y:00 P:2E SP:25 PPU:249,188 CYC:18308
FAD8  B0 12     BCS $FAEC                       A:00 X:02 Y:00 P:2E SP:25 PPU:265,188 CYC:18313
FADA  4A        LSR A                           A:00 X:02 Y:00 P:2E SP:25 PPU:273,188 CYC:18315
FADB  B0 D8     BCS $FAB5                       A:00 X:02 Y:00 P:2E SP:25 PPU:281,188 CYC:18317
FADD  4A        LSR A                           A:00 X:02 Y:00 P:2E SP:25 PPU:281,188 CYC:18319
FADE  B0 29     BCS $FB09                       A:00 X:02 Y:00 P:2E SP:25 PPU:289,188 CYC:18321
FAE0  46 FE     LSR $FE = 00                    A:00 X:02 Y:00 P:2E SP:25 PPU:297,188 CYC:18323
FAE2  B0 15     BCS $FAF9                       A:00 X:02 Y:00 P:2E SP:25 PPU:313,188 CYC:18328
FAE4  46 FE     LSR $FE = 00                    A:00 X:02 Y:00 P:2E SP:25 PPU:321,188 CYC:18330
FAE6  B0 2F     BCS $FB17                       A:00 X:02 Y:00 P:2E SP:25 PPU:329,188 CYC:18335
FAE8  4A        LSR A                           A:00 X:02 Y:00 P:2E SP:25 PPU:335,188 CYC:18337
FAE9  B0 CA     BCS $FAB5                       A:00 X:02 Y:00 P:2E SP:25 PPU:345,188 CYC:18339
FAEB  60        RTS                             A:00 X:02 Y:00 P:2E SP:25 PPU:  9,189 CYC:18341
F929  20 A1 FB  JSR $FBA1                       A:00 X:02 Y:00 P:2E SP:27 PPU: 25,189 CYC:18347
FBA1  A4 FC     LDY $FC = 00                    A:00 X:02 Y:00 P:2E SP:25 PPU: 41,189 CYC:18353
FBA3  A5 F2     LDA $F2 = 00                    A:00 X:02 Y:00 P:2E SP:25 PPU: 49,189 CYC:18356
FBA5  46 FC     LSR $FC = 00                    A:00 X:02 Y:00 P:2E SP:25 PPU: 57,189 CYC:18359
FBA7  B0 C8     BCS $FB71                       A:00 X:02 Y:00 P:2E SP:25 PPU: 73,189 CYC:18364
FBA9  4A        LSR A                           A:00 X:02 Y:00 P:2E SP:25 PPU: 81,189 CYC:18366
FBAA  B0 CC     BCS $FB78                       A:00 X:02 Y:00 P:2E SP:25 PPU: 89,189 CYC:18368
FBAC  46 FC     LSR $FC = 00                    A:00 X:02 Y:00 P:2E SP:25 PPU: 89,189 CYC:18370
FBAE  B0 0B     BCS $FBBB                       A:00 X:02 Y:00 P:2E SP:25 PPU:105,189 CYC:18375
FBB0  4A        LSR A                           A:00 X:02 Y:00 P:2E SP:25 PPU:113,189 CYC:18377
FBB1  B0 18     BCS $FBCB                       A:00 X:02 Y:00 P:2E SP:25 PPU:121,189 CYC:18379
FBB3  46 FC     LSR $FC = 00                    A:00 X:02 Y:00 P:2E SP:25 PPU:129,189 CYC:18381
FBB5  B0 24     BCS $FBDB                       A:00 X:02 Y:00 P:2E SP:25 PPU:137,189 CYC:18386
FBB7  4A        LSR A                           A:00 X:02 Y:00 P:2E SP:25 PPU:145,189 CYC:18388
FBB8  B0 31     BCS $FBEB                       A:00 X:02 Y:00 P:2E SP:25 PPU:153,189 CYC:18390
FBBA  60        RTS                             A:00 X:02 Y:00 P:2E SP:25 PPU:161,189 CYC:18392
F92C  20 FC FB  JSR $FBFC                       A:00 X:02 Y:00 P:2E SP:27 PPU:177,189 CYC:18398
FBFC  A5 FB     LDA $FB = 00                    A:00 X:02 Y:00 P:2E SP:25 PPU:193,189 CYC:18404
FBFE  D0 05     BNE $FC05                       A:00 X:02 Y:00 P:2E SP:25 PPU:201,189 CYC:18407
FC00  A5 F3     LDA $F3 = 00                    A:00 X:02 Y:00 P:2E SP:25 PPU:209,189 CYC:18409
FC02  D0 4D     BNE $FC51                       A:00 X:02 Y:00 P:2E SP:25 PPU:217,189 CYC:18412
FC04  60        RTS                             A:00 X:02 Y:00 P:2E SP:25 PPU:225,189 CYC:18414
F92F  A9 00     LDA #$00                        A:00 X:02 Y:00 P:2E SP:27 PPU:241,189 CYC:18420
F931  85 FF     STA $FF = 00                    A:00 X:02 Y:00 P:2E SP:27 PPU:249,189 CYC:18422
F933  85 FE     STA $FE = 00                    A:00 X:02 Y:00 P:2E SP:27 PPU:257,189 CYC:18425
F935  85 FC     STA $FC = 00                    A:00 X:02 Y:00 P:2E SP:27 PPU:265,189 CYC:18428
F937  85 FB     STA $FB = 00                    A:00 X:02 Y:00 P:2E SP:27 PPU:273,189 CYC:18431
F939  AC 11 07  LDY $0711 = 00                  A:00 X:02 Y:00 P:2E SP:27 PPU:281,189 CYC:18434
F93C  A5 F3     LDA $F3 = 00                    A:00 X:02 Y:00 P:2E SP:27 PPU:297,189 CYC:18438
F93E  29 0C     AND #$0C                        A:00 X:02 Y:00 P:2E SP:27 PPU:305,189 CYC:18441
F940  F0 07     BEQ $F949                       A:00 X:02 Y:00 P:2E SP:27 PPU:313,189 CYC:18443
F949  98        TYA                             A:00 X:02 Y:00 P:2E SP:27 PPU:321,189 CYC:18446
F94A  F0 03     BEQ $F94F                       A:00 X:02 Y:00 P:2E SP:27 PPU:323,189 CYC:18448
F94F  8C 11 40  STY $4011 = 00                  A:00 X:02 Y:00 P:2E SP:27 PPU:332,189 CYC:18451
F952  60        RTS                             A:00 X:02 Y:00 P:2E SP:27 PPU:345,189 CYC:18455
C0C9  A5 53     LDA $53 = 00                    A:00 X:02 Y:00 P:2E SP:29 PPU: 17,190 CYC:18461
C0CB  F0 06     BEQ $C0D3                       A:00 X:02 Y:00 P:2E SP:29 PPU: 33,190 CYC:18464
C0D3  A5 51     LDA $51 = 01                    A:00 X:02 Y:00 P:2E SP:29 PPU: 41,190 CYC:18467
C0D5  F0 4F     BEQ $C126                       A:01 X:02 Y:00 P:2C SP:29 PPU: 49,190 CYC:18470
C0D7  AE 4C 03  LDX $034C = 02                  A:01 X:02 Y:00 P:2C SP:29 PPU: 57,190 CYC:18472
C0DA  F0 3E     BEQ $C11A                       A:01 X:02 Y:00 P:2C SP:29 PPU: 65,190 CYC:18476
C0DC  CA        DEX                             A:01 X:02 Y:00 P:2C SP:29 PPU: 73,190 CYC:18478
C0DD  F0 24     BEQ $C103                       A:01 X:01 Y:00 P:2C SP:29 PPU: 81,190 CYC:18480
C0DF  CA        DEX                             A:01 X:01 Y:00 P:2C SP:29 PPU: 81,190 CYC:18482
C0E0  D0 1E     BNE $C100                       A:01 X:00 Y:00 P:2E SP:29 PPU: 89,190 CYC:18484
C0E2  A5 11     LDA $11 = 1F                    A:01 X:00 Y:00 P:2E SP:29 PPU: 97,190 CYC:18486
C0E4  29 EF     AND #$EF                        A:1F X:00 Y:00 P:2C SP:29 PPU:105,190 CYC:18489
C0E6  8D 01 20  STA $2001 = 1F                  A:0F X:00 Y:00 P:2C SP:29 PPU:113,190 CYC:18491
C0E9  85 11     STA $11 = 1F                    A:0F X:00 Y:00 P:2C SP:29 PPU:121,190 CYC:18495
C0EB  A5 15     LDA $15 = 00                    A:0F X:00 Y:00 P:2C SP:29 PPU:129,190 CYC:18498
C0ED  29 10     AND #$10                        A:00 X:00 Y:00 P:2E SP:29 PPU:137,190 CYC:18501
C0EF  F0 47     BEQ $C138                       A:00 X:00 Y:00 P:2E SP:29 PPU:145,190 CYC:18503
C138  20 41 C1  JSR $C141                       A:00 X:00 Y:00 P:2E SP:29 PPU:161,190 CYC:18507
C141  AD 02 20  LDA $2002 = 0F                  A:00 X:00 Y:00 P:2E SP:27 PPU:177,190 CYC:18513
C144  A5 10     LDA $10 = 11                    A:0F X:00 Y:00 P:2C SP:27 PPU:185,190 CYC:18517
C146  09 80     ORA #$80                        A:11 X:00 Y:00 P:2C SP:27 PPU:201,190 CYC:18520
C148  85 10     STA $10 = 11                    A:91 X:00 Y:00 P:AC SP:27 PPU:201,190 CYC:18522
C14A  8D 00 20  STA $2000 = 11                  A:91 X:00 Y:00 P:AC SP:27 PPU:209,190 CYC:18525
C14D  60        RTS                             A:91 X:00 Y:00 P:AC SP:27 PPU:225,190 CYC:18529
C13B  68        PLA                             A:91 X:00 Y:00 P:AC SP:29 PPU:241,190 CYC:18535
C13C  A8        TAY                             A:10 X:00 Y:00 P:2C SP:2A PPU:257,190 CYC:18539
C13D  68        PLA                             A:10 X:00 Y:10 P:2C SP:2A PPU:257,190 CYC:18541
C13E  AA        TAX                             A:2D X:00 Y:10 P:2C SP:2B PPU:273,190 CYC:18545
C13F  68        PLA                             A:2D X:2D Y:10 P:2C SP:2B PPU:281,190 CYC:18547
C140  40        RTI                             A:FF X:2D Y:10 P:AC SP:2C PPU:289,190 CYC:18551
00C2  00        BRK                             A:FF X:2D Y:10 P:A8 SP:2F PPU:305,190 CYC:18557
C076  48        PHA                             A:FF X:2D Y:10 P:AC SP:2C PPU:326,190 CYC:18564
C077  8A        TXA                             A:FF X:2D Y:10 P:AC SP:2B PPU:335,190 CYC:18567
C078  48        PHA                             A:2D X:2D Y:10 P:2C SP:2B PPU:345,190 CYC:18569
C079  98        TYA                             A:2D X:2D Y:10 P:2C SP:2A PPU:  9,191 CYC:18572
C07A  48        PHA                             A:10 X:2D Y:10 P:2C SP:2A PPU: 17,191 CYC:18574
C07B  A5 10     LDA $10 = 91                    A:10 X:2D Y:10 P:2C SP:29 PPU: 25,191 CYC:18577
C07D  A6 DE     LDX $DE = 00                    A:91 X:2D Y:10 P:AC SP:29 PPU: 33,191 CYC:18580
C07F  F0 02     BEQ $C083                       A:91 X:00 Y:10 P:2E SP:29 PPU: 41,191 CYC:18583
C083  29 7F     AND #$7F                        A:91 X:00 Y:10 P:2E SP:29 PPU: 49,191 CYC:18586
C085  20 48 C1  JSR $C148                       A:11 X:00 Y:10 P:2C SP:29 PPU: 57,191 CYC:18588
C148  85 10     STA $10 = 91                    A:11 X:00 Y:10 P:2C SP:27 PPU: 73,191 CYC:18594
C14A  8D 00 20  STA $2000 = 91                  A:11 X:00 Y:10 P:2C SP:27 PPU: 81,191 CYC:18597
C14D  60        RTS                             A:11 X:00 Y:10 P:2C SP:27 PPU: 97,191 CYC:18601
C088  A5 52     LDA $52 = 00                    A:11 X:00 Y:10 P:2C SP:29 PPU:113,191 CYC:18607
C08A  D0 09     BNE $C095                       A:00 X:00 Y:10 P:2E SP:29 PPU:121,191 CYC:18610
C08C  A5 11     LDA $11 = 0F                    A:00 X:00 Y:10 P:2E SP:29 PPU:129,191 CYC:18612
C08E  09 1E     ORA #$1E                        A:0F X:00 Y:10 P:2C SP:29 PPU:137,191 CYC:18615
C090  8D 01 20  STA $2001 = 0F                  A:1F X:00 Y:10 P:2C SP:29 PPU:145,191 CYC:18617
C093  85 11     STA $11 = 0F                    A:1F X:00 Y:10 P:2C SP:29 PPU:153,191 CYC:18621
C095  A9 00     LDA #$00                        A:1F X:00 Y:10 P:2C SP:29 PPU:161,191 CYC:18624
C097  8D 03 20  STA $2003 = 00                  A:00 X:00 Y:10 P:2E SP:29 PPU:169,191 CYC:18626
C09A  A9 02     LDA #$02                        A:00 X:00 Y:10 P:2E SP:29 PPU:185,191 CYC:18630
C09C  8D 14 40  STA $4014 = 00                  A:02 X:00 Y:10 P:2C SP:29 PPU:185,191 CYC:18632
C09F  A6 52     LDX $52 = 00                    A:02 X:00 Y:10 P:2C SP:29 PPU: 17,196 CYC:19149
C0A1  20 50 C1  JSR $C150                       A:02 X:00 Y:10 P:2E SP:29 PPU: 25,196 CYC:19152
C150  BD 00 C0  LDA $C000,X @ C000 = 01         A:02 X:00 Y:10 P:2E SP:27 PPU: 41,196 CYC:19158
C153  85 00     STA $00 = 00                    A:01 X:00 Y:10 P:2C SP:27 PPU: 57,196 CYC:19162
C155  BD 0A C0  LDA $C00A,X @ C00A = 03         A:01 X:00 Y:10 P:2C SP:27 PPU: 65,196 CYC:19165
C158  85 01     STA $01 = 7F                    A:03 X:00 Y:10 P:2C SP:27 PPU: 73,196 CYC:19169
C15A  20 78 CB  JSR $CB78                       A:03 X:00 Y:10 P:2C SP:27 PPU: 81,196 CYC:19172
CB78  AE 02 20  LDX $2002 = 00                  A:03 X:00 Y:10 P:2C SP:25 PPU:105,196 CYC:19178
CB7B  A0 00     LDY #$00                        A:03 X:00 Y:10 P:2E SP:25 PPU:113,196 CYC:19182
CB7D  B1 00     LDA ($00),Y = 0301 @ 0301 = 00  A:03 X:00 Y:00 P:2E SP:25 PPU:121,196 CYC:19184
CB7F  D0 BD     BNE $CB3E                       A:00 X:00 Y:00 P:2E SP:25 PPU:137,196 CYC:19189
CB81  A5 12     LDA $12 = 01                    A:00 X:00 Y:00 P:2E SP:25 PPU:137,196 CYC:19191
CB83  8D 05 20  STA $2005 = 9F                  A:01 X:00 Y:00 P:2C SP:25 PPU:153,196 CYC:19194
CB86  A5 13     LDA $13 = 9F                    A:01 X:00 Y:00 P:2C SP:25 PPU:161,196 CYC:19198
CB88  8D 05 20  STA $2005 = 01                  A:9F X:00 Y:00 P:AC SP:25 PPU:169,196 CYC:19201
CB8B  60        RTS                             A:9F X:00 Y:00 P:AC SP:25 PPU:185,196 CYC:19205
C15D  A9 00     LDA #$00                        A:9F X:00 Y:00 P:AC SP:27 PPU:201,196 CYC:19211
C15F  8D 00 03  STA $0300 = 00                  A:00 X:00 Y:00 P:2E SP:27 PPU:209,196 CYC:19213
C162  8D 01 03  STA $0301 = 00                  A:00 X:00 Y:00 P:2E SP:27 PPU:217,196 CYC:19217
C165  60        RTS                             A:00 X:00 Y:00 P:2E SP:27 PPU:233,196 CYC:19221
C0A4  85 52     STA $52 = 00                    A:00 X:00 Y:00 P:2E SP:29 PPU:249,196 CYC:19227
C0A6  85 DE     STA $DE = 00                    A:00 X:00 Y:00 P:2E SP:29 PPU:257,196 CYC:19230
C0A8  A9 3F     LDA #$3F                        A:00 X:00 Y:00 P:2E SP:29 PPU:265,196 CYC:19233
C0AA  8D 06 20  STA $2006 = 00                  A:3F X:00 Y:00 P:2C SP:29 PPU:273,196 CYC:19235
C0AD  A9 00     LDA #$00                        A:3F X:00 Y:00 P:2C SP:29 PPU:281,196 CYC:19239
C0AF  8D 06 20  STA $2006 = 3F                  A:00 X:00 Y:00 P:2E SP:29 PPU:289,196 CYC:19241
C0B2  8D 06 20  STA $2006 = 00                  A:00 X:00 Y:00 P:2E SP:29 PPU:305,196 CYC:19245
C0B5  8D 06 20  STA $2006 = 00                  A:00 X:00 Y:00 P:2E SP:29 PPU:313,196 CYC:19249
C0B8  AD 02 20  LDA $2002 = 00                  A:00 X:00 Y:00 P:2E SP:29 PPU:323,196 CYC:19253
C0BB  20 81 CB  JSR $CB81                       A:00 X:00 Y:00 P:2E SP:29 PPU:335,196 CYC:19257
CB81  A5 12     LDA $12 = 01                    A:00 X:00 Y:00 P:2E SP:27 PPU:  9,197 CYC:19263
CB83  8D 05 20  STA $2005 = 9F                  A:01 X:00 Y:00 P:2C SP:27 PPU: 17,197 CYC:19266
CB86  A5 13     LDA $13 = 9F                    A:01 X:00 Y:00 P:2C SP:27 PPU: 33,197 CYC:19270
CB88  8D 05 20  STA $2005 = 01                  A:9F X:00 Y:00 P:AC SP:27 PPU: 41,197 CYC:19273
CB8B  60        RTS                             A:9F X:00 Y:00 P:AC SP:27 PPU: 57,197 CYC:19277
C0BE  A5 10     LDA $10 = 11                    A:9F X:00 Y:00 P:AC SP:29 PPU: 73,197 CYC:19283
C0C0  8D 00 20  STA $2000 = 11                  A:11 X:00 Y:00 P:2C SP:29 PPU: 81,197 CYC:19286
C0C3  20 ED CA  JSR $CAED                       A:11 X:00 Y:00 P:2C SP:29 PPU: 89,197 CYC:19290
CAED  20 35 CB  JSR $CB35                       A:11 X:00 Y:00 P:2C SP:27 PPU:113,197 CYC:19296
CB35  A9 7F     LDA #$7F                        A:11 X:00 Y:00 P:2C SP:25 PPU:129,197 CYC:19302
CB37  85 01     STA $01 = 03                    A:7F X:00 Y:00 P:2C SP:25 PPU:137,197 CYC:19304
CB39  A9 80     LDA #$80                        A:7F X:00 Y:00 P:2C SP:25 PPU:145,197 CYC:19307
CB3B  85 02     STA $02 = 80                    A:80 X:00 Y:00 P:AC SP:25 PPU:153,197 CYC:19309
CB3D  60        RTS                             A:80 X:00 Y:00 P:AC SP:25 PPU:161,197 CYC:19312
CAF0  A9 01     LDA #$01                        A:80 X:00 Y:00 P:AC SP:27 PPU:177,197 CYC:19318
CAF2  8D 16 40  STA $4016 = 00                  A:01 X:00 Y:00 P:2C SP:27 PPU:185,197 CYC:19320
CAF5  A2 00     LDX #$00                        A:01 X:00 Y:00 P:2C SP:27 PPU:193,197 CYC:19324
CAF7  A9 00     LDA #$00                        A:01 X:00 Y:00 P:2E SP:27 PPU:201,197 CYC:19326
CAF9  8D 16 40  STA $4016 = 00                  A:00 X:00 Y:00 P:2E SP:27 PPU:209,197 CYC:19328
CAFC  20 00 CB  JSR $CB00                       A:00 X:00 Y:00 P:2E SP:27 PPU:217,197 CYC:19332
CB00  A0 08     LDY #$08                        A:00 X:00 Y:00 P:2E SP:25 PPU:233,197 CYC:19338
CB02  48        PHA                             A:00 X:00 Y:08 P:2C SP:25 PPU:241,197 CYC:19340
CB03  BD 16 40  LDA $4016,X @ 4016 = 00         A:00 X:00 Y:08 P:2C SP:24 PPU:249,197 CYC:19343
CB06  85 00     STA $00 = 01                    A:00 X:00 Y:08 P:2E SP:24 PPU:265,197 CYC:19347
CB08  4A        LSR A                           A:00 X:00 Y:08 P:2E SP:24 PPU:273,197 CYC:19350
CB09  05 00     ORA $00 = 00                    A:00 X:00 Y:08 P:2E SP:24 PPU:281,197 CYC:19352
CB0B  4A        LSR A                           A:00 X:00 Y:08 P:2E SP:24 PPU:289,197 CYC:19355
CB0C  68        PLA                             A:00 X:00 Y:08 P:2E SP:24 PPU:297,197 CYC:19357
CB0D  2A        ROL A                           A:00 X:00 Y:08 P:2E SP:25 PPU:305,197 CYC:19361
CB0E  88        DEY                             A:00 X:00 Y:08 P:2E SP:25 PPU:313,197 CYC:19363
CB0F  D0 F1     BNE $CB02                       A:00 X:00 Y:07 P:2C SP:25 PPU:321,197 CYC:19365
CB02  48        PHA                             A:00 X:00 Y:07 P:2C SP:25 PPU:323,197 CYC:19368
CB03  BD 16 40  LDA $4016,X @ 4016 = 00         A:00 X:00 Y:07 P:2C SP:24 PPU:332,197 CYC:19371
CB06  85 00     STA $00 = 00                    A:00 X:00 Y:07 P:2E SP:24 PPU:345,197 CYC:19375
CB08  4A        LSR A                           A:00 X:00 Y:07 P:2E SP:24 PPU:  9,198 CYC:19378
CB09  05 00     ORA $00 = 00                    A:00 X:00 Y:07 P:2E SP:24 PPU: 17,198 CYC:19380
CB0B  4A        LSR A                           A:00 X:00 Y:07 P:2E SP:24 PPU: 25,198 CYC:19383
CB0C  68        PLA                             A:00 X:00 Y:07 P:2E SP:24 PPU: 33,198 CYC:19385
CB0D  2A        ROL A                           A:00 X:00 Y:07 P:2E SP:25 PPU: 41,198 CYC:19389
CB0E  88        DEY                             A:00 X:00 Y:07 P:2E SP:25 PPU: 49,198 CYC:19391
CB0F  D0 F1     BNE $CB02                       A:00 X:00 Y:06 P:2C SP:25 PPU: 57,198 CYC:19393
CB02  48        PHA                             A:00 X:00 Y:06 P:2C SP:25 PPU: 65,198 CYC:19396
CB03  BD 16 40  LDA $4016,X @ 4016 = 00         A:00 X:00 Y:06 P:2C SP:24 PPU: 73,198 CYC:19399
CB06  85 00     STA $00 = 00                    A:00 X:00 Y:06 P:2E SP:24 PPU: 89,198 CYC:19403
CB08  4A        LSR A                           A:00 X:00 Y:06 P:2E SP:24 PPU: 97,198 CYC:19406
CB09  05 00     ORA $00 = 00                    A:00 X:00 Y:06 P:2E SP:24 PPU:105,198 CYC:19408
CB0B  4A        LSR A                           A:00 X:00 Y:06 P:2E SP:24 PPU:113,198 CYC:19411
CB0C  68        PLA                             A:00 X:00 Y:06 P:2E SP:24 PPU:113,198 CYC:19413
CB0D  2A        ROL A                           A:00 X:00 Y:06 P:2E SP:25 PPU:129,198 CYC:19417
CB0E  88        DEY                             A:00 X:00 Y:06 P:2E SP:25 PPU:137,198 CYC:19419
CB0F  D0 F1     BNE $CB02                       A:00 X:00 Y:05 P:2C SP:25 PPU:137,198 CYC:19421
CB02  48        PHA                             A:00 X:00 Y:05 P:2C SP:25 PPU:153,198 CYC:19424
CB03  BD 16 40  LDA $4016,X @ 4016 = 00         A:00 X:00 Y:05 P:2C SP:24 PPU:161,198 CYC:19427
CB06  85 00     STA $00 = 00                    A:00 X:00 Y:05 P:2E SP:24 PPU:169,198 CYC:19431
CB08  4A        LSR A                           A:00 X:00 Y:05 P:2E SP:24 PPU:177,198 CYC:19434
CB09  05 00     ORA $00 = 00                    A:00 X:00 Y:05 P:2E SP:24 PPU:185,198 CYC:19436
CB0B  4A        LSR A                           A:00 X:00 Y:05 P:2E SP:24 PPU:193,198 CYC:19439
CB0C  68        PLA                             A:00 X:00 Y:05 P:2E SP:24 PPU:201,198 CYC:19441
CB0D  2A        ROL A                           A:00 X:00 Y:05 P:2E SP:25 PPU:209,198 CYC:19445
CB0E  88        DEY                             A:00 X:00 Y:05 P:2E SP:25 PPU:217,198 CYC:19447
CB0F  D0 F1     BNE $CB02                       A:00 X:00 Y:04 P:2C SP:25 PPU:225,198 CYC:19449
CB02  48        PHA                             A:00 X:00 Y:04 P:2C SP:25 PPU:233,198 CYC:19452
CB03  BD 16 40  LDA $4016,X @ 4016 = 00         A:00 X:00 Y:04 P:2C SP:24 PPU:241,198 CYC:19455
CB06  85 00     STA $00 = 00                    A:00 X:00 Y:04 P:2E SP:24 PPU:257,198 CYC:19459
CB08  4A        LSR A                           A:00 X:00 Y:04 P:2E SP:24 PPU:265,198 CYC:19462
CB09  05 00     ORA $00 = 00                    A:00 X:00 Y:04 P:2E SP:24 PPU:273,198 CYC:19464
CB0B  4A        LSR A                           A:00 X:00 Y:04 P:2E SP:24 PPU:281,198 CYC:19467
CB0C  68        PLA                             A:00 X:00 Y:04 P:2E SP:24 PPU:281,198 CYC:19469
CB0D  2A        ROL A                           A:00 X:00 Y:04 P:2E SP:25 PPU:297,198 CYC:19473
CB0E  88        DEY                             A:00 X:00 Y:04 P:2E SP:25 PPU:305,198 CYC:19475
CB0F  D0 F1     BNE $CB02                       A:00 X:00 Y:03 P:2C SP:25 PPU:305,198 CYC:19477
CB02  48        PHA                             A:00 X:00 Y:03 P:2C SP:25 PPU:321,198 CYC:19480
CB03  BD 16 40  LDA $4016,X @ 4016 = 00         A:00 X:00 Y:03 P:2C SP:24 PPU:323,198 CYC:19483
CB06  85 00     STA $00 = 00                    A:00 X:00 Y:03 P:2E SP:24 PPU:335,198 CYC:19487
CB08  4A        LSR A                           A:00 X:00 Y:03 P:2E SP:24 PPU:345,198 CYC:19490
CB09  05 00     ORA $00 = 00                    A:00 X:00 Y:03 P:2E SP:24 PPU:  9,199 CYC:19492
CB0B  4A        LSR A                           A:00 X:00 Y:03 P:2E SP:24 PPU: 17,199 CYC:19495
CB0C  68        PLA                             A:00 X:00 Y:03 P:2E SP:24 PPU: 25,199 CYC:19497
CB0D  2A        ROL A                           A:00 X:00 Y:03 P:2E SP:25 PPU: 33,199 CYC:19501
CB0E  88        DEY                             A:00 X:00 Y:03 P:2E SP:25 PPU: 41,199 CYC:19503
CB0F  D0 F1     BNE $CB02                       A:00 X:00 Y:02 P:2C SP:25 PPU: 49,199 CYC:19505
CB02  48        PHA                             A:00 X:00 Y:02 P:2C SP:25 PPU: 57,199 CYC:19508
CB03  BD 16 40  LDA $4016,X @ 4016 = 00         A:00 X:00 Y:02 P:2C SP:24 PPU: 65,199 CYC:19511
CB06  85 00     STA $00 = 00                    A:00 X:00 Y:02 P:2E SP:24 PPU: 81,199 CYC:19515
CB08  4A        LSR A                           A:00 X:00 Y:02 P:2E SP:24 PPU: 89,199 CYC:19518
CB09  05 00     ORA $00 = 00                    A:00 X:00 Y:02 P:2E SP:24 PPU: 89,199 CYC:19520
CB0B  4A        LSR A                           A:00 X:00 Y:02 P:2E SP:24 PPU:105,199 CYC:19523
CB0C  68        PLA                             A:00 X:00 Y:02 P:2E SP:24 PPU:105,199 CYC:19525
CB0D  2A        ROL A                           A:00 X:00 Y:02 P:2E SP:25 PPU:121,199 CYC:19529
CB0E  88        DEY                             A:00 X:00 Y:02 P:2E SP:25 PPU:129,199 CYC:19531
CB0F  D0 F1     BNE $CB02                       A:00 X:00 Y:01 P:2C SP:25 PPU:129,199 CYC:19533
CB02  48        PHA                             A:00 X:00 Y:01 P:2C SP:25 PPU:137,199 CYC:19536
CB03  BD 16 40  LDA $4016,X @ 4016 = 00         A:00 X:00 Y:01 P:2C SP:24 PPU:153,199 CYC:19539
CB06  85 00     STA $00 = 00                    A:00 X:00 Y:01 P:2E SP:24 PPU:161,199 CYC:19543
CB08  4A        LSR A                           A:00 X:00 Y:01 P:2E SP:24 PPU:169,199 CYC:19546
CB09  05 00     ORA $00 = 00                    A:00 X:00 Y:01 P:2E SP:24 PPU:177,199 CYC:19548
CB0B  4A        LSR A                           A:00 X:00 Y:01 P:2E SP:24 PPU:185,199 CYC:19551
CB0C  68        PLA                             A:00 X:00 Y:01 P:2E SP:24 PPU:193,199 CYC:19553
CB0D  2A        ROL A                           A:00 X:00 Y:01 P:2E SP:25 PPU:201,199 CYC:19557
CB0E  88        DEY                             A:00 X:00 Y:01 P:2E SP:25 PPU:209,199 CYC:19559
CB0F  D0 F1     BNE $CB02                       A:00 X:00 Y:00 P:2E SP:25 PPU:217,199 CYC:19561
CB11  86 00     STX $00 = 00                    A:00 X:00 Y:00 P:2E SP:25 PPU:225,199 CYC:19563
CB13  06 00     ASL $00 = 00                    A:00 X:00 Y:00 P:2E SP:25 PPU:233,199 CYC:19566
CB15  A6 00     LDX $00 = 00                    A:00 X:00 Y:00 P:2E SP:25 PPU:249,199 CYC:19571
CB17  B4 14     LDY $14,X @ 14 = 00             A:00 X:00 Y:00 P:2E SP:25 PPU:257,199 CYC:19574
CB19  84 00     STY $00 = 00                    A:00 X:00 Y:00 P:2E SP:25 PPU:265,199 CYC:19578
CB1B  95 14     STA $14,X @ 14 = 00             A:00 X:00 Y:00 P:2E SP:25 PPU:273,199 CYC:19581
CB1D  95 15     STA $15,X @ 15 = 00             A:00 X:00 Y:00 P:2E SP:25 PPU:289,199 CYC:19585
CB1F  A0 04     LDY #$04                        A:00 X:00 Y:00 P:2E SP:25 PPU:297,199 CYC:19589
CB21  A5 02     LDA $02 = 80                    A:00 X:00 Y:04 P:2C SP:25 PPU:305,199 CYC:19591
CB23  24 00     BIT $00 = 00                    A:80 X:00 Y:04 P:AC SP:25 PPU:313,199 CYC:19594
CB25  F0 06     BEQ $CB2D                       A:80 X:00 Y:04 P:2E SP:25 PPU:321,199 CYC:19597
CB2D  38        SEC                             A:80 X:00 Y:04 P:2E SP:25 PPU:329,199 CYC:19600
CB2E  66 01     ROR $01 = 7F                    A:80 X:00 Y:04 P:2F SP:25 PPU:335,199 CYC:19602
CB30  46 02     LSR $02 = 80                    A:80 X:00 Y:04 P:AD SP:25 PPU:  9,200 CYC:19607
CB32  88        DEY                             A:80 X:00 Y:04 P:2C SP:25 PPU: 25,200 CYC:19612
CB33  D0 EC     BNE $CB21                       A:80 X:00 Y:03 P:2C SP:25 PPU: 33,200 CYC:19614
CB21  A5 02     LDA $02 = 40                    A:80 X:00 Y:03 P:2C SP:25 PPU: 41,200 CYC:19617
CB23  24 00     BIT $00 = 00                    A:40 X:00 Y:03 P:2C SP:25 PPU: 49,200 CYC:19620
CB25  F0 06     BEQ $CB2D                       A:40 X:00 Y:03 P:2E SP:25 PPU: 57,200 CYC:19623
CB2D  38        SEC                             A:40 X:00 Y:03 P:2E SP:25 PPU: 65,200 CYC:19626
CB2E  66 01     ROR $01 = BF                    A:40 X:00 Y:03 P:2F SP:25 PPU: 73,200 CYC:19628
CB30  46 02     LSR $02 = 40                    A:40 X:00 Y:03 P:AD SP:25 PPU: 89,200 CYC:19633
CB32  88        DEY                             A:40 X:00 Y:03 P:2C SP:25 PPU:105,200 CYC:19638
CB33  D0 EC     BNE $CB21                       A:40 X:00 Y:02 P:2C SP:25 PPU:105,200 CYC:19640
CB21  A5 02     LDA $02 = 20                    A:40 X:00 Y:02 P:2C SP:25 PPU:113,200 CYC:19643
CB23  24 00     BIT $00 = 00                    A:20 X:00 Y:02 P:2C SP:25 PPU:129,200 CYC:19646
CB25  F0 06     BEQ $CB2D                       A:20 X:00 Y:02 P:2E SP:25 PPU:137,200 CYC:19649
CB2D  38        SEC                             A:20 X:00 Y:02 P:2E SP:25 PPU:145,200 CYC:19652
CB2E  66 01     ROR $01 = DF                    A:20 X:00 Y:02 P:2F SP:25 PPU:153,200 CYC:19654
CB30  46 02     LSR $02 = 20                    A:20 X:00 Y:02 P:AD SP:25 PPU:161,200 CYC:19659
CB32  88        DEY                             A:20 X:00 Y:02 P:2C SP:25 PPU:177,200 CYC:19664
CB33  D0 EC     BNE $CB21                       A:20 X:00 Y:01 P:2C SP:25 PPU:185,200 CYC:19666
CB21  A5 02     LDA $02 = 10                    A:20 X:00 Y:01 P:2C SP:25 PPU:193,200 CYC:19669
CB23  24 00     BIT $00 = 00                    A:10 X:00 Y:01 P:2C SP:25 PPU:201,200 CYC:19672
CB25  F0 06     BEQ $CB2D                       A:10 X:00 Y:01 P:2E SP:25 PPU:209,200 CYC:19675
CB2D  38        SEC                             A:10 X:00 Y:01 P:2E SP:25 PPU:225,200 CYC:19678
CB2E  66 01     ROR $01 = EF                    A:10 X:00 Y:01 P:2F SP:25 PPU:225,200 CYC:19680
CB30  46 02     LSR $02 = 10                    A:10 X:00 Y:01 P:AD SP:25 PPU:241,200 CYC:19685
CB32  88        DEY                             A:10 X:00 Y:01 P:2C SP:25 PPU:257,200 CYC:19690
CB33  D0 EC     BNE $CB21                       A:10 X:00 Y:00 P:2E SP:25 PPU:265,200 CYC:19692
CB35  A9 7F     LDA #$7F                        A:10 X:00 Y:00 P:2E SP:25 PPU:273,200 CYC:19694
CB37  85 01     STA $01 = F7                    A:7F X:00 Y:00 P:2C SP:25 PPU:273,200 CYC:19696
CB39  A9 80     LDA #$80                        A:7F X:00 Y:00 P:2C SP:25 PPU:281,200 CYC:19699
CB3B  85 02     STA $02 = 08                    A:80 X:00 Y:00 P:AC SP:25 PPU:289,200 CYC:19701
CB3D  60        RTS                             A:80 X:00 Y:00 P:AC SP:25 PPU:297,200 CYC:19704
CAFF  E8        INX                             A:80 X:00 Y:00 P:AC SP:27 PPU:321,200 CYC:19710
CB00  A0 08     LDY #$08                        A:80 X:01 Y:00 P:2C SP:27 PPU:321,200 CYC:19712
CB02  48        PHA                             A:80 X:01 Y:08 P:2C SP:27 PPU:326,200 CYC:19714
CB03  BD 16 40  LDA $4016,X @ 4017 = 00         A:80 X:01 Y:08 P:2C SP:26 PPU:335,200 CYC:19717
CB06  85 00     STA $00 = 00                    A:00 X:01 Y:08 P:2E SP:26 PPU:  9,201 CYC:19721
CB08  4A        LSR A                           A:00 X:01 Y:08 P:2E SP:26 PPU: 17,201 CYC:19724
CB09  05 00     ORA $00 = 00                    A:00 X:01 Y:08 P:2E SP:26 PPU: 17,201 CYC:19726
CB0B  4A        LSR A                           A:00 X:01 Y:08 P:2E SP:26 PPU: 33,201 CYC:19729
CB0C  68        PLA                             A:00 X:01 Y:08 P:2E SP:26 PPU: 33,201 CYC:19731
CB0D  2A        ROL A                           A:80 X:01 Y:08 P:AC SP:27 PPU: 49,201 CYC:19735
CB0E  88        DEY                             A:00 X:01 Y:08 P:2F SP:27 PPU: 57,201 CYC:19737
CB0F  D0 F1     BNE $CB02                       A:00 X:01 Y:07 P:2D SP:27 PPU: 57,201 CYC:19739
CB02  48        PHA                             A:00 X:01 Y:07 P:2D SP:27 PPU: 65,201 CYC:19742
CB03  BD 16 40  LDA $4016,X @ 4017 = 00         A:00 X:01 Y:07 P:2D SP:26 PPU: 81,201 CYC:19745
CB06  85 00     STA $00 = 00                    A:00 X:01 Y:07 P:2F SP:26 PPU: 89,201 CYC:19749
CB08  4A        LSR A                           A:00 X:01 Y:07 P:2F SP:26 PPU: 97,201 CYC:19752
CB09  05 00     ORA $00 = 00                    A:00 X:01 Y:07 P:2E SP:26 PPU:105,201 CYC:19754
CB0B  4A        LSR A                           A:00 X:01 Y:07 P:2E SP:26 PPU:113,201 CYC:19757
CB0C  68        PLA                             A:00 X:01 Y:07 P:2E SP:26 PPU:121,201 CYC:19759
CB0D  2A        ROL A                           A:00 X:01 Y:07 P:2E SP:27 PPU:129,201 CYC:19763
CB0E  88        DEY                             A:00 X:01 Y:07 P:2E SP:27 PPU:137,201 CYC:19765
CB0F  D0 F1     BNE $CB02                       A:00 X:01 Y:06 P:2C SP:27 PPU:145,201 CYC:19767
CB02  48        PHA                             A:00 X:01 Y:06 P:2C SP:27 PPU:153,201 CYC:19770
CB03  BD 16 40  LDA $4016,X @ 4017 = 00         A:00 X:01 Y:06 P:2C SP:26 PPU:161,201 CYC:19773
CB06  85 00     STA $00 = 00                    A:00 X:01 Y:06 P:2E SP:26 PPU:177,201 CYC:19777
CB08  4A        LSR A                           A:00 X:01 Y:06 P:2E SP:26 PPU:185,201 CYC:19780
CB09  05 00     ORA $00 = 00                    A:00 X:01 Y:06 P:2E SP:26 PPU:185,201 CYC:19782
CB0B  4A        LSR A                           A:00 X:01 Y:06 P:2E SP:26 PPU:201,201 CYC:19785
CB0C  68        PLA                             A:00 X:01 Y:06 P:2E SP:26 PPU:201,201 CYC:19787
CB0D  2A        ROL A                           A:00 X:01 Y:06 P:2E SP:27 PPU:217,201 CYC:19791
CB0E  88        DEY                             A:00 X:01 Y:06 P:2E SP:27 PPU:225,201 CYC:19793
CB0F  D0 F1     BNE $CB02                       A:00 X:01 Y:05 P:2C SP:27 PPU:225,201 CYC:19795
CB02  48        PHA                             A:00 X:01 Y:05 P:2C SP:27 PPU:233,201 CYC:19798
CB03  BD 16 40  LDA $4016,X @ 4017 = 00         A:00 X:01 Y:05 P:2C SP:26 PPU:249,201 CYC:19801
CB06  85 00     STA $00 = 00                    A:00 X:01 Y:05 P:2E SP:26 PPU:257,201 CYC:19805
CB08  4A        LSR A                           A:00 X:01 Y:05 P:2E SP:26 PPU:265,201 CYC:19808
CB09  05 00     ORA $00 = 00                    A:00 X:01 Y:05 P:2E SP:26 PPU:273,201 CYC:19810
CB0B  4A        LSR A                           A:00 X:01 Y:05 P:2E SP:26 PPU:281,201 CYC:19813
CB0C  68        PLA                             A:00 X:01 Y:05 P:2E SP:26 PPU:289,201 CYC:19815
CB0D  2A        ROL A                           A:00 X:01 Y:05 P:2E SP:27 PPU:297,201 CYC:19819
CB0E  88        DEY                             A:00 X:01 Y:05 P:2E SP:27 PPU:305,201 CYC:19821
CB0F  D0 F1     BNE $CB02                       A:00 X:01 Y:04 P:2C SP:27 PPU:313,201 CYC:19823
CB02  48        PHA                             A:00 X:01 Y:04 P:2C SP:27 PPU:321,201 CYC:19826
CB03  BD 16 40  LDA $4016,X @ 4017 = 00         A:00 X:01 Y:04 P:2C SP:26 PPU:326,201 CYC:19829
CB06  85 00     STA $00 = 00                    A:00 X:01 Y:04 P:2E SP:26 PPU:345,201 CYC:19833
CB08  4A        LSR A                           A:00 X:01 Y:04 P:2E SP:26 PPU:  9,202 CYC:19836
CB09  05 00     ORA $00 = 00                    A:00 X:01 Y:04 P:2E SP:26 PPU:  9,202 CYC:19838
CB0B  4A        LSR A                           A:00 X:01 Y:04 P:2E SP:26 PPU: 17,202 CYC:19841
CB0C  68        PLA                             A:00 X:01 Y:04 P:2E SP:26 PPU: 25,202 CYC:19843
CB0D  2A        ROL A                           A:00 X:01 Y:04 P:2E SP:27 PPU: 41,202 CYC:19847
CB0E  88        DEY                             A:00 X:01 Y:04 P:2E SP:27 PPU: 41,202 CYC:19849
CB0F  D0 F1     BNE $CB02                       A:00 X:01 Y:03 P:2C SP:27 PPU: 49,202 CYC:19851
CB02  48        PHA                             A:00 X:01 Y:03 P:2C SP:27 PPU: 57,202 CYC:19854
CB03  BD 16 40  LDA $4016,X @ 4017 = 00         A:00 X:01 Y:03 P:2C SP:26 PPU: 65,202 CYC:19857
CB06  85 00     STA $00 = 00                    A:00 X:01 Y:03 P:2E SP:26 PPU: 81,202 CYC:19861
CB08  4A        LSR A                           A:00 X:01 Y:03 P:2E SP:26 PPU: 89,202 CYC:19864
CB09  05 00     ORA $00 = 00                    A:00 X:01 Y:03 P:2E SP:26 PPU: 97,202 CYC:19866
CB0B  4A        LSR A                           A:00 X:01 Y:03 P:2E SP:26 PPU:105,202 CYC:19869
CB0C  68        PLA                             A:00 X:01 Y:03 P:2E SP:26 PPU:113,202 CYC:19871
CB0D  2A        ROL A                           A:00 X:01 Y:03 P:2E SP:27 PPU:121,202 CYC:19875
CB0E  88        DEY                             A:00 X:01 Y:03 P:2E SP:27 PPU:129,202 CYC:19877
CB0F  D0 F1     BNE $CB02                       A:00 X:01 Y:02 P:2C SP:27 PPU:137,202 CYC:19879
CB02  48        PHA                             A:00 X:01 Y:02 P:2C SP:27 PPU:145,202 CYC:19882
CB03  BD 16 40  LDA $4016,X @ 4017 = 00         A:00 X:01 Y:02 P:2C SP:26 PPU:153,202 CYC:19885
CB06  85 00     STA $00 = 00                    A:00 X:01 Y:02 P:2E SP:26 PPU:161,202 CYC:19889
CB08  4A        LSR A                           A:00 X:01 Y:02 P:2E SP:26 PPU:177,202 CYC:19892
CB09  05 00     ORA $00 = 00                    A:00 X:01 Y:02 P:2E SP:26 PPU:177,202 CYC:19894
CB0B  4A        LSR A                           A:00 X:01 Y:02 P:2E SP:26 PPU:185,202 CYC:19897
CB0C  68        PLA                             A:00 X:01 Y:02 P:2E SP:26 PPU:193,202 CYC:19899
CB0D  2A        ROL A                           A:00 X:01 Y:02 P:2E SP:27 PPU:209,202 CYC:19903
CB0E  88        DEY                             A:00 X:01 Y:02 P:2E SP:27 PPU:209,202 CYC:19905
CB0F  D0 F1     BNE $CB02                       A:00 X:01 Y:01 P:2C SP:27 PPU:217,202 CYC:19907
CB02  48        PHA                             A:00 X:01 Y:01 P:2C SP:27 PPU:225,202 CYC:19910
CB03  BD 16 40  LDA $4016,X @ 4017 = 00         A:00 X:01 Y:01 P:2C SP:26 PPU:233,202 CYC:19913
CB06  85 00     STA $00 = 00                    A:00 X:01 Y:01 P:2E SP:26 PPU:249,202 CYC:19917
CB08  4A        LSR A                           A:00 X:01 Y:01 P:2E SP:26 PPU:257,202 CYC:19920
CB09  05 00     ORA $00 = 00                    A:00 X:01 Y:01 P:2E SP:26 PPU:265,202 CYC:19922
CB0B  4A        LSR A                           A:00 X:01 Y:01 P:2E SP:26 PPU:273,202 CYC:19925
CB0C  68        PLA                             A:00 X:01 Y:01 P:2E SP:26 PPU:281,202 CYC:19927
CB0D  2A        ROL A                           A:00 X:01 Y:01 P:2E SP:27 PPU:289,202 CYC:19931
CB0E  88        DEY                             A:00 X:01 Y:01 P:2E SP:27 PPU:297,202 CYC:19933
CB0F  D0 F1     BNE $CB02                       A:00 X:01 Y:00 P:2E SP:27 PPU:305,202 CYC:19935
CB11  86 00     STX $00 = 00                    A:00 X:01 Y:00 P:2E SP:27 PPU:305,202 CYC:19937
CB13  06 00     ASL $00 = 01                    A:00 X:01 Y:00 P:2E SP:27 PPU:321,202 CYC:19940
CB15  A6 00     LDX $00 = 02                    A:00 X:01 Y:00 P:2C SP:27 PPU:329,202 CYC:19945
CB17  B4 14     LDY $14,X @ 16 = 00             A:00 X:02 Y:00 P:2C SP:27 PPU:345,202 CYC:19948
CB19  84 00     STY $00 = 02                    A:00 X:02 Y:00 P:2E SP:27 PPU:  9,203 CYC:19952
CB1B  95 14     STA $14,X @ 16 = 00             A:00 X:02 Y:00 P:2E SP:27 PPU: 17,203 CYC:19955
CB1D  95 15     STA $15,X @ 17 = 00             A:00 X:02 Y:00 P:2E SP:27 PPU: 33,203 CYC:19959
CB1F  A0 04     LDY #$04                        A:00 X:02 Y:00 P:2E SP:27 PPU: 41,203 CYC:19963
CB21  A5 02     LDA $02 = 80                    A:00 X:02 Y:04 P:2C SP:27 PPU: 49,203 CYC:19965
CB23  24 00     BIT $00 = 00                    A:80 X:02 Y:04 P:AC SP:27 PPU: 57,203 CYC:19968
CB25  F0 06     BEQ $CB2D                       A:80 X:02 Y:04 P:2E SP:27 PPU: 65,203 CYC:19971
CB2D  38        SEC                             A:80 X:02 Y:04 P:2E SP:27 PPU: 73,203 CYC:19974
CB2E  66 01     ROR $01 = 7F                    A:80 X:02 Y:04 P:2F SP:27 PPU: 81,203 CYC:19976
CB30  46 02     LSR $02 = 80                    A:80 X:02 Y:04 P:AD SP:27 PPU: 97,203 CYC:19981
CB32  88        DEY                             A:80 X:02 Y:04 P:2C SP:27 PPU:113,203 CYC:19986
CB33  D0 EC     BNE $CB21                       A:80 X:02 Y:03 P:2C SP:27 PPU:113,203 CYC:19988
CB21  A5 02     LDA $02 = 40                    A:80 X:02 Y:03 P:2C SP:27 PPU:129,203 CYC:19991
CB23  24 00     BIT $00 = 00                    A:40 X:02 Y:03 P:2C SP:27 PPU:137,203 CYC:19994
CB25  F0 06     BEQ $CB2D                       A:40 X:02 Y:03 P:2E SP:27 PPU:145,203 CYC:19997
CB2D  38        SEC                             A:40 X:02 Y:03 P:2E SP:27 PPU:153,203 CYC:20000
CB2E  66 01     ROR $01 = BF                    A:40 X:02 Y:03 P:2F SP:27 PPU:161,203 CYC:20002
CB30  46 02     LSR $02 = 40                    A:40 X:02 Y:03 P:AD SP:27 PPU:177,203 CYC:20007
CB32  88        DEY                             A:40 X:02 Y:03 P:2C SP:27 PPU:185,203 CYC:20012
CB33  D0 EC     BNE $CB21                       A:40 X:02 Y:02 P:2C SP:27 PPU:193,203 CYC:20014
CB21  A5 02     LDA $02 = 20                    A:40 X:02 Y:02 P:2C SP:27 PPU:201,203 CYC:20017
CB23  24 00     BIT $00 = 00                    A:20 X:02 Y:02 P:2C SP:27 PPU:209,203 CYC:20020
CB25  F0 06     BEQ $CB2D                       A:20 X:02 Y:02 P:2E SP:27 PPU:225,203 CYC:20023
CB2D  38        SEC                             A:20 X:02 Y:02 P:2E SP:27 PPU:233,203 CYC:20026
CB2E  66 01     ROR $01 = DF                    A:20 X:02 Y:02 P:2F SP:27 PPU:233,203 CYC:20028
CB30  46 02     LSR $02 = 20                    A:20 X:02 Y:02 P:AD SP:27 PPU:249,203 CYC:20033
CB32  88        DEY                             A:20 X:02 Y:02 P:2C SP:27 PPU:265,203 CYC:20038
CB33  D0 EC     BNE $CB21                       A:20 X:02 Y:01 P:2C SP:27 PPU:273,203 CYC:20040
CB21  A5 02     LDA $02 = 10                    A:20 X:02 Y:01 P:2C SP:27 PPU:281,203 CYC:20043
CB23  24 00     BIT $00 = 00                    A:10 X:02 Y:01 P:2C SP:27 PPU:289,203 CYC:20046
CB25  F0 06     BEQ $CB2D                       A:10 X:02 Y:01 P:2E SP:27 PPU:297,203 CYC:20049
CB2D  38        SEC                             A:10 X:02 Y:01 P:2E SP:27 PPU:305,203 CYC:20052
CB2E  66 01     ROR $01 = EF                    A:10 X:02 Y:01 P:2F SP:27 PPU:313,203 CYC:20054
CB30  46 02     LSR $02 = 10                    A:10 X:02 Y:01 P:AD SP:27 PPU:326,203 CYC:20059
CB32  88        DEY                             A:10 X:02 Y:01 P:2C SP:27 PPU:345,203 CYC:20064
CB33  D0 EC     BNE $CB21                       A:10 X:02 Y:00 P:2E SP:27 PPU:  9,204 CYC:20066
CB35  A9 7F     LDA #$7F                        A:10 X:02 Y:00 P:2E SP:27 PPU:  9,204 CYC:20068
CB37  85 01     STA $01 = F7                    A:7F X:02 Y:00 P:2C SP:27 PPU: 17,204 CYC:20070
CB39  A9 80     LDA #$80                        A:7F X:02 Y:00 P:2C SP:27 PPU: 25,204 CYC:20073
CB3B  85 02     STA $02 = 08                    A:80 X:02 Y:00 P:AC SP:27 PPU: 33,204 CYC:20075
CB3D  60        RTS                             A:80 X:02 Y:00 P:AC SP:27 PPU: 41,204 CYC:20078
C0C6  20 1E F9  JSR $F91E                       A:80 X:02 Y:00 P:AC SP:29 PPU: 57,204 CYC:20084
F91E  A9 FF     LDA #$FF                        A:80 X:02 Y:00 P:AC SP:27 PPU: 81,204 CYC:20090
F920  8D 17 40  STA $4017 = 00                  A:FF X:02 Y:00 P:AC SP:27 PPU: 81,204 CYC:20092
F923  20 EB F9  JSR $F9EB                       A:FF X:02 Y:00 P:AC SP:27 PPU: 97,204 CYC:20096
F9EB  A4 FF     LDY $FF = 00                    A:FF X:02 Y:00 P:AC SP:25 PPU:113,204 CYC:20102
F9ED  A5 F0     LDA $F0 = 00                    A:FF X:02 Y:00 P:2E SP:25 PPU:121,204 CYC:20105
F9EF  46 FF     LSR $FF = 00                    A:00 X:02 Y:00 P:2E SP:25 PPU:129,204 CYC:20108
F9F1  B0 B8     BCS $F9AB                       A:00 X:02 Y:00 P:2E SP:25 PPU:145,204 CYC:20113
F9F3  4A        LSR A                           A:00 X:02 Y:00 P:2E SP:25 PPU:153,204 CYC:20115
F9F4  B0 BB     BCS $F9B1                       A:00 X:02 Y:00 P:2E SP:25 PPU:161,204 CYC:20117
F9F6  46 FF     LSR $FF = 00                    A:00 X:02 Y:00 P:2E SP:25 PPU:161,204 CYC:20119
F9F8  B0 CE     BCS $F9C8                       A:00 X:02 Y:00 P:2E SP:25 PPU:177,204 CYC:20124
F9FA  4A        LSR A                           A:00 X:02 Y:00 P:2E SP:25 PPU:185,204 CYC:20126
F9FB  B0 D3     BCS $F9D0                       A:00 X:02 Y:00 P:2E SP:25 PPU:193,204 CYC:20128
F9FD  46 FF     LSR $FF = 00                    A:00 X:02 Y:00 P:2E SP:25 PPU:201,204 CYC:20130
F9FF  B0 0B     BCS $FA0C                       A:00 X:02 Y:00 P:2E SP:25 PPU:209,204 CYC:20135
FA01  4A        LSR A                           A:00 X:02 Y:00 P:2E SP:25 PPU:217,204 CYC:20137
FA02  B0 17     BCS $FA1B                       A:00 X:02 Y:00 P:2E SP:25 PPU:225,204 CYC:20139
FA04  46 FF     LSR $FF = 00                    A:00 X:02 Y:00 P:2E SP:25 PPU:233,204 CYC:20141
FA06  B0 38     BCS $FA40                       A:00 X:02 Y:00 P:2E SP:25 PPU:249,204 CYC:20146
FA08  4A        LSR A                           A:00 X:02 Y:00 P:2E SP:25 PPU:249,204 CYC:20148
FA09  B0 3F     BCS $FA4A                       A:00 X:02 Y:00 P:2E SP:25 PPU:257,204 CYC:20150
FA0B  60        RTS                             A:00 X:02 Y:00 P:2E SP:25 PPU:265,204 CYC:20152
F926  20 C4 FA  JSR $FAC4                       A:00 X:02 Y:00 P:2E SP:27 PPU:281,204 CYC:20158
FAC4  A4 FE     LDY $FE = 00                    A:00 X:02 Y:00 P:2E SP:25 PPU:297,204 CYC:20164
FAC6  A5 F1     LDA $F1 = 00                    A:00 X:02 Y:00 P:2E SP:25 PPU:305,204 CYC:20167
FAC8  46 FE     LSR $FE = 00                    A:00 X:02 Y:00 P:2E SP:25 PPU:321,204 CYC:20170
FACA  B0 98     BCS $FA64                       A:00 X:02 Y:00 P:2E SP:25 PPU:329,204 CYC:20175
FACC  4A        LSR A                           A:00 X:02 Y:00 P:2E SP:25 PPU:335,204 CYC:20177
FACD  B0 9C     BCS $FA6B                       A:00 X:02 Y:00 P:2E SP:25 PPU:345,204 CYC:20179
FACF  46 FE     LSR $FE = 00                    A:00 X:02 Y:00 P:2E SP:25 PPU:  9,205 CYC:20181
FAD1  B0 B0     BCS $FA83                       A:00 X:02 Y:00 P:2E SP:25 PPU: 17,205 CYC:20186
FAD3  4A        LSR A                           A:00 X:02 Y:00 P:2E SP:25 PPU: 25,205 CYC:20188
FAD4  B0 BE     BCS $FA94                       A:00 X:02 Y:00 P:2E SP:25 PPU: 33,205 CYC:20190
FAD6  46 FE     LSR $FE = 00                    A:00 X:02 Y:00 P:2E SP:25 PPU: 41,205 CYC:20192
FAD8  B0 12     BCS $FAEC                       A:00 X:02 Y:00 P:2E SP:25 PPU: 57,205 CYC:20197
FADA  4A        LSR A                           A:00 X:02 Y:00 P:2E SP:25 PPU: 57,205 CYC:20199
FADB  B0 D8     BCS $FAB5                       A:00 X:02 Y:00 P:2E SP:25 PPU: 65,205 CYC:20201
FADD  4A        LSR A                           A:00 X:02 Y:00 P:2E SP:25 PPU: 73,205 CYC:20203
FADE  B0 29     BCS $FB09                       A:00 X:02 Y:00 P:2E SP:25 PPU: 81,205 CYC:20205
FAE0  46 FE     LSR $FE = 00                    A:00 X:02 Y:00 P:2E SP:25 PPU: 81,205 CYC:20207
FAE2  B0 15     BCS $FAF9                       A:00 X:02 Y:00 P:2E SP:25 PPU: 97,205 CYC:20212
FAE4  46 FE     LSR $FE = 00                    A:00 X:02 Y:00 P:2E SP:25 PPU:105,205 CYC:20214
FAE6  B0 2F     BCS $FB17                       A:00 X:02 Y:00 P:2E SP:25 PPU:121,205 CYC:20219
FAE8  4A        LSR A                           A:00 X:02 Y:00 P:2E SP:25 PPU:129,205 CYC:20221
FAE9  B0 CA     BCS $FAB5                       A:00 X:02 Y:00 P:2E SP:25 PPU:129,205 CYC:20223
FAEB  60        RTS                             A:00 X:02 Y:00 P:2E SP:25 PPU:137,205 CYC:20225
F929  20 A1 FB  JSR $FBA1                       A:00 X:02 Y:00 P:2E SP:27 PPU:153,205 CYC:20231
FBA1  A4 FC     LDY $FC = 00                    A:00 X:02 Y:00 P:2E SP:25 PPU:177,205 CYC:20237
FBA3  A5 F2     LDA $F2 = 00                    A:00 X:02 Y:00 P:2E SP:25 PPU:185,205 CYC:20240
FBA5  46 FC     LSR $FC = 00                    A:00 X:02 Y:00 P:2E SP:25 PPU:193,205 CYC:20243
FBA7  B0 C8     BCS $FB71                       A:00 X:02 Y:00 P:2E SP:25 PPU:209,205 CYC:20248
FBA9  4A        LSR A                           A:00 X:02 Y:00 P:2E SP:25 PPU:209,205 CYC:20250
FBAA  B0 CC     BCS $FB78                       A:00 X:02 Y:00 P:2E SP:25 PPU:217,205 CYC:20252
FBAC  46 FC     LSR $FC = 00                    A:00 X:02 Y:00 P:2E SP:25 PPU:225,205 CYC:20254
FBAE  B0 0B     BCS $FBBB                       A:00 X:02 Y:00 P:2E SP:25 PPU:241,205 CYC:20259
FBB0  4A        LSR A                           A:00 X:02 Y:00 P:2E SP:25 PPU:249,205 CYC:20261
FBB1  B0 18     BCS $FBCB                       A:00 X:02 Y:00 P:2E SP:25 PPU:249,205 CYC:20263
FBB3  46 FC     LSR $FC = 00                    A:00 X:02 Y:00 P:2E SP:25 PPU:257,205 CYC:20265
FBB5  B0 24     BCS $FBDB                       A:00 X:02 Y:00 P:2E SP:25 PPU:273,205 CYC:20270
FBB7  4A        LSR A                           A:00 X:02 Y:00 P:2E SP:25 PPU:281,205 CYC:20272
FBB8  B0 31     BCS $FBEB                       A:00 X:02 Y:00 P:2E SP:25 PPU:281,205 CYC:20274
FBBA  60        RTS                             A:00 X:02 Y:00 P:2E SP:25 PPU:289,205 CYC:20276
F92C  20 FC FB  JSR $FBFC                       A:00 X:02 Y:00 P:2E SP:27 PPU:305,205 CYC:20282
FBFC  A5 FB     LDA $FB = 00                    A:00 X:02 Y:00 P:2E SP:25 PPU:323,205 CYC:20288
FBFE  D0 05     BNE $FC05                       A:00 X:02 Y:00 P:2E SP:25 PPU:332,205 CYC:20291
FC00  A5 F3     LDA $F3 = 00                    A:00 X:02 Y:00 P:2E SP:25 PPU:345,205 CYC:20293
FC02  D0 4D     BNE $FC51                       A:00 X:02 Y:00 P:2E SP:25 PPU:  9,206 CYC:20296
FC04  60        RTS                             A:00 X:02 Y:00 P:2E SP:25 PPU:  9,206 CYC:20298
F92F  A9 00     LDA #$00                        A:00 X:02 Y:00 P:2E SP:27 PPU: 33,206 CYC:20304
F931  85 FF     STA $FF = 00                    A:00 X:02 Y:00 P:2E SP:27 PPU: 33,206 CYC:20306
F933  85 FE     STA $FE = 00                    A:00 X:02 Y:00 P:2E SP:27 PPU: 41,206 CYC:20309
F935  85 FC     STA $FC = 00                    A:00 X:02 Y:00 P:2E SP:27 PPU: 57,206 CYC:20312
F937  85 FB     STA $FB = 00                    A:00 X:02 Y:00 P:2E SP:27 PPU: 65,206 CYC:20315
F939  AC 11 07  LDY $0711 = 00                  A:00 X:02 Y:00 P:2E SP:27 PPU: 73,206 CYC:20318
F93C  A5 F3     LDA $F3 = 00                    A:00 X:02 Y:00 P:2E SP:27 PPU: 81,206 CYC:20322
F93E  29 0C     AND #$0C                        A:00 X:02 Y:00 P:2E SP:27 PPU: 89,206 CYC:20325
F940  F0 07     BEQ $F949                       A:00 X:02 Y:00 P:2E SP:27 PPU: 97,206 CYC:20327
F949  98        TYA                             A:00 X:02 Y:00 P:2E SP:27 PPU:105,206 CYC:20330
F94A  F0 03     BEQ $F94F                       A:00 X:02 Y:00 P:2E SP:27 PPU:113,206 CYC:20332
F94F  8C 11 40  STY $4011 = 00                  A:00 X:02 Y:00 P:2E SP:27 PPU:121,206 CYC:20335
F952  60        RTS                             A:00 X:02 Y:00 P:2E SP:27 PPU:137,206 CYC:20339
C0C9  A5 53     LDA $53 = 00                    A:00 X:02 Y:00 P:2E SP:29 PPU:153,206 CYC:20345
C0CB  F0 06     BEQ $C0D3                       A:00 X:02 Y:00 P:2E SP:29 PPU:161,206 CYC:20348
C0D3  A5 51     LDA $51 = 01                    A:00 X:02 Y:00 P:2E SP:29 PPU:169,206 CYC:20351
C0D5  F0 4F     BEQ $C126                       A:01 X:02 Y:00 P:2C SP:29 PPU:177,206 CYC:20354
C0D7  AE 4C 03  LDX $034C = 02                  A:01 X:02 Y:00 P:2C SP:29 PPU:185,206 CYC:20356
C0DA  F0 3E     BEQ $C11A                       A:01 X:02 Y:00 P:2C SP:29 PPU:201,206 CYC:20360
C0DC  CA        DEX                             A:01 X:02 Y:00 P:2C SP:29 PPU:201,206 CYC:20362
C0DD  F0 24     BEQ $C103                       A:01 X:01 Y:00 P:2C SP:29 PPU:209,206 CYC:20364
C0DF  CA        DEX                             A:01 X:01 Y:00 P:2C SP:29 PPU:217,206 CYC:20366
C0E0  D0 1E     BNE $C100                       A:01 X:00 Y:00 P:2E SP:29 PPU:225,206 CYC:20368
C0E2  A5 11     LDA $11 = 1F                    A:01 X:00 Y:00 P:2E SP:29 PPU:225,206 CYC:20370
C0E4  29 EF     AND #$EF                        A:1F X:00 Y:00 P:2C SP:29 PPU:233,206 CYC:20373
C0E6  8D 01 20  STA $2001 = 1F                  A:0F X:00 Y:00 P:2C SP:29 PPU:241,206 CYC:20375
C0E9  85 11     STA $11 = 1F                    A:0F X:00 Y:00 P:2C SP:29 PPU:257,206 CYC:20379
C0EB  A5 15     LDA $15 = 00                    A:0F X:00 Y:00 P:2C SP:29 PPU:265,206 CYC:20382
C0ED  29 10     AND #$10                        A:00 X:00 Y:00 P:2E SP:29 PPU:273,206 CYC:20385
C0EF  F0 47     BEQ $C138                       A:00 X:00 Y:00 P:2E SP:29 PPU:281,206 CYC:20387
C138  20 41 C1  JSR $C141                       A:00 X:00 Y:00 P:2E SP:29 PPU:289,206 CYC:20391
C141  AD 02 20  LDA $2002 = 0F                  A:00 X:00 Y:00 P:2E SP:27 PPU:305,206 CYC:20397
C144  A5 10     LDA $10 = 11                    A:0F X:00 Y:00 P:2C SP:27 PPU:321,206 CYC:20401
C146  09 80     ORA #$80                        A:11 X:00 Y:00 P:2C SP:27 PPU:326,206 CYC:20404
C148  85 10     STA $10 = 11                    A:91 X:00 Y:00 P:AC SP:27 PPU:332,206 CYC:20406
C14A  8D 00 20  STA $2000 = 11                  A:91 X:00 Y:00 P:AC SP:27 PPU:345,206 CYC:20409
C14D  60        RTS                             A:91 X:00 Y:00 P:AC SP:27 PPU:  9,207 CYC:20413
C13B  68        PLA                             A:91 X:00 Y:00 P:AC SP:29 PPU: 33,207 CYC:20419
C13C  A8        TAY                             A:10 X:00 Y:00 P:2C SP:2A PPU: 41,207 CYC:20423
C13D  68        PLA                             A:10 X:00 Y:10 P:2C SP:2A PPU: 49,207 CYC:20425
C13E  AA        TAX                             A:2D X:00 Y:10 P:2C SP:2B PPU: 57,207 CYC:20429
C13F  68        PLA                             A:2D X:2D Y:10 P:2C SP:2B PPU: 65,207 CYC:20431
C140  40        RTI                             A:FF X:2D Y:10 P:AC SP:2C PPU: 81,207 CYC:20435
00C3  00        BRK                             A:FF X:2D Y:10 P:A8 SP:2F PPU: 97,207 CYC:20441
C076  48        PHA                             A:FF X:2D Y:10 P:AC SP:2C PPU:113,207 CYC:20448
C077  8A        TXA                             A:FF X:2D Y:10 P:AC SP:2B PPU:129,207 CYC:20451
C078  48        PHA                             A:2D X:2D Y:10 P:2C SP:2B PPU:129,207 CYC:20453
C079  98        TYA                             A:2D X:2D Y:10 P:2C SP:2A PPU:137,207 CYC:20456
C07A  48        PHA                             A:10 X:2D Y:10 P:2C SP:2A PPU:145,207 CYC:20458
C07B  A5 10     LDA $10 = 91                    A:10 X:2D Y:10 P:2C SP:29 PPU:153,207 CYC:20461
C07D  A6 DE     LDX $DE = 00                    A:91 X:2D Y:10 P:AC SP:29 PPU:161,207 CYC:20464
C07F  F0 02     BEQ $C083                       A:91 X:00 Y:10 P:2E SP:29 PPU:177,207 CYC:20467
C083  29 7F     AND #$7F                        A:91 X:00 Y:10 P:2E SP:29 PPU:185,207 CYC:20470
C085  20 48 C1  JSR $C148                       A:11 X:00 Y:10 P:2C SP:29 PPU:185,207 CYC:20472
C148  85 10     STA $10 = 91                    A:11 X:00 Y:10 P:2C SP:27 PPU:209,207 CYC:20478
C14A  8D 00 20  STA $2000 = 91                  A:11 X:00 Y:10 P:2C SP:27 PPU:217,207 CYC:20481
C14D  60        RTS                             A:11 X:00 Y:10 P:2C SP:27 PPU:225,207 CYC:20485
C088  A5 52     LDA $52 = 00                    A:11 X:00 Y:10 P:2C SP:29 PPU:249,207 CYC:20491
C08A  D0 09     BNE $C095                       A:00 X:00 Y:10 P:2E SP:29 PPU:257,207 CYC:20494
C08C  A5 11     LDA $11 = 0F                    A:00 X:00 Y:10 P:2E SP:29 PPU:257,207 CYC:20496
C08E  09 1E     ORA #$1E                        A:0F X:00 Y:10 P:2C SP:29 PPU:273,207 CYC:20499
C090  8D 01 20  STA $2001 = 0F                  A:1F X:00 Y:10 P:2C SP:29 PPU:273,207 CYC:20501
C093  85 11     STA $11 = 0F                    A:1F X:00 Y:10 P:2C SP:29 PPU:289,207 CYC:20505
C095  A9 00     LDA #$00                        A:1F X:00 Y:10 P:2C SP:29 PPU:297,207 CYC:20508
C097  8D 03 20  STA $2003 = 00                  A:00 X:00 Y:10 P:2E SP:29 PPU:305,207 CYC:20510
C09A  A9 02     LDA #$02                        A:00 X:00 Y:10 P:2E SP:29 PPU:313,207 CYC:20514
C09C  8D 14 40  STA $4014 = 00                  A:02 X:00 Y:10 P:2C SP:29 PPU:321,207 CYC:20516
C09F  A6 52     LDX $52 = 00                    A:02 X:00 Y:10 P:2C SP:29 PPU:145,212 CYC:21033
C0A1  20 50 C1  JSR $C150                       A:02 X:00 Y:10 P:2E SP:29 PPU:153,212 CYC:21036
C150  BD 00 C0  LDA $C000,X @ C000 = 01         A:02 X:00 Y:10 P:2E SP:27 PPU:177,212 CYC:21042
C153  85 00     STA $00 = 00                    A:01 X:00 Y:10 P:2C SP:27 PPU:185,212 CYC:21046
C155  BD 0A C0  LDA $C00A,X @ C00A = 03         A:01 X:00 Y:10 P:2C SP:27 PPU:193,212 CYC:21049
C158  85 01     STA $01 = 7F                    A:03 X:00 Y:10 P:2C SP:27 PPU:209,212 CYC:21053
C15A  20 78 CB  JSR $CB78                       A:03 X:00 Y:10 P:2C SP:27 PPU:217,212 CYC:21056
CB78  AE 02 20  LDX $2002 = 00                  A:03 X:00 Y:10 P:2C SP:25 PPU:233,212 CYC:21062
CB7B  A0 00     LDY #$00                        A:03 X:00 Y:10 P:2E SP:25 PPU:249,212 CYC:21066
CB7D  B1 00     LDA ($00),Y = 0301 @ 0301 = 00  A:03 X:00 Y:00 P:2E SP:25 PPU:249,212 CYC:21068
CB7F  D0 BD     BNE $CB3E                       A:00 X:00 Y:00 P:2E SP:25 PPU:265,212 CYC:21073
CB81  A5 12     LDA $12 = 01                    A:00 X:00 Y:00 P:2E SP:25 PPU:273,212 CYC:21075
CB83  8D 05 20  STA $2005 = 9F                  A:01 X:00 Y:00 P:2C SP:25 PPU:281,212 CYC:21078
CB86  A5 13     LDA $13 = 9F                    A:01 X:00 Y:00 P:2C SP:25 PPU:297,212 CYC:21082
CB88  8D 05 20  STA $2005 = 01                  A:9F X:00 Y:00 P:AC SP:25 PPU:305,212 CYC:21085
CB8B  60        RTS                             A:9F X:00 Y:00 P:AC SP:25 PPU:313,212 CYC:21089
C15D  A9 00     LDA #$00                        A:9F X:00 Y:00 P:AC SP:27 PPU:329,212 CYC:21095
C15F  8D 00 03  STA $0300 = 00                  A:00 X:00 Y:00 P:2E SP:27 PPU:335,212 CYC:21097
C162  8D 01 03  STA $0301 = 00                  A:00 X:00 Y:00 P:2E SP:27 PPU:  9,213 CYC:21101
C165  60        RTS                             A:00 X:00 Y:00 P:2E SP:27 PPU: 17,213 CYC:21105
C0A4  85 52     STA $52 = 00                    A:00 X:00 Y:00 P:2E SP:29 PPU: 33,213 CYC:21111
C0A6  85 DE     STA $DE = 00                    A:00 X:00 Y:00 P:2E SP:29 PPU: 41,213 CYC:21114
C0A8  A9 3F     LDA #$3F                        A:00 X:00 Y:00 P:2E SP:29 PPU: 57,213 CYC:21117
C0AA  8D 06 20  STA $2006 = 00                  A:3F X:00 Y:00 P:2C SP:29 PPU: 57,213 CYC:21119
C0AD  A9 00     LDA #$00                        A:3F X:00 Y:00 P:2C SP:29 PPU: 73,213 CYC:21123
C0AF  8D 06 20  STA $2006 = 3F                  A:00 X:00 Y:00 P:2E SP:29 PPU: 81,213 CYC:21125
C0B2  8D 06 20  STA $2006 = 00                  A:00 X:00 Y:00 P:2E SP:29 PPU: 89,213 CYC:21129
C0B5  8D 06 20  STA $2006 = 00                  A:00 X:00 Y:00 P:2E SP:29 PPU:105,213 CYC:21133
C0B8  AD 02 20  LDA $2002 = 00                  A:00 X:00 Y:00 P:2E SP:29 PPU:113,213 CYC:21137
C0BB  20 81 CB  JSR $CB81                       A:00 X:00 Y:00 P:2E SP:29 PPU:129,213 CYC:21141
CB81  A5 12     LDA $12 = 01                    A:00 X:00 Y:00 P:2E SP:27 PPU:145,213 CYC:21147
CB83  8D 05 20  STA $2005 = 9F                  A:01 X:00 Y:00 P:2C SP:27 PPU:153,213 CYC:21150
CB86  A5 13     LDA $13 = 9F                    A:01 X:00 Y:00 P:2C SP:27 PPU:161,213 CYC:21154
CB88  8D 05 20  STA $2005 = 01                  A:9F X:00 Y:00 P:AC SP:27 PPU:177,213 CYC:21157
CB8B  60        RTS                             A:9F X:00 Y:00 P:AC SP:27 PPU:185,213 CYC:21161
C0BE  A5 10     LDA $10 = 11                    A:9F X:00 Y:00 P:AC SP:29 PPU:201,213 CYC:21167
C0C0  8D 00 20  STA $2000 = 11                  A:11 X:00 Y:00 P:2C SP:29 PPU:209,213 CYC:21170
C0C3  20 ED CA  JSR $CAED                       A:11 X:00 Y:00 P:2C SP:29 PPU:225,213 CYC:21174
CAED  20 35 CB  JSR $CB35                       A:11 X:00 Y:00 P:2C SP:27 PPU:241,213 CYC:21180
CB35  A9 7F     LDA #$7F                        A:11 X:00 Y:00 P:2C SP:25 PPU:257,213 CYC:21186
CB37  85 01     STA $01 = 03                    A:7F X:00 Y:00 P:2C SP:25 PPU:265,213 CYC:21188
CB39  A9 80     LDA #$80                        A:7F X:00 Y:00 P:2C SP:25 PPU:273,213 CYC:21191
CB3B  85 02     STA $02 = 80                    A:80 X:00 Y:00 P:AC SP:25 PPU:281,213 CYC:21193
CB3D  60        RTS                             A:80 X:00 Y:00 P:AC SP:25 PPU:289,213 CYC:21196
CAF0  A9 01     LDA #$01                        A:80 X:00 Y:00 P:AC SP:27 PPU:305,213 CYC:21202
CAF2  8D 16 40  STA $4016 = 00                  A:01 X:00 Y:00 P:2C SP:27 PPU:313,213 CYC:21204
CAF5  A2 00     LDX #$00                        A:01 X:00 Y:00 P:2C SP:27 PPU:323,213 CYC:21208
CAF7  A9 00     LDA #$00                        A:01 X:00 Y:00 P:2E SP:27 PPU:329,213 CYC:21210
CAF9  8D 16 40  STA $4016 = 00                  A:00 X:00 Y:00 P:2E SP:27 PPU:335,213 CYC:21212
CAFC  20 00 CB  JSR $CB00                       A:00 X:00 Y:00 P:2E SP:27 PPU:  9,214 CYC:21216
CB00  A0 08     LDY #$08                        A:00 X:00 Y:00 P:2E SP:25 PPU: 25,214 CYC:21222
CB02  48        PHA                             A:00 X:00 Y:08 P:2C SP:25 PPU: 33,214 CYC:21224
CB03  BD 16 40  LDA $4016,X @ 4016 = 00         A:00 X:00 Y:08 P:2C SP:24 PPU: 41,214 CYC:21227
CB06  85 00     STA $00 = 01                    A:00 X:00 Y:08 P:2E SP:24 PPU: 49,214 CYC:21231
CB08  4A        LSR A                           A:00 X:00 Y:08 P:2E SP:24 PPU: 57,214 CYC:21234
CB09  05 00     ORA $00 = 00                    A:00 X:00 Y:08 P:2E SP:24 PPU: 65,214 CYC:21236
CB0B  4A        LSR A                           A:00 X:00 Y:08 P:2E SP:24 PPU: 73,214 CYC:21239
CB0C  68        PLA                             A:00 X:00 Y:08 P:2E SP:24 PPU: 81,214 CYC:21241
CB0D  2A        ROL A                           A:00 X:00 Y:08 P:2E SP:25 PPU: 89,214 CYC:21245
CB0E  88        DEY                             A:00 X:00 Y:08 P:2E SP:25 PPU: 97,214 CYC:21247
CB0F  D0 F1     BNE $CB02                       A:00 X:00 Y:07 P:2C SP:25 PPU:105,214 CYC:21249
CB02  48        PHA                             A:00 X:00 Y:07 P:2C SP:25 PPU:113,214 CYC:21252
CB03  BD 16 40  LDA $4016,X @ 4016 = 00         A:00 X:00 Y:07 P:2C SP:24 PPU:121,214 CYC:21255
CB06  85 00     STA $00 = 00                    A:00 X:00 Y:07 P:2E SP:24 PPU:137,214 CYC:21259
CB08  4A        LSR A                           A:00 X:00 Y:07 P:2E SP:24 PPU:145,214 CYC:21262
CB09  05 00     ORA $00 = 00                    A:00 X:00 Y:07 P:2E SP:24 PPU:153,214 CYC:21264
CB0B  4A        LSR A                           A:00 X:00 Y:07 P:2E SP:24 PPU:161,214 CYC:21267
CB0C  68        PLA                             A:00 X:00 Y:07 P:2E SP:24 PPU:161,214 CYC:21269
CB0D  2A        ROL A                           A:00 X:00 Y:07 P:2E SP:25 PPU:177,214 CYC:21273
CB0E  88        DEY                             A:00 X:00 Y:07 P:2E SP:25 PPU:185,214 CYC:21275
CB0F  D0 F1     BNE $CB02                       A:00 X:00 Y:06 P:2C SP:25 PPU:185,214 CYC:21277
CB02  48        PHA                             A:00 X:00 Y:06 P:2C SP:25 PPU:201,214 CYC:21280
CB03  BD 16 40  LDA $4016,X @ 4016 = 00         A:00 X:00 Y:06 P:2C SP:24 PPU:209,214 CYC:21283
CB06  85 00     STA $00 = 00                    A:00 X:00 Y:06 P:2E SP:24 PPU:217,214 CYC:21287
CB08  4A        LSR A                           A:00 X:00 Y:06 P:2E SP:24 PPU:225,214 CYC:21290
CB09  05 00     ORA $00 = 00                    A:00 X:00 Y:06 P:2E SP:24 PPU:233,214 CYC:21292
CB0B  4A        LSR A                           A:00 X:00 Y:06 P:2E SP:24 PPU:241,214 CYC:21295
CB0C  68        PLA                             A:00 X:00 Y:06 P:2E SP:24 PPU:249,214 CYC:21297
CB0D  2A        ROL A                           A:00 X:00 Y:06 P:2E SP:25 PPU:257,214 CYC:21301
CB0E  88        DEY                             A:00 X:00 Y:06 P:2E SP:25 PPU:265,214 CYC:21303
CB0F  D0 F1     BNE $CB02                       A:00 X:00 Y:05 P:2C SP:25 PPU:273,214 CYC:21305
CB02  48        PHA                             A:00 X:00 Y:05 P:2C SP:25 PPU:281,214 CYC:21308
CB03  BD 16 40  LDA $4016,X @ 4016 = 00         A:00 X:00 Y:05 P:2C SP:24 PPU:289,214 CYC:21311
CB06  85 00     STA $00 = 00                    A:00 X:00 Y:05 P:2E SP:24 PPU:305,214 CYC:21315
CB08  4A        LSR A                           A:00 X:00 Y:05 P:2E SP:24 PPU:313,214 CYC:21318
CB09  05 00     ORA $00 = 00                    A:00 X:00 Y:05 P:2E SP:24 PPU:321,214 CYC:21320
CB0B  4A        LSR A                           A:00 X:00 Y:05 P:2E SP:24 PPU:323,214 CYC:21323
CB0C  68        PLA                             A:00 X:00 Y:05 P:2E SP:24 PPU:329,214 CYC:21325
CB0D  2A        ROL A                           A:00 X:00 Y:05 P:2E SP:25 PPU:345,214 CYC:21329
CB0E  88        DEY                             A:00 X:00 Y:05 P:2E SP:25 PPU:  9,215 CYC:21331
CB0F  D0 F1     BNE $CB02                       A:00 X:00 Y:04 P:2C SP:25 PPU:  9,215 CYC:21333
CB02  48        PHA                             A:00 X:00 Y:04 P:2C SP:25 PPU: 17,215 CYC:21336
CB03  BD 16 40  LDA $4016,X @ 4016 = 00         A:00 X:00 Y:04 P:2C SP:24 PPU: 33,215 CYC:21339
CB06  85 00     STA $00 = 00                    A:00 X:00 Y:04 P:2E SP:24 PPU: 41,215 CYC:21343
CB08  4A        LSR A                           A:00 X:00 Y:04 P:2E SP:24 PPU: 49,215 CYC:21346
CB09  05 00     ORA $00 = 00                    A:00 X:00 Y:04 P:2E SP:24 PPU: 57,215 CYC:21348
CB0B  4A        LSR A                           A:00 X:00 Y:04 P:2E SP:24 PPU: 65,215 CYC:21351
CB0C  68        PLA                             A:00 X:00 Y:04 P:2E SP:24 PPU: 73,215 CYC:21353
CB0D  2A        ROL A                           A:00 X:00 Y:04 P:2E SP:25 PPU: 81,215 CYC:21357
CB0E  88        DEY                             A:00 X:00 Y:04 P:2E SP:25 PPU: 89,215 CYC:21359
CB0F  D0 F1     BNE $CB02                       A:00 X:00 Y:03 P:2C SP:25 PPU: 97,215 CYC:21361
CB02  48        PHA                             A:00 X:00 Y:03 P:2C SP:25 PPU:105,215 CYC:21364
CB03  BD 16 40  LDA $4016,X @ 4016 = 00         A:00 X:00 Y:03 P:2C SP:24 PPU:113,215 CYC:21367
CB06  85 00     STA $00 = 00                    A:00 X:00 Y:03 P:2E SP:24 PPU:129,215 CYC:21371
CB08  4A        LSR A                           A:00 X:00 Y:03 P:2E SP:24 PPU:137,215 CYC:21374
CB09  05 00     ORA $00 = 00                    A:00 X:00 Y:03 P:2E SP:24 PPU:137,215 CYC:21376
CB0B  4A        LSR A                           A:00 X:00 Y:03 P:2E SP:24 PPU:153,215 CYC:21379
CB0C  68        PLA                             A:00 X:00 Y:03 P:2E SP:24 PPU:153,215 CYC:21381
CB0D  2A        ROL A                           A:00 X:00 Y:03 P:2E SP:25 PPU:169,215 CYC:21385
CB0E  88        DEY                             A:00 X:00 Y:03 P:2E SP:25 PPU:177,215 CYC:21387
CB0F  D0 F1     BNE $CB02                       A:00 X:00 Y:02 P:2C SP:25 PPU:177,215 CYC:21389
CB02  48        PHA                             A:00 X:00 Y:02 P:2C SP:25 PPU:185,215 CYC:21392
CB03  BD 16 40  LDA $4016,X @ 4016 = 00         A:00 X:00 Y:02 P:2C SP:24 PPU:201,215 CYC:21395
CB06  85 00     STA $00 = 00                    A:00 X:00 Y:02 P:2E SP:24 PPU:209,215 CYC:21399
CB08  4A        LSR A                           A:00 X:00 Y:02 P:2E SP:24 PPU:217,215 CYC:21402
CB09  05 00     ORA $00 = 00                    A:00 X:00 Y:02 P:2E SP:24 PPU:225,215 CYC:21404
CB0B  4A        LSR A                           A:00 X:00 Y:02 P:2E SP:24 PPU:233,215 CYC:21407
CB0C  68        PLA                             A:00 X:00 Y:02 P:2E SP:24 PPU:241,215 CYC:21409
CB0D  2A        ROL A                           A:00 X:00 Y:02 P:2E SP:25 PPU:249,215 CYC:21413
CB0E  88        DEY                             A:00 X:00 Y:02 P:2E SP:25 PPU:257,215 CYC:21415
CB0F  D0 F1     BNE $CB02                       A:00 X:00 Y:01 P:2C SP:25 PPU:265,215 CYC:21417
CB02  48        PHA                             A:00 X:00 Y:01 P:2C SP:25 PPU:273,215 CYC:21420
CB03  BD 16 40  LDA $4016,X @ 4016 = 00         A:00 X:00 Y:01 P:2C SP:24 PPU:281,215 CYC:21423
CB06  85 00     STA $00 = 00                    A:00 X:00 Y:01 P:2E SP:24 PPU:297,215 CYC:21427
CB08  4A        LSR A                           A:00 X:00 Y:01 P:2E SP:24 PPU:305,215 CYC:21430
CB09  05 00     ORA $00 = 00                    A:00 X:00 Y:01 P:2E SP:24 PPU:305,215 CYC:21432
CB0B  4A        LSR A                           A:00 X:00 Y:01 P:2E SP:24 PPU:321,215 CYC:21435
CB0C  68        PLA                             A:00 X:00 Y:01 P:2E SP:24 PPU:321,215 CYC:21437
CB0D  2A        ROL A                           A:00 X:00 Y:01 P:2E SP:25 PPU:332,215 CYC:21441
CB0E  88        DEY                             A:00 X:00 Y:01 P:2E SP:25 PPU:345,215 CYC:21443
CB0F  D0 F1     BNE $CB02                       A:00 X:00 Y:00 P:2E SP:25 PPU:345,215 CYC:21445
CB11  86 00     STX $00 = 00                    A:00 X:00 Y:00 P:2E SP:25 PPU:  9,216 CYC:21447
CB13  06 00     ASL $00 = 00                    A:00 X:00 Y:00 P:2E SP:25 PPU: 17,216 CYC:21450
CB15  A6 00     LDX $00 = 00                    A:00 X:00 Y:00 P:2E SP:25 PPU: 33,216 CYC:21455
CB17  B4 14     LDY $14,X @ 14 = 00             A:00 X:00 Y:00 P:2E SP:25 PPU: 41,216 CYC:21458
CB19  84 00     STY $00 = 00                    A:00 X:00 Y:00 P:2E SP:25 PPU: 57,216 CYC:21462
CB1B  95 14     STA $14,X @ 14 = 00             A:00 X:00 Y:00 P:2E SP:25 PPU: 65,216 CYC:21465
CB1D  95 15     STA $15,X @ 15 = 00             A:00 X:00 Y:00 P:2E SP:25 PPU: 73,216 CYC:21469
CB1F  A0 04     LDY #$04                        A:00 X:00 Y:00 P:2E SP:25 PPU: 89,216 CYC:21473
CB21  A5 02     LDA $02 = 80                    A:00 X:00 Y:04 P:2C SP:25 PPU: 89,216 CYC:21475
CB23  24 00     BIT $00 = 00                    A:80 X:00 Y:04 P:AC SP:25 PPU:105,216 CYC:21478
CB25  F0 06     BEQ $CB2D                       A:80 X:00 Y:04 P:2E SP:25 PPU:113,216 CYC:21481
CB2D  38        SEC                             A:80 X:00 Y:04 P:2E SP:25 PPU:121,216 CYC:21484
CB2E  66 01     ROR $01 = 7F                    A:80 X:00 Y:04 P:2F SP:25 PPU:129,216 CYC:21486
CB30  46 02     LSR $02 = 80                    A:80 X:00 Y:04 P:AD SP:25 PPU:137,216 CYC:21491
CB32  88        DEY                             A:80 X:00 Y:04 P:2C SP:25 PPU:153,216 CYC:21496
CB33  D0 EC     BNE $CB21                       A:80 X:00 Y:03 P:2C SP:25 PPU:161,216 CYC:21498
CB21  A5 02     LDA $02 = 40                    A:80 X:00 Y:03 P:2C SP:25 PPU:169,216 CYC:21501
CB23  24 00     BIT $00 = 00                    A:40 X:00 Y:03 P:2C SP:25 PPU:177,216 CYC:21504
CB25  F0 06     BEQ $CB2D                       A:40 X:00 Y:03 P:2E SP:25 PPU:185,216 CYC:21507
CB2D  38        SEC                             A:40 X:00 Y:03 P:2E SP:25 PPU:201,216 CYC:21510
CB2E  66 01     ROR $01 = BF                    A:40 X:00 Y:03 P:2F SP:25 PPU:201,216 CYC:21512
CB30  46 02     LSR $02 = 40                    A:40 X:00 Y:03 P:AD SP:25 PPU:217,216 CYC:21517
CB32  88        DEY                             A:40 X:00 Y:03 P:2C SP:25 PPU:233,216 CYC:21522
CB33  D0 EC     BNE $CB21                       A:40 X:00 Y:02 P:2C SP:25 PPU:241,216 CYC:21524
CB21  A5 02     LDA $02 = 20                    A:40 X:00 Y:02 P:2C SP:25 PPU:249,216 CYC:21527
CB23  24 00     BIT $00 = 00                    A:20 X:00 Y:02 P:2C SP:25 PPU:257,216 CYC:21530
CB25  F0 06     BEQ $CB2D                       A:20 X:00 Y:02 P:2E SP:25 PPU:265,216 CYC:21533
CB2D  38        SEC                             A:20 X:00 Y:02 P:2E SP:25 PPU:273,216 CYC:21536
CB2E  66 01     ROR $01 = DF                    A:20 X:00 Y:02 P:2F SP:25 PPU:281,216 CYC:21538
CB30  46 02     LSR $02 = 20                    A:20 X:00 Y:02 P:AD SP:25 PPU:297,216 CYC:21543
CB32  88        DEY                             A:20 X:00 Y:02 P:2C SP:25 PPU:313,216 CYC:21548
CB33  D0 EC     BNE $CB21                       A:20 X:00 Y:01 P:2C SP:25 PPU:321,216 CYC:21550
CB21  A5 02     LDA $02 = 10                    A:20 X:00 Y:01 P:2C SP:25 PPU:323,216 CYC:21553
CB23  24 00     BIT $00 = 00                    A:10 X:00 Y:01 P:2C SP:25 PPU:332,216 CYC:21556
CB25  F0 06     BEQ $CB2D                       A:10 X:00 Y:01 P:2E SP:25 PPU:345,216 CYC:21559
CB2D  38        SEC                             A:10 X:00 Y:01 P:2E SP:25 PPU:  9,217 CYC:21562
CB2E  66 01     ROR $01 = EF                    A:10 X:00 Y:01 P:2F SP:25 PPU: 17,217 CYC:21564
CB30  46 02     LSR $02 = 10                    A:10 X:00 Y:01 P:AD SP:25 PPU: 33,217 CYC:21569
CB32  88        DEY                             A:10 X:00 Y:01 P:2C SP:25 PPU: 41,217 CYC:21574
CB33  D0 EC     BNE $CB21                       A:10 X:00 Y:00 P:2E SP:25 PPU: 49,217 CYC:21576
CB35  A9 7F     LDA #$7F                        A:10 X:00 Y:00 P:2E SP:25 PPU: 57,217 CYC:21578
CB37  85 01     STA $01 = F7                    A:7F X:00 Y:00 P:2C SP:25 PPU: 65,217 CYC:21580
CB39  A9 80     LDA #$80                        A:7F X:00 Y:00 P:2C SP:25 PPU: 73,217 CYC:21583
CB3B  85 02     STA $02 = 08                    A:80 X:00 Y:00 P:AC SP:25 PPU: 81,217 CYC:21585
CB3D  60        RTS                             A:80 X:00 Y:00 P:AC SP:25 PPU: 89,217 CYC:21588
CAFF  E8        INX                             A:80 X:00 Y:00 P:AC SP:27 PPU:105,217 CYC:21594
CB00  A0 08     LDY #$08                        A:80 X:01 Y:00 P:2C SP:27 PPU:113,217 CYC:21596
CB02  48        PHA                             A:80 X:01 Y:08 P:2C SP:27 PPU:113,217 CYC:21598
CB03  BD 16 40  LDA $4016,X @ 4017 = 00         A:80 X:01 Y:08 P:2C SP:26 PPU:129,217 CYC:21601
CB06  85 00     STA $00 = 00                    A:00 X:01 Y:08 P:2E SP:26 PPU:137,217 CYC:21605
CB08  4A        LSR A                           A:00 X:01 Y:08 P:2E SP:26 PPU:145,217 CYC:21608
CB09  05 00     ORA $00 = 00                    A:00 X:01 Y:08 P:2E SP:26 PPU:153,217 CYC:21610
CB0B  4A        LSR A                           A:00 X:01 Y:08 P:2E SP:26 PPU:161,217 CYC:21613
CB0C  68        PLA                             A:00 X:01 Y:08 P:2E SP:26 PPU:169,217 CYC:21615
CB0D  2A        ROL A                           A:80 X:01 Y:08 P:AC SP:27 PPU:177,217 CYC:21619
CB0E  88        DEY                             A:00 X:01 Y:08 P:2F SP:27 PPU:185,217 CYC:21621
CB0F  D0 F1     BNE $CB02                       A:00 X:01 Y:07 P:2D SP:27 PPU:193,217 CYC:21623
CB02  48        PHA                             A:00 X:01 Y:07 P:2D SP:27 PPU:201,217 CYC:21626
CB03  BD 16 40  LDA $4016,X @ 4017 = 00         A:00 X:01 Y:07 P:2D SP:26 PPU:209,217 CYC:21629
CB06  85 00     STA $00 = 00                    A:00 X:01 Y:07 P:2F SP:26 PPU:225,217 CYC:21633
CB08  4A        LSR A                           A:00 X:01 Y:07 P:2F SP:26 PPU:233,217 CYC:21636
CB09  05 00     ORA $00 = 00                    A:00 X:01 Y:07 P:2E SP:26 PPU:233,217 CYC:21638
CB0B  4A        LSR A                           A:00 X:01 Y:07 P:2E SP:26 PPU:249,217 CYC:21641
CB0C  68        PLA                             A:00 X:01 Y:07 P:2E SP:26 PPU:249,217 CYC:21643
CB0D  2A        ROL A                           A:00 X:01 Y:07 P:2E SP:27 PPU:265,217 CYC:21647
CB0E  88        DEY                             A:00 X:01 Y:07 P:2E SP:27 PPU:273,217 CYC:21649
CB0F  D0 F1     BNE $CB02                       A:00 X:01 Y:06 P:2C SP:27 PPU:273,217 CYC:21651
CB02  48        PHA                             A:00 X:01 Y:06 P:2C SP:27 PPU:281,217 CYC:21654
CB03  BD 16 40  LDA $4016,X @ 4017 = 00         A:00 X:01 Y:06 P:2C SP:26 PPU:297,217 CYC:21657
CB06  85 00     STA $00 = 00                    A:00 X:01 Y:06 P:2E SP:26 PPU:305,217 CYC:21661
CB08  4A        LSR A                           A:00 X:01 Y:06 P:2E SP:26 PPU:313,217 CYC:21664
CB09  05 00     ORA $00 = 00                    A:00 X:01 Y:06 P:2E SP:26 PPU:321,217 CYC:21666
CB0B  4A        LSR A                           A:00 X:01 Y:06 P:2E SP:26 PPU:326,217 CYC:21669
CB0C  68        PLA                             A:00 X:01 Y:06 P:2E SP:26 PPU:332,217 CYC:21671
CB0D  2A        ROL A                           A:00 X:01 Y:06 P:2E SP:27 PPU:345,217 CYC:21675
CB0E  88        DEY                             A:00 X:01 Y:06 P:2E SP:27 PPU:  9,218 CYC:21677
CB0F  D0 F1     BNE $CB02                       A:00 X:01 Y:05 P:2C SP:27 PPU: 17,218 CYC:21679
CB02  48        PHA                             A:00 X:01 Y:05 P:2C SP:27 PPU: 25,218 CYC:21682
CB03  BD 16 40  LDA $4016,X @ 4017 = 00         A:00 X:01 Y:05 P:2C SP:26 PPU: 33,218 CYC:21685
CB06  85 00     STA $00 = 00                    A:00 X:01 Y:05 P:2E SP:26 PPU: 41,218 CYC:21689
CB08  4A        LSR A                           A:00 X:01 Y:05 P:2E SP:26 PPU: 57,218 CYC:21692
CB09  05 00     ORA $00 = 00                    A:00 X:01 Y:05 P:2E SP:26 PPU: 57,218 CYC:21694
CB0B  4A        LSR A                           A:00 X:01 Y:05 P:2E SP:26 PPU: 65,218 CYC:21697
CB0C  68        PLA                             A:00 X:01 Y:05 P:2E SP:26 PPU: 73,218 CYC:21699
CB0D  2A        ROL A                           A:00 X:01 Y:05 P:2E SP:27 PPU: 89,218 CYC:21703
CB0E  88        DEY                             A:00 X:01 Y:05 P:2E SP:27 PPU: 89,218 CYC:21705
CB0F  D0 F1     BNE $CB02                       A:00 X:01 Y:04 P:2C SP:27 PPU: 97,218 CYC:21707
CB02  48        PHA                             A:00 X:01 Y:04 P:2C SP:27 PPU:105,218 CYC:21710
CB03  BD 16 40  LDA $4016,X @ 4017 = 00         A:00 X:01 Y:04 P:2C SP:26 PPU:113,218 CYC:21713
CB06  85 00     STA $00 = 00                    A:00 X:01 Y:04 P:2E SP:26 PPU:129,218 CYC:21717
CB08  4A        LSR A                           A:00 X:01 Y:04 P:2E SP:26 PPU:137,218 CYC:21720
CB09  05 00     ORA $00 = 00                    A:00 X:01 Y:04 P:2E SP:26 PPU:145,218 CYC:21722
CB0B  4A        LSR A                           A:00 X:01 Y:04 P:2E SP:26 PPU:153,218 CYC:21725
CB0C  68        PLA                             A:00 X:01 Y:04 P:2E SP:26 PPU:161,218 CYC:21727
CB0D  2A        ROL A                           A:00 X:01 Y:04 P:2E SP:27 PPU:169,218 CYC:21731
CB0E  88        DEY                             A:00 X:01 Y:04 P:2E SP:27 PPU:177,218 CYC:21733
CB0F  D0 F1     BNE $CB02                       A:00 X:01 Y:03 P:2C SP:27 PPU:185,218 CYC:21735
CB02  48        PHA                             A:00 X:01 Y:03 P:2C SP:27 PPU:193,218 CYC:21738
CB03  BD 16 40  LDA $4016,X @ 4017 = 00         A:00 X:01 Y:03 P:2C SP:26 PPU:201,218 CYC:21741
CB06  85 00     STA $00 = 00                    A:00 X:01 Y:03 P:2E SP:26 PPU:209,218 CYC:21745
CB08  4A        LSR A                           A:00 X:01 Y:03 P:2E SP:26 PPU:225,218 CYC:21748
CB09  05 00     ORA $00 = 00                    A:00 X:01 Y:03 P:2E SP:26 PPU:225,218 CYC:21750
CB0B  4A        LSR A                           A:00 X:01 Y:03 P:2E SP:26 PPU:233,218 CYC:21753
CB0C  68        PLA                             A:00 X:01 Y:03 P:2E SP:26 PPU:241,218 CYC:21755
CB0D  2A        ROL A                           A:00 X:01 Y:03 P:2E SP:27 PPU:257,218 CYC:21759
CB0E  88        DEY                             A:00 X:01 Y:03 P:2E SP:27 PPU:257,218 CYC:21761
CB0F  D0 F1     BNE $CB02                       A:00 X:01 Y:02 P:2C SP:27 PPU:265,218 CYC:21763
CB02  48        PHA                             A:00 X:01 Y:02 P:2C SP:27 PPU:273,218 CYC:21766
CB03  BD 16 40  LDA $4016,X @ 4017 = 00         A:00 X:01 Y:02 P:2C SP:26 PPU:281,218 CYC:21769
CB06  85 00     STA $00 = 00                    A:00 X:01 Y:02 P:2E SP:26 PPU:297,218 CYC:21773
CB08  4A        LSR A                           A:00 X:01 Y:02 P:2E SP:26 PPU:305,218 CYC:21776
CB09  05 00     ORA $00 = 00                    A:00 X:01 Y:02 P:2E SP:26 PPU:313,218 CYC:21778
CB0B  4A        LSR A                           A:00 X:01 Y:02 P:2E SP:26 PPU:321,218 CYC:21781
CB0C  68        PLA                             A:00 X:01 Y:02 P:2E SP:26 PPU:323,218 CYC:21783
CB0D  2A        ROL A                           A:00 X:01 Y:02 P:2E SP:27 PPU:335,218 CYC:21787
CB0E  88        DEY                             A:00 X:01 Y:02 P:2E SP:27 PPU:345,218 CYC:21789
CB0F  D0 F1     BNE $CB02                       A:00 X:01 Y:01 P:2C SP:27 PPU:  9,219 CYC:21791
CB02  48        PHA                             A:00 X:01 Y:01 P:2C SP:27 PPU: 17,219 CYC:21794
CB03  BD 16 40  LDA $4016,X @ 4017 = 00         A:00 X:01 Y:01 P:2C SP:26 PPU: 25,219 CYC:21797
CB06  85 00     STA $00 = 00                    A:00 X:01 Y:01 P:2E SP:26 PPU: 33,219 CYC:21801
CB08  4A        LSR A                           A:00 X:01 Y:01 P:2E SP:26 PPU: 41,219 CYC:21804
CB09  05 00     ORA $00 = 00                    A:00 X:01 Y:01 P:2E SP:26 PPU: 49,219 CYC:21806
CB0B  4A        LSR A                           A:00 X:01 Y:01 P:2E SP:26 PPU: 57,219 CYC:21809
CB0C  68        PLA                             A:00 X:01 Y:01 P:2E SP:26 PPU: 65,219 CYC:21811
CB0D  2A        ROL A                           A:00 X:01 Y:01 P:2E SP:27 PPU: 81,219 CYC:21815
CB0E  88        DEY                             A:00 X:01 Y:01 P:2E SP:27 PPU: 81,219 CYC:21817
CB0F  D0 F1     BNE $CB02                       A:00 X:01 Y:00 P:2E SP:27 PPU: 89,219 CYC:21819
CB11  86 00     STX $00 = 00                    A:00 X:01 Y:00 P:2E SP:27 PPU: 97,219 CYC:21821
CB13  06 00     ASL $00 = 01                    A:00 X:01 Y:00 P:2E SP:27 PPU:105,219 CYC:21824
CB15  A6 00     LDX $00 = 02                    A:00 X:01 Y:00 P:2C SP:27 PPU:121,219 CYC:21829
CB17  B4 14     LDY $14,X @ 16 = 00             A:00 X:02 Y:00 P:2C SP:27 PPU:129,219 CYC:21832
CB19  84 00     STY $00 = 02                    A:00 X:02 Y:00 P:2E SP:27 PPU:137,219 CYC:21836
CB1B  95 14     STA $14,X @ 16 = 00             A:00 X:02 Y:00 P:2E SP:27 PPU:153,219 CYC:21839
CB1D  95 15     STA $15,X @ 17 = 00             A:00 X:02 Y:00 P:2E SP:27 PPU:161,219 CYC:21843
CB1F  A0 04     LDY #$04                        A:00 X:02 Y:00 P:2E SP:27 PPU:177,219 CYC:21847
CB21  A5 02     LDA $02 = 80                    A:00 X:02 Y:04 P:2C SP:27 PPU:177,219 CYC:21849
CB23  24 00     BIT $00 = 00                    A:80 X:02 Y:04 P:AC SP:27 PPU:185,219 CYC:21852
CB25  F0 06     BEQ $CB2D                       A:80 X:02 Y:04 P:2E SP:27 PPU:201,219 CYC:21855
CB2D  38        SEC                             A:80 X:02 Y:04 P:2E SP:27 PPU:209,219 CYC:21858
CB2E  66 01     ROR $01 = 7F                    A:80 X:02 Y:04 P:2F SP:27 PPU:209,219 CYC:21860
CB30  46 02     LSR $02 = 80                    A:80 X:02 Y:04 P:AD SP:27 PPU:225,219 CYC:21865
CB32  88        DEY                             A:80 X:02 Y:04 P:2C SP:27 PPU:241,219 CYC:21870
CB33  D0 EC     BNE $CB21                       A:80 X:02 Y:03 P:2C SP:27 PPU:249,219 CYC:21872
CB21  A5 02     LDA $02 = 40                    A:80 X:02 Y:03 P:2C SP:27 PPU:257,219 CYC:21875
CB23  24 00     BIT $00 = 00                    A:40 X:02 Y:03 P:2C SP:27 PPU:265,219 CYC:21878
CB25  F0 06     BEQ $CB2D                       A:40 X:02 Y:03 P:2E SP:27 PPU:273,219 CYC:21881
CB2D  38        SEC                             A:40 X:02 Y:03 P:2E SP:27 PPU:281,219 CYC:21884
CB2E  66 01     ROR $01 = BF                    A:40 X:02 Y:03 P:2F SP:27 PPU:289,219 CYC:21886
CB30  46 02     LSR $02 = 40                    A:40 X:02 Y:03 P:AD SP:27 PPU:305,219 CYC:21891
CB32  88        DEY                             A:40 X:02 Y:03 P:2C SP:27 PPU:321,219 CYC:21896
CB33  D0 EC     BNE $CB21                       A:40 X:02 Y:02 P:2C SP:27 PPU:323,219 CYC:21898
CB21  A5 02     LDA $02 = 20                    A:40 X:02 Y:02 P:2C SP:27 PPU:332,219 CYC:21901
CB23  24 00     BIT $00 = 00                    A:20 X:02 Y:02 P:2C SP:27 PPU:345,219 CYC:21904
CB25  F0 06     BEQ $CB2D                       A:20 X:02 Y:02 P:2E SP:27 PPU:  9,220 CYC:21907
CB2D  38        SEC                             A:20 X:02 Y:02 P:2E SP:27 PPU: 17,220 CYC:21910
CB2E  66 01     ROR $01 = DF                    A:20 X:02 Y:02 P:2F SP:27 PPU: 25,220 CYC:21912
CB30  46 02     LSR $02 = 20                    A:20 X:02 Y:02 P:AD SP:27 PPU: 41,220 CYC:21917
CB32  88        DEY                             A:20 X:02 Y:02 P:2C SP:27 PPU: 57,220 CYC:21922
CB33  D0 EC     BNE $CB21                       A:20 X:02 Y:01 P:2C SP:27 PPU: 57,220 CYC:21924
CB21  A5 02     LDA $02 = 10                    A:20 X:02 Y:01 P:2C SP:27 PPU: 65,220 CYC:21927
CB23  24 00     BIT $00 = 00                    A:10 X:02 Y:01 P:2C SP:27 PPU: 81,220 CYC:21930
CB25  F0 06     BEQ $CB2D                       A:10 X:02 Y:01 P:2E SP:27 PPU: 89,220 CYC:21933
CB2D  38        SEC                             A:10 X:02 Y:01 P:2E SP:27 PPU: 97,220 CYC:21936
CB2E  66 01     ROR $01 = EF                    A:10 X:02 Y:01 P:2F SP:27 PPU:105,220 CYC:21938
CB30  46 02     LSR $02 = 10                    A:10 X:02 Y:01 P:AD SP:27 PPU:113,220 CYC:21943
CB32  88        DEY                             A:10 X:02 Y:01 P:2C SP:27 PPU:129,220 CYC:21948
CB33  D0 EC     BNE $CB21                       A:10 X:02 Y:00 P:2E SP:27 PPU:137,220 CYC:21950
CB35  A9 7F     LDA #$7F                        A:10 X:02 Y:00 P:2E SP:27 PPU:145,220 CYC:21952
CB37  85 01     STA $01 = F7                    A:7F X:02 Y:00 P:2C SP:27 PPU:153,220 CYC:21954
CB39  A9 80     LDA #$80                        A:7F X:02 Y:00 P:2C SP:27 PPU:161,220 CYC:21957
CB3B  85 02     STA $02 = 08                    A:80 X:02 Y:00 P:AC SP:27 PPU:161,220 CYC:21959
CB3D  60        RTS                             A:80 X:02 Y:00 P:AC SP:27 PPU:177,220 CYC:21962
C0C6  20 1E F9  JSR $F91E                       A:80 X:02 Y:00 P:AC SP:29 PPU:193,220 CYC:21968
F91E  A9 FF     LDA #$FF                        A:80 X:02 Y:00 P:AC SP:27 PPU:209,220 CYC:21974
F920  8D 17 40  STA $4017 = 00                  A:FF X:02 Y:00 P:AC SP:27 PPU:217,220 CYC:21976
F923  20 EB F9  JSR $F9EB                       A:FF X:02 Y:00 P:AC SP:27 PPU:225,220 CYC:21980
F9EB  A4 FF     LDY $FF = 00                    A:FF X:02 Y:00 P:AC SP:25 PPU:249,220 CYC:21986
F9ED  A5 F0     LDA $F0 = 00                    A:FF X:02 Y:00 P:2E SP:25 PPU:257,220 CYC:21989
F9EF  46 FF     LSR $FF = 00                    A:00 X:02 Y:00 P:2E SP:25 PPU:265,220 CYC:21992
F9F1  B0 B8     BCS $F9AB                       A:00 X:02 Y:00 P:2E SP:25 PPU:281,220 CYC:21997
F9F3  4A        LSR A                           A:00 X:02 Y:00 P:2E SP:25 PPU:281,220 CYC:21999
F9F4  B0 BB     BCS $F9B1                       A:00 X:02 Y:00 P:2E SP:25 PPU:289,220 CYC:22001
F9F6  46 FF     LSR $FF = 00                    A:00 X:02 Y:00 P:2E SP:25 PPU:297,220 CYC:22003
F9F8  B0 CE     BCS $F9C8                       A:00 X:02 Y:00 P:2E SP:25 PPU:313,220 CYC:22008
F9FA  4A        LSR A                           A:00 X:02 Y:00 P:2E SP:25 PPU:321,220 CYC:22010
F9FB  B0 D3     BCS $F9D0                       A:00 X:02 Y:00 P:2E SP:25 PPU:321,220 CYC:22012
F9FD  46 FF     LSR $FF = 00                    A:00 X:02 Y:00 P:2E SP:25 PPU:326,220 CYC:22014
F9FF  B0 0B     BCS $FA0C                       A:00 X:02 Y:00 P:2E SP:25 PPU:345,220 CYC:22019
FA01  4A        LSR A                           A:00 X:02 Y:00 P:2E SP:25 PPU:  9,221 CYC:22021
FA02  B0 17     BCS $FA1B                       A:00 X:02 Y:00 P:2E SP:25 PPU:  9,221 CYC:22023
FA04  46 FF     LSR $FF = 00                    A:00 X:02 Y:00 P:2E SP:25 PPU: 17,221 CYC:22025
FA06  B0 38     BCS $FA40                       A:00 X:02 Y:00 P:2E SP:25 PPU: 33,221 CYC:22030
FA08  4A        LSR A                           A:00 X:02 Y:00 P:2E SP:25 PPU: 41,221 CYC:22032
FA09  B0 3F     BCS $FA4A                       A:00 X:02 Y:00 P:2E SP:25 PPU: 41,221 CYC:22034
FA0B  60        RTS                             A:00 X:02 Y:00 P:2E SP:25 PPU: 49,221 CYC:22036
F926  20 C4 FA  JSR $FAC4                       A:00 X:02 Y:00 P:2E SP:27 PPU: 65,221 CYC:22042
FAC4  A4 FE     LDY $FE = 00                    A:00 X:02 Y:00 P:2E SP:25 PPU: 89,221 CYC:22048
FAC6  A5 F1     LDA $F1 = 00                    A:00 X:02 Y:00 P:2E SP:25 PPU: 97,221 CYC:22051
FAC8  46 FE     LSR $FE = 00                    A:00 X:02 Y:00 P:2E SP:25 PPU:105,221 CYC:22054
FACA  B0 98     BCS $FA64                       A:00 X:02 Y:00 P:2E SP:25 PPU:121,221 CYC:22059
FACC  4A        LSR A                           A:00 X:02 Y:00 P:2E SP:25 PPU:129,221 CYC:22061
FACD  B0 9C     BCS $FA6B                       A:00 X:02 Y:00 P:2E SP:25 PPU:129,221 CYC:22063
FACF  46 FE     LSR $FE = 00                    A:00 X:02 Y:00 P:2E SP:25 PPU:137,221 CYC:22065
FAD1  B0 B0     BCS $FA83                       A:00 X:02 Y:00 P:2E SP:25 PPU:153,221 CYC:22070
FAD3  4A        LSR A                           A:00 X:02 Y:00 P:2E SP:25 PPU:161,221 CYC:22072
FAD4  B0 BE     BCS $FA94                       A:00 X:02 Y:00 P:2E SP:25 PPU:161,221 CYC:22074
FAD6  46 FE     LSR $FE = 00                    A:00 X:02 Y:00 P:2E SP:25 PPU:169,221 CYC:22076
FAD8  B0 12     BCS $FAEC                       A:00 X:02 Y:00 P:2E SP:25 PPU:185,221 CYC:22081
FADA  4A        LSR A                           A:00 X:02 Y:00 P:2E SP:25 PPU:193,221 CYC:22083
FADB  B0 D8     BCS $FAB5                       A:00 X:02 Y:00 P:2E SP:25 PPU:201,221 CYC:22085
FADD  4A        LSR A                           A:00 X:02 Y:00 P:2E SP:25 PPU:201,221 CYC:22087
FADE  B0 29     BCS $FB09                       A:00 X:02 Y:00 P:2E SP:25 PPU:209,221 CYC:22089
FAE0  46 FE     LSR $FE = 00                    A:00 X:02 Y:00 P:2E SP:25 PPU:217,221 CYC:22091
FAE2  B0 15     BCS $FAF9                       A:00 X:02 Y:00 P:2E SP:25 PPU:233,221 CYC:22096
FAE4  46 FE     LSR $FE = 00                    A:00 X:02 Y:00 P:2E SP:25 PPU:233,221 CYC:22098
FAE6  B0 2F     BCS $FB17                       A:00 X:02 Y:00 P:2E SP:25 PPU:249,221 CYC:22103
FAE8  4A        LSR A                           A:00 X:02 Y:00 P:2E SP:25 PPU:257,221 CYC:22105
FAE9  B0 CA     BCS $FAB5                       A:00 X:02 Y:00 P:2E SP:25 PPU:265,221 CYC:22107
FAEB  60        RTS                             A:00 X:02 Y:00 P:2E SP:25 PPU:273,221 CYC:22109
F929  20 A1 FB  JSR $FBA1                       A:00 X:02 Y:00 P:2E SP:27 PPU:289,221 CYC:22115
FBA1  A4 FC     LDY $FC = 00                    A:00 X:02 Y:00 P:2E SP:25 PPU:305,221 CYC:22121
FBA3  A5 F2     LDA $F2 = 00                    A:00 X:02 Y:00 P:2E SP:25 PPU:313,221 CYC:22124
FBA5  46 FC     LSR $FC = 00                    A:00 X:02 Y:00 P:2E SP:25 PPU:321,221 CYC:22127
FBA7  B0 C8     BCS $FB71                       A:00 X:02 Y:00 P:2E SP:25 PPU:335,221 CYC:22132
FBA9  4A        LSR A                           A:00 X:02 Y:00 P:2E SP:25 PPU:345,221 CYC:22134
FBAA  B0 CC     BCS $FB78                       A:00 X:02 Y:00 P:2E SP:25 PPU:  9,222 CYC:22136
FBAC  46 FC     LSR $FC = 00                    A:00 X:02 Y:00 P:2E SP:25 PPU:  9,222 CYC:22138
FBAE  B0 0B     BCS $FBBB                       A:00 X:02 Y:00 P:2E SP:25 PPU: 25,222 CYC:22143
FBB0  4A        LSR A                           A:00 X:02 Y:00 P:2E SP:25 PPU: 33,222 CYC:22145
FBB1  B0 18     BCS $FBCB                       A:00 X:02 Y:00 P:2E SP:25 PPU: 41,222 CYC:22147
FBB3  46 FC     LSR $FC = 00                    A:00 X:02 Y:00 P:2E SP:25 PPU: 41,222 CYC:22149
FBB5  B0 24     BCS $FBDB                       A:00 X:02 Y:00 P:2E SP:25 PPU: 57,222 CYC:22154
FBB7  4A        LSR A                           A:00 X:02 Y:00 P:2E SP:25 PPU: 65,222 CYC:22156
FBB8  B0 31     BCS $FBEB                       A:00 X:02 Y:00 P:2E SP:25 PPU: 73,222 CYC:22158
FBBA  60        RTS                             A:00 X:02 Y:00 P:2E SP:25 PPU: 81,222 CYC:22160
F92C  20 FC FB  JSR $FBFC                       A:00 X:02 Y:00 P:2E SP:27 PPU: 97,222 CYC:22166
FBFC  A5 FB     LDA $FB = 00                    A:00 X:02 Y:00 P:2E SP:25 PPU:113,222 CYC:22172
FBFE  D0 05     BNE $FC05                       A:00 X:02 Y:00 P:2E SP:25 PPU:121,222 CYC:22175
FC00  A5 F3     LDA $F3 = 00                    A:00 X:02 Y:00 P:2E SP:25 PPU:129,222 CYC:22177
FC02  D0 4D     BNE $FC51                       A:00 X:02 Y:00 P:2E SP:25 PPU:137,222 CYC:22180
FC04  60        RTS                             A:00 X:02 Y:00 P:2E SP:25 PPU:145,222 CYC:22182
F92F  A9 00     LDA #$00                        A:00 X:02 Y:00 P:2E SP:27 PPU:161,222 CYC:22188
F931  85 FF     STA $FF = 00                    A:00 X:02 Y:00 P:2E SP:27 PPU:169,222 CYC:22190
F933  85 FE     STA $FE = 00                    A:00 X:02 Y:00 P:2E SP:27 PPU:177,222 CYC:22193
F935  85 FC     STA $FC = 00                    A:00 X:02 Y:00 P:2E SP:27 PPU:185,222 CYC:22196
F937  85 FB     STA $FB = 00                    A:00 X:02 Y:00 P:2E SP:27 PPU:193,222 CYC:22199
F939  AC 11 07  LDY $0711 = 00                  A:00 X:02 Y:00 P:2E SP:27 PPU:201,222 CYC:22202
F93C  A5 F3     LDA $F3 = 00                    A:00 X:02 Y:00 P:2E SP:27 PPU:217,222 CYC:22206
F93E  29 0C     AND #$0C                        A:00 X:02 Y:00 P:2E SP:27 PPU:225,222 CYC:22209
F940  F0 07     BEQ $F949                       A:00 X:02 Y:00 P:2E SP:27 PPU:233,222 CYC:22211
F949  98        TYA                             A:00 X:02 Y:00 P:2E SP:27 PPU:241,222 CYC:22214
F94A  F0 03     BEQ $F94F                       A:00 X:02 Y:00 P:2E SP:27 PPU:249,222 CYC:22216
F94F  8C 11 40  STY $4011 = 00                  A:00 X:02 Y:00 P:2E SP:27 PPU:257,222 CYC:22219
F952  60        RTS                             A:00 X:02 Y:00 P:2E SP:27 PPU:265,222 CYC:22223
C0C9  A5 53     LDA $53 = 00                    A:00 X:02 Y:00 P:2E SP:29 PPU:281,222 CYC:22229
C0CB  F0 06     BEQ $C0D3                       A:00 X:02 Y:00 P:2E SP:29 PPU:297,222 CYC:22232
C0D3  A5 51     LDA $51 = 01                    A:00 X:02 Y:00 P:2E SP:29 PPU:305,222 CYC:22235
C0D5  F0 4F     BEQ $C126                       A:01 X:02 Y:00 P:2C SP:29 PPU:313,222 CYC:22238
C0D7  AE 4C 03  LDX $034C = 02                  A:01 X:02 Y:00 P:2C SP:29 PPU:321,222 CYC:22240
C0DA  F0 3E     BEQ $C11A                       A:01 X:02 Y:00 P:2C SP:29 PPU:326,222 CYC:22244
C0DC  CA        DEX                             A:01 X:02 Y:00 P:2C SP:29 PPU:332,222 CYC:22246
C0DD  F0 24     BEQ $C103                       A:01 X:01 Y:00 P:2C SP:29 PPU:345,222 CYC:22248
C0DF  CA        DEX                             A:01 X:01 Y:00 P:2C SP:29 PPU:345,222 CYC:22250
C0E0  D0 1E     BNE $C100                       A:01 X:00 Y:00 P:2E SP:29 PPU:  9,223 CYC:22252
C0E2  A5 11     LDA $11 = 1F                    A:01 X:00 Y:00 P:2E SP:29 PPU: 17,223 CYC:22254
C0E4  29 EF     AND #$EF                        A:1F X:00 Y:00 P:2C SP:29 PPU: 25,223 CYC:22257
C0E6  8D 01 20  STA $2001 = 1F                  A:0F X:00 Y:00 P:2C SP:29 PPU: 33,223 CYC:22259
C0E9  85 11     STA $11 = 1F                    A:0F X:00 Y:00 P:2C SP:29 PPU: 41,223 CYC:22263
C0EB  A5 15     LDA $15 = 00                    A:0F X:00 Y:00 P:2C SP:29 PPU: 49,223 CYC:22266
C0ED  29 10     AND #$10                        A:00 X:00 Y:00 P:2E SP:29 PPU: 57,223 CYC:22269
C0EF  F0 47     BEQ $C138                       A:00 X:00 Y:00 P:2E SP:29 PPU: 65,223 CYC:22271
C138  20 41 C1  JSR $C141                       A:00 X:00 Y:00 P:2E SP:29 PPU: 81,223 CYC:22275
C141  AD 02 20  LDA $2002 = 0F                  A:00 X:00 Y:00 P:2E SP:27 PPU: 97,223 CYC:22281
C144  A5 10     LDA $10 = 11                    A:0F X:00 Y:00 P:2C SP:27 PPU:105,223 CYC:22285
C146  09 80     ORA #$80                        A:11 X:00 Y:00 P:2C SP:27 PPU:113,223 CYC:22288
C148  85 10     STA $10 = 11                    A:91 X:00 Y:00 P:AC SP:27 PPU:121,223 CYC:22290
C14A  8D 00 20  STA $2000 = 11                  A:91 X:00 Y:00 P:AC SP:27 PPU:129,223 CYC:22293
C14D  60        RTS                             A:91 X:00 Y:00 P:AC SP:27 PPU:145,223 CYC:22297
C13B  68        PLA                             A:91 X:00 Y:00 P:AC SP:29 PPU:161,223 CYC:22303
C13C  A8        TAY                             A:10 X:00 Y:00 P:2C SP:2A PPU:177,223 CYC:22307
C13D  68        PLA                             A:10 X:00 Y:10 P:2C SP:2A PPU:177,223 CYC:22309
C13E  AA        TAX                             A:2D X:00 Y:10 P:2C SP:2B PPU:193,223 CYC:22313
C13F  68        PLA                             A:2D X:2D Y:10 P:2C SP:2B PPU:201,223 CYC:22315
C140  40        RTI                             A:FF X:2D Y:10 P:AC SP:2C PPU:209,223 CYC:22319
00C4  00        BRK                             A:FF X:2D Y:10 P:A8 SP:2F PPU:225,223 CYC:22325
C076  48        PHA                             A:FF X:2D Y:10 P:AC SP:2C PPU:249,223 CYC:22332
C077  8A        TXA                             A:FF X:2D Y:10 P:AC SP:2B PPU:257,223 CYC:22335
C078  48        PHA                             A:2D X:2D Y:10 P:2C SP:2B PPU:265,223 CYC:22337
C079  98        TYA                             A:2D X:2D Y:10 P:2C SP:2A PPU:273,223 CYC:22340
C07A  48        PHA                             A:10 X:2D Y:10 P:2C SP:2A PPU:281,223 CYC:22342
C07B  A5 10     LDA $10 = 91                    A:10 X:2D Y:10 P:2C SP:29 PPU:289,223 CYC:22345
C07D  A6 DE     LDX $DE = 00                    A:91 X:2D Y:10 P:AC SP:29 PPU:297,223 CYC:22348
C07F  F0 02     BEQ $C083                       A:91 X:00 Y:10 P:2E SP:29 PPU:305,223 CYC:22351
C083  29 7F     AND #$7F                        A:91 X:00 Y:10 P:2E SP:29 PPU:313,223 CYC:22354
C085  20 48 C1  JSR $C148                       A:11 X:00 Y:10 P:2C SP:29 PPU:321,223 CYC:22356
C148  85 10     STA $10 = 91                    A:11 X:00 Y:10 P:2C SP:27 PPU:335,223 CYC:22362
C14A  8D 00 20  STA $2000 = 91                  A:11 X:00 Y:10 P:2C SP:27 PPU:345,223 CYC:22365
C14D  60        RTS                             A:11 X:00 Y:10 P:2C SP:27 PPU: 17,224 CYC:22369
C088  A5 52     LDA $52 = 00                    A:11 X:00 Y:10 P:2C SP:29 PPU: 33,224 CYC:22375
C08A  D0 09     BNE $C095                       A:00 X:00 Y:10 P:2E SP:29 PPU: 41,224 CYC:22378
C08C  A5 11     LDA $11 = 0F                    A:00 X:00 Y:10 P:2E SP:29 PPU: 49,224 CYC:22380
C08E  09 1E     ORA #$1E                        A:0F X:00 Y:10 P:2C SP:29 PPU: 57,224 CYC:22383
C090  8D 01 20  STA $2001 = 0F                  A:1F X:00 Y:10 P:2C SP:29 PPU: 65,224 CYC:22385
C093  85 11     STA $11 = 0F                    A:1F X:00 Y:10 P:2C SP:29 PPU: 73,224 CYC:22389
C095  A9 00     LDA #$00                        A:1F X:00 Y:10 P:2C SP:29 PPU: 81,224 CYC:22392
C097  8D 03 20  STA $2003 = 00                  A:00 X:00 Y:10 P:2E SP:29 PPU: 89,224 CYC:22394
C09A  A9 02     LDA #$02                        A:00 X:00 Y:10 P:2E SP:29 PPU:105,224 CYC:22398
C09C  8D 14 40  STA $4014 = 00                  A:02 X:00 Y:10 P:2C SP:29 PPU:105,224 CYC:22400
C09F  A6 52     LDX $52 = 00                    A:02 X:00 Y:10 P:2C SP:29 PPU:281,228 CYC:22917
C0A1  20 50 C1  JSR $C150                       A:02 X:00 Y:10 P:2E SP:29 PPU:289,228 CYC:22920
C150  BD 00 C0  LDA $C000,X @ C000 = 01         A:02 X:00 Y:10 P:2E SP:27 PPU:305,228 CYC:22926
C153  85 00     STA $00 = 00                    A:01 X:00 Y:10 P:2C SP:27 PPU:321,228 CYC:22930
C155  BD 0A C0  LDA $C00A,X @ C00A = 03         A:01 X:00 Y:10 P:2C SP:27 PPU:323,228 CYC:22933
C158  85 01     STA $01 = 7F                    A:03 X:00 Y:10 P:2C SP:27 PPU:335,228 CYC:22937
C15A  20 78 CB  JSR $CB78                       A:03 X:00 Y:10 P:2C SP:27 PPU:345,228 CYC:22940
CB78  AE 02 20  LDX $2002 = 00                  A:03 X:00 Y:10 P:2C SP:25 PPU: 17,229 CYC:22946
CB7B  A0 00     LDY #$00                        A:03 X:00 Y:10 P:2E SP:25 PPU: 33,229 CYC:22950
CB7D  B1 00     LDA ($00),Y = 0301 @ 0301 = 00  A:03 X:00 Y:00 P:2E SP:25 PPU: 41,229 CYC:22952
CB7F  D0 BD     BNE $CB3E                       A:00 X:00 Y:00 P:2E SP:25 PPU: 57,229 CYC:22957
CB81  A5 12     LDA $12 = 01                    A:00 X:00 Y:00 P:2E SP:25 PPU: 57,229 CYC:22959
CB83  8D 05 20  STA $2005 = 9F                  A:01 X:00 Y:00 P:2C SP:25 PPU: 65,229 CYC:22962
CB86  A5 13     LDA $13 = 9F                    A:01 X:00 Y:00 P:2C SP:25 PPU: 81,229 CYC:22966
CB88  8D 05 20  STA $2005 = 01                  A:9F X:00 Y:00 P:AC SP:25 PPU: 89,229 CYC:22969
CB8B  60        RTS                             A:9F X:00 Y:00 P:AC SP:25 PPU:105,229 CYC:22973
C15D  A9 00     LDA #$00                        A:9F X:00 Y:00 P:AC SP:27 PPU:121,229 CYC:22979
C15F  8D 00 03  STA $0300 = 00                  A:00 X:00 Y:00 P:2E SP:27 PPU:129,229 CYC:22981
C162  8D 01 03  STA $0301 = 00                  A:00 X:00 Y:00 P:2E SP:27 PPU:137,229 CYC:22985
C165  60        RTS                             A:00 X:00 Y:00 P:2E SP:27 PPU:153,229 CYC:22989
C0A4  85 52     STA $52 = 00                    A:00 X:00 Y:00 P:2E SP:29 PPU:169,229 CYC:22995
C0A6  85 DE     STA $DE = 00                    A:00 X:00 Y:00 P:2E SP:29 PPU:177,229 CYC:22998
C0A8  A9 3F     LDA #$3F                        A:00 X:00 Y:00 P:2E SP:29 PPU:185,229 CYC:23001
C0AA  8D 06 20  STA $2006 = 00                  A:3F X:00 Y:00 P:2C SP:29 PPU:193,229 CYC:23003
C0AD  A9 00     LDA #$00                        A:3F X:00 Y:00 P:2C SP:29 PPU:201,229 CYC:23007
C0AF  8D 06 20  STA $2006 = 3F                  A:00 X:00 Y:00 P:2E SP:29 PPU:209,229 CYC:23009
C0B2  8D 06 20  STA $2006 = 00                  A:00 X:00 Y:00 P:2E SP:29 PPU:225,229 CYC:23013
C0B5  8D 06 20  STA $2006 = 00                  A:00 X:00 Y:00 P:2E SP:29 PPU:233,229 CYC:23017
C0B8  AD 02 20  LDA $2002 = 00                  A:00 X:00 Y:00 P:2E SP:29 PPU:249,229 CYC:23021
C0BB  20 81 CB  JSR $CB81                       A:00 X:00 Y:00 P:2E SP:29 PPU:257,229 CYC:23025
CB81  A5 12     LDA $12 = 01                    A:00 X:00 Y:00 P:2E SP:27 PPU:273,229 CYC:23031
CB83  8D 05 20  STA $2005 = 9F                  A:01 X:00 Y:00 P:2C SP:27 PPU:281,229 CYC:23034
CB86  A5 13     LDA $13 = 9F                    A:01 X:00 Y:00 P:2C SP:27 PPU:297,229 CYC:23038
CB88  8D 05 20  STA $2005 = 01                  A:9F X:00 Y:00 P:AC SP:27 PPU:305,229 CYC:23041
CB8B  60        RTS                             A:9F X:00 Y:00 P:AC SP:27 PPU:321,229 CYC:23045
C0BE  A5 10     LDA $10 = 11                    A:9F X:00 Y:00 P:AC SP:29 PPU:332,229 CYC:23051
C0C0  8D 00 20  STA $2000 = 11                  A:11 X:00 Y:00 P:2C SP:29 PPU:345,229 CYC:23054
C0C3  20 ED CA  JSR $CAED                       A:11 X:00 Y:00 P:2C SP:29 PPU:  9,230 CYC:23058
CAED  20 35 CB  JSR $CB35                       A:11 X:00 Y:00 P:2C SP:27 PPU: 33,230 CYC:23064
CB35  A9 7F     LDA #$7F                        A:11 X:00 Y:00 P:2C SP:25 PPU: 49,230 CYC:23070
CB37  85 01     STA $01 = 03                    A:7F X:00 Y:00 P:2C SP:25 PPU: 57,230 CYC:23072
CB39  A9 80     LDA #$80                        A:7F X:00 Y:00 P:2C SP:25 PPU: 65,230 CYC:23075
CB3B  85 02     STA $02 = 80                    A:80 X:00 Y:00 P:AC SP:25 PPU: 65,230 CYC:23077
CB3D  60        RTS                             A:80 X:00 Y:00 P:AC SP:25 PPU: 81,230 CYC:23080
CAF0  A9 01     LDA #$01                        A:80 X:00 Y:00 P:AC SP:27 PPU: 97,230 CYC:23086
CAF2  8D 16 40  STA $4016 = 00                  A:01 X:00 Y:00 P:2C SP:27 PPU:105,230 CYC:23088
CAF5  A2 00     LDX #$00                        A:01 X:00 Y:00 P:2C SP:27 PPU:113,230 CYC:23092
CAF7  A9 00     LDA #$00                        A:01 X:00 Y:00 P:2E SP:27 PPU:121,230 CYC:23094
CAF9  8D 16 40  STA $4016 = 00                  A:00 X:00 Y:00 P:2E SP:27 PPU:129,230 CYC:23096
CAFC  20 00 CB  JSR $CB00                       A:00 X:00 Y:00 P:2E SP:27 PPU:137,230 CYC:23100
CB00  A0 08     LDY #$08                        A:00 X:00 Y:00 P:2E SP:25 PPU:153,230 CYC:23106
CB02  48        PHA                             A:00 X:00 Y:08 P:2C SP:25 PPU:161,230 CYC:23108
CB03  BD 16 40  LDA $4016,X @ 4016 = 00         A:00 X:00 Y:08 P:2C SP:24 PPU:169,230 CYC:23111
CB06  85 00     STA $00 = 01                    A:00 X:00 Y:08 P:2E SP:24 PPU:185,230 CYC:23115
CB08  4A        LSR A                           A:00 X:00 Y:08 P:2E SP:24 PPU:193,230 CYC:23118
CB09  05 00     ORA $00 = 00                    A:00 X:00 Y:08 P:2E SP:24 PPU:201,230 CYC:23120
CB0B  4A        LSR A                           A:00 X:00 Y:08 P:2E SP:24 PPU:209,230 CYC:23123
CB0C  68        PLA                             A:00 X:00 Y:08 P:2E SP:24 PPU:209,230 CYC:23125
CB0D  2A        ROL A                           A:00 X:00 Y:08 P:2E SP:25 PPU:225,230 CYC:23129
CB0E  88        DEY                             A:00 X:00 Y:08 P:2E SP:25 PPU:233,230 CYC:23131
CB0F  D0 F1     BNE $CB02                       A:00 X:00 Y:07 P:2C SP:25 PPU:233,230 CYC:23133
CB02  48        PHA                             A:00 X:00 Y:07 P:2C SP:25 PPU:249,230 CYC:23136
CB03  BD 16 40  LDA $4016,X @ 4016 = 00         A:00 X:00 Y:07 P:2C SP:24 PPU:257,230 CYC:23139
CB06  85 00     STA $00 = 00                    A:00 X:00 Y:07 P:2E SP:24 PPU:265,230 CYC:23143
CB08  4A        LSR A                           A:00 X:00 Y:07 P:2E SP:24 PPU:273,230 CYC:23146
CB09  05 00     ORA $00 = 00                    A:00 X:00 Y:07 P:2E SP:24 PPU:281,230 CYC:23148
CB0B  4A        LSR A                           A:00 X:00 Y:07 P:2E SP:24 PPU:289,230 CYC:23151
CB0C  68        PLA                             A:00 X:00 Y:07 P:2E SP:24 PPU:297,230 CYC:23153
CB0D  2A        ROL A                           A:00 X:00 Y:07 P:2E SP:25 PPU:305,230 CYC:23157
CB0E  88        DEY                             A:00 X:00 Y:07 P:2E SP:25 PPU:313,230 CYC:23159
CB0F  D0 F1     BNE $CB02                       A:00 X:00 Y:06 P:2C SP:25 PPU:321,230 CYC:23161
CB02  48        PHA                             A:00 X:00 Y:06 P:2C SP:25 PPU:326,230 CYC:23164
CB03  BD 16 40  LDA $4016,X @ 4016 = 00         A:00 X:00 Y:06 P:2C SP:24 PPU:335,230 CYC:23167
CB06  85 00     STA $00 = 00                    A:00 X:00 Y:06 P:2E SP:24 PPU:  9,231 CYC:23171
CB08  4A        LSR A                           A:00 X:00 Y:06 P:2E SP:24 PPU: 17,231 CYC:23174
CB09  05 00     ORA $00 = 00                    A:00 X:00 Y:06 P:2E SP:24 PPU: 17,231 CYC:23176
CB0B  4A        LSR A                           A:00 X:00 Y:06 P:2E SP:24 PPU: 33,231 CYC:23179
CB0C  68        PLA                             A:00 X:00 Y:06 P:2E SP:24 PPU: 33,231 CYC:23181
CB0D  2A        ROL A                           A:00 X:00 Y:06 P:2E SP:25 PPU: 49,231 CYC:23185
CB0E  88        DEY                             A:00 X:00 Y:06 P:2E SP:25 PPU: 57,231 CYC:23187
CB0F  D0 F1     BNE $CB02                       A:00 X:00 Y:05 P:2C SP:25 PPU: 57,231 CYC:23189
CB02  48        PHA                             A:00 X:00 Y:05 P:2C SP:25 PPU: 65,231 CYC:23192
CB03  BD 16 40  LDA $4016,X @ 4016 = 00         A:00 X:00 Y:05 P:2C SP:24 PPU: 81,231 CYC:23195
CB06  85 00     STA $00 = 00                    A:00 X:00 Y:05 P:2E SP:24 PPU: 89,231 CYC:23199
CB08  4A        LSR A                           A:00 X:00 Y:05 P:2E SP:24 PPU: 97,231 CYC:23202
CB09  05 00     ORA $00 = 00                    A:00 X:00 Y:05 P:2E SP:24 PPU:105,231 CYC:23204
CB0B  4A        LSR A                           A:00 X:00 Y:05 P:2E SP:24 PPU:113,231 CYC:23207
CB0C  68        PLA                             A:00 X:00 Y:05 P:2E SP:24 PPU:121,231 CYC:23209
CB0D  2A        ROL A                           A:00 X:00 Y:05 P:2E SP:25 PPU:129,231 CYC:23213
CB0E  88        DEY                             A:00 X:00 Y:05 P:2E SP:25 PPU:137,231 CYC:23215
CB0F  D0 F1     BNE $CB02                       A:00 X:00 Y:04 P:2C SP:25 PPU:145,231 CYC:23217
CB02  48        PHA                             A:00 X:00 Y:04 P:2C SP:25 PPU:153,231 CYC:23220
CB03  BD 16 40  LDA $4016,X @ 4016 = 00         A:00 X:00 Y:04 P:2C SP:24 PPU:161,231 CYC:23223
CB06  85 00     STA $00 = 00                    A:00 X:00 Y:04 P:2E SP:24 PPU:177,231 CYC:23227
CB08  4A        LSR A                           A:00 X:00 Y:04 P:2E SP:24 PPU:185,231 CYC:23230
CB09  05 00     ORA $00 = 00                    A:00 X:00 Y:04 P:2E SP:24 PPU:185,231 CYC:23232
CB0B  4A        LSR A                           A:00 X:00 Y:04 P:2E SP:24 PPU:201,231 CYC:23235
CB0C  68        PLA                             A:00 X:00 Y:04 P:2E SP:24 PPU:201,231 CYC:23237
CB0D  2A        ROL A                           A:00 X:00 Y:04 P:2E SP:25 PPU:217,231 CYC:23241
CB0E  88        DEY                             A:00 X:00 Y:04 P:2E SP:25 PPU:225,231 CYC:23243
CB0F  D0 F1     BNE $CB02                       A:00 X:00 Y:03 P:2C SP:25 PPU:225,231 CYC:23245
CB02  48        PHA                             A:00 X:00 Y:03 P:2C SP:25 PPU:233,231 CYC:23248
CB03  BD 16 40  LDA $4016,X @ 4016 = 00         A:00 X:00 Y:03 P:2C SP:24 PPU:249,231 CYC:23251
CB06  85 00     STA $00 = 00                    A:00 X:00 Y:03 P:2E SP:24 PPU:257,231 CYC:23255
CB08  4A        LSR A                           A:00 X:00 Y:03 P:2E SP:24 PPU:265,231 CYC:23258
CB09  05 00     ORA $00 = 00                    A:00 X:00 Y:03 P:2E SP:24 PPU:273,231 CYC:23260
CB0B  4A        LSR A                           A:00 X:00 Y:03 P:2E SP:24 PPU:281,231 CYC:23263
CB0C  68        PLA                             A:00 X:00 Y:03 P:2E SP:24 PPU:289,231 CYC:23265
CB0D  2A        ROL A                           A:00 X:00 Y:03 P:2E SP:25 PPU:297,231 CYC:23269
CB0E  88        DEY                             A:00 X:00 Y:03 P:2E SP:25 PPU:305,231 CYC:23271
CB0F  D0 F1     BNE $CB02                       A:00 X:00 Y:02 P:2C SP:25 PPU:313,231 CYC:23273
CB02  48        PHA                             A:00 X:00 Y:02 P:2C SP:25 PPU:321,231 CYC:23276
CB03  BD 16 40  LDA $4016,X @ 4016 = 00         A:00 X:00 Y:02 P:2C SP:24 PPU:326,231 CYC:23279
CB06  85 00     STA $00 = 00                    A:00 X:00 Y:02 P:2E SP:24 PPU:345,231 CYC:23283
CB08  4A        LSR A                           A:00 X:00 Y:02 P:2E SP:24 PPU:  9,232 CYC:23286
CB09  05 00     ORA $00 = 00                    A:00 X:00 Y:02 P:2E SP:24 PPU:  9,232 CYC:23288
CB0B  4A        LSR A                           A:00 X:00 Y:02 P:2E SP:24 PPU: 17,232 CYC:23291
CB0C  68        PLA                             A:00 X:00 Y:02 P:2E SP:24 PPU: 25,232 CYC:23293
CB0D  2A        ROL A                           A:00 X:00 Y:02 P:2E SP:25 PPU: 41,232 CYC:23297
CB0E  88        DEY                             A:00 X:00 Y:02 P:2E SP:25 PPU: 41,232 CYC:23299
CB0F  D0 F1     BNE $CB02                       A:00 X:00 Y:01 P:2C SP:25 PPU: 49,232 CYC:23301
CB02  48        PHA                             A:00 X:00 Y:01 P:2C SP:25 PPU: 57,232 CYC:23304
CB03  BD 16 40  LDA $4016,X @ 4016 = 00         A:00 X:00 Y:01 P:2C SP:24 PPU: 65,232 CYC:23307
CB06  85 00     STA $00 = 00                    A:00 X:00 Y:01 P:2E SP:24 PPU: 81,232 CYC:23311
CB08  4A        LSR A                           A:00 X:00 Y:01 P:2E SP:24 PPU: 89,232 CYC:23314
CB09  05 00     ORA $00 = 00                    A:00 X:00 Y:01 P:2E SP:24 PPU: 97,232 CYC:23316
CB0B  4A        LSR A                           A:00 X:00 Y:01 P:2E SP:24 PPU:105,232 CYC:23319
CB0C  68        PLA                             A:00 X:00 Y:01 P:2E SP:24 PPU:113,232 CYC:23321
CB0D  2A        ROL A                           A:00 X:00 Y:01 P:2E SP:25 PPU:121,232 CYC:23325
CB0E  88        DEY                             A:00 X:00 Y:01 P:2E SP:25 PPU:129,232 CYC:23327
CB0F  D0 F1     BNE $CB02                       A:00 X:00 Y:00 P:2E SP:25 PPU:137,232 CYC:23329
CB11  86 00     STX $00 = 00                    A:00 X:00 Y:00 P:2E SP:25 PPU:137,232 CYC:23331
CB13  06 00     ASL $00 = 00                    A:00 X:00 Y:00 P:2E SP:25 PPU:153,232 CYC:23334
CB15  A6 00     LDX $00 = 00                    A:00 X:00 Y:00 P:2E SP:25 PPU:161,232 CYC:23339
CB17  B4 14     LDY $14,X @ 14 = 00             A:00 X:00 Y:00 P:2E SP:25 PPU:177,232 CYC:23342
CB19  84 00     STY $00 = 00                    A:00 X:00 Y:00 P:2E SP:25 PPU:185,232 CYC:23346
CB1B  95 14     STA $14,X @ 14 = 00             A:00 X:00 Y:00 P:2E SP:25 PPU:193,232 CYC:23349
CB1D  95 15     STA $15,X @ 15 = 00             A:00 X:00 Y:00 P:2E SP:25 PPU:209,232 CYC:23353
CB1F  A0 04     LDY #$04                        A:00 X:00 Y:00 P:2E SP:25 PPU:217,232 CYC:23357
CB21  A5 02     LDA $02 = 80                    A:00 X:00 Y:04 P:2C SP:25 PPU:225,232 CYC:23359
CB23  24 00     BIT $00 = 00                    A:80 X:00 Y:04 P:AC SP:25 PPU:233,232 CYC:23362
CB25  F0 06     BEQ $CB2D                       A:80 X:00 Y:04 P:2E SP:25 PPU:241,232 CYC:23365
CB2D  38        SEC                             A:80 X:00 Y:04 P:2E SP:25 PPU:249,232 CYC:23368
CB2E  66 01     ROR $01 = 7F                    A:80 X:00 Y:04 P:2F SP:25 PPU:257,232 CYC:23370
CB30  46 02     LSR $02 = 80                    A:80 X:00 Y:04 P:AD SP:25 PPU:273,232 CYC:23375
CB32  88        DEY                             A:80 X:00 Y:04 P:2C SP:25 PPU:289,232 CYC:23380
CB33  D0 EC     BNE $CB21                       A:80 X:00 Y:03 P:2C SP:25 PPU:297,232 CYC:23382
CB21  A5 02     LDA $02 = 40                    A:80 X:00 Y:03 P:2C SP:25 PPU:305,232 CYC:23385
CB23  24 00     BIT $00 = 00                    A:40 X:00 Y:03 P:2C SP:25 PPU:313,232 CYC:23388
CB25  F0 06     BEQ $CB2D                       A:40 X:00 Y:03 P:2E SP:25 PPU:321,232 CYC:23391
CB2D  38        SEC                             A:40 X:00 Y:03 P:2E SP:25 PPU:326,232 CYC:23394
CB2E  66 01     ROR $01 = BF                    A:40 X:00 Y:03 P:2F SP:25 PPU:332,232 CYC:23396
CB30  46 02     LSR $02 = 40                    A:40 X:00 Y:03 P:AD SP:25 PPU:  9,233 CYC:23401
CB32  88        DEY                             A:40 X:00 Y:03 P:2C SP:25 PPU: 17,233 CYC:23406
CB33  D0 EC     BNE $CB21                       A:40 X:00 Y:02 P:2C SP:25 PPU: 25,233 CYC:23408
CB21  A5 02     LDA $02 = 20                    A:40 X:00 Y:02 P:2C SP:25 PPU: 33,233 CYC:23411
CB23  24 00     BIT $00 = 00                    A:20 X:00 Y:02 P:2C SP:25 PPU: 41,233 CYC:23414
CB25  F0 06     BEQ $CB2D                       A:20 X:00 Y:02 P:2E SP:25 PPU: 57,233 CYC:23417
CB2D  38        SEC                             A:20 X:00 Y:02 P:2E SP:25 PPU: 65,233 CYC:23420
CB2E  66 01     ROR $01 = DF                    A:20 X:00 Y:02 P:2F SP:25 PPU: 65,233 CYC:23422
CB30  46 02     LSR $02 = 20                    A:20 X:00 Y:02 P:AD SP:25 PPU: 81,233 CYC:23427
CB32  88        DEY                             A:20 X:00 Y:02 P:2C SP:25 PPU: 97,233 CYC:23432
CB33  D0 EC     BNE $CB21                       A:20 X:00 Y:01 P:2C SP:25 PPU:105,233 CYC:23434
CB21  A5 02     LDA $02 = 10                    A:20 X:00 Y:01 P:2C SP:25 PPU:113,233 CYC:23437
CB23  24 00     BIT $00 = 00                    A:10 X:00 Y:01 P:2C SP:25 PPU:121,233 CYC:23440
CB25  F0 06     BEQ $CB2D                       A:10 X:00 Y:01 P:2E SP:25 PPU:129,233 CYC:23443
CB2D  38        SEC                             A:10 X:00 Y:01 P:2E SP:25 PPU:137,233 CYC:23446
CB2E  66 01     ROR $01 = EF                    A:10 X:00 Y:01 P:2F SP:25 PPU:145,233 CYC:23448
CB30  46 02     LSR $02 = 10                    A:10 X:00 Y:01 P:AD SP:25 PPU:161,233 CYC:23453
CB32  88        DEY                             A:10 X:00 Y:01 P:2C SP:25 PPU:177,233 CYC:23458
CB33  D0 EC     BNE $CB21                       A:10 X:00 Y:00 P:2E SP:25 PPU:185,233 CYC:23460
CB35  A9 7F     LDA #$7F                        A:10 X:00 Y:00 P:2E SP:25 PPU:185,233 CYC:23462
CB37  85 01     STA $01 = F7                    A:7F X:00 Y:00 P:2C SP:25 PPU:193,233 CYC:23464
CB39  A9 80     LDA #$80                        A:7F X:00 Y:00 P:2C SP:25 PPU:201,233 CYC:23467
CB3B  85 02     STA $02 = 08                    A:80 X:00 Y:00 P:AC SP:25 PPU:209,233 CYC:23469
CB3D  60        RTS                             A:80 X:00 Y:00 P:AC SP:25 PPU:217,233 CYC:23472
CAFF  E8        INX                             A:80 X:00 Y:00 P:AC SP:27 PPU:233,233 CYC:23478
CB00  A0 08     LDY #$08                        A:80 X:01 Y:00 P:2C SP:27 PPU:241,233 CYC:23480
CB02  48        PHA                             A:80 X:01 Y:08 P:2C SP:27 PPU:249,233 CYC:23482
CB03  BD 16 40  LDA $4016,X @ 4017 = 00         A:80 X:01 Y:08 P:2C SP:26 PPU:257,233 CYC:23485
CB06  85 00     STA $00 = 00                    A:00 X:01 Y:08 P:2E SP:26 PPU:273,233 CYC:23489
CB08  4A        LSR A                           A:00 X:01 Y:08 P:2E SP:26 PPU:281,233 CYC:23492
CB09  05 00     ORA $00 = 00                    A:00 X:01 Y:08 P:2E SP:26 PPU:281,233 CYC:23494
CB0B  4A        LSR A                           A:00 X:01 Y:08 P:2E SP:26 PPU:297,233 CYC:23497
CB0C  68        PLA                             A:00 X:01 Y:08 P:2E SP:26 PPU:297,233 CYC:23499
CB0D  2A        ROL A                           A:80 X:01 Y:08 P:AC SP:27 PPU:313,233 CYC:23503
CB0E  88        DEY                             A:00 X:01 Y:08 P:2F SP:27 PPU:321,233 CYC:23505
CB0F  D0 F1     BNE $CB02                       A:00 X:01 Y:07 P:2D SP:27 PPU:321,233 CYC:23507
CB02  48        PHA                             A:00 X:01 Y:07 P:2D SP:27 PPU:329,233 CYC:23510
CB03  BD 16 40  LDA $4016,X @ 4017 = 00         A:00 X:01 Y:07 P:2D SP:26 PPU:345,233 CYC:23513
CB06  85 00     STA $00 = 00                    A:00 X:01 Y:07 P:2F SP:26 PPU:  9,234 CYC:23517
CB08  4A        LSR A                           A:00 X:01 Y:07 P:2F SP:26 PPU: 17,234 CYC:23520
CB09  05 00     ORA $00 = 00                    A:00 X:01 Y:07 P:2E SP:26 PPU: 25,234 CYC:23522
CB0B  4A        LSR A                           A:00 X:01 Y:07 P:2E SP:26 PPU: 33,234 CYC:23525
CB0C  68        PLA                             A:00 X:01 Y:07 P:2E SP:26 PPU: 41,234 CYC:23527
CB0D  2A        ROL A                           A:00 X:01 Y:07 P:2E SP:27 PPU: 49,234 CYC:23531
CB0E  88        DEY                             A:00 X:01 Y:07 P:2E SP:27 PPU: 57,234 CYC:23533
CB0F  D0 F1     BNE $CB02                       A:00 X:01 Y:06 P:2C SP:27 PPU: 65,234 CYC:23535
CB02  48        PHA                             A:00 X:01 Y:06 P:2C SP:27 PPU: 73,234 CYC:23538
CB03  BD 16 40  LDA $4016,X @ 4017 = 00         A:00 X:01 Y:06 P:2C SP:26 PPU: 81,234 CYC:23541
CB06  85 00     STA $00 = 00                    A:00 X:01 Y:06 P:2E SP:26 PPU: 89,234 CYC:23545
CB08  4A        LSR A                           A:00 X:01 Y:06 P:2E SP:26 PPU:105,234 CYC:23548
CB09  05 00     ORA $00 = 00                    A:00 X:01 Y:06 P:2E SP:26 PPU:105,234 CYC:23550
CB0B  4A        LSR A                           A:00 X:01 Y:06 P:2E SP:26 PPU:113,234 CYC:23553
CB0C  68        PLA                             A:00 X:01 Y:06 P:2E SP:26 PPU:121,234 CYC:23555
CB0D  2A        ROL A                           A:00 X:01 Y:06 P:2E SP:27 PPU:137,234 CYC:23559
CB0E  88        DEY                             A:00 X:01 Y:06 P:2E SP:27 PPU:137,234 CYC:23561
CB0F  D0 F1     BNE $CB02                       A:00 X:01 Y:05 P:2C SP:27 PPU:145,234 CYC:23563
CB02  48        PHA                             A:00 X:01 Y:05 P:2C SP:27 PPU:153,234 CYC:23566
CB03  BD 16 40  LDA $4016,X @ 4017 = 00         A:00 X:01 Y:05 P:2C SP:26 PPU:161,234 CYC:23569
CB06  85 00     STA $00 = 00                    A:00 X:01 Y:05 P:2E SP:26 PPU:177,234 CYC:23573
CB08  4A        LSR A                           A:00 X:01 Y:05 P:2E SP:26 PPU:185,234 CYC:23576
CB09  05 00     ORA $00 = 00                    A:00 X:01 Y:05 P:2E SP:26 PPU:193,234 CYC:23578
CB0B  4A        LSR A                           A:00 X:01 Y:05 P:2E SP:26 PPU:201,234 CYC:23581
CB0C  68        PLA                             A:00 X:01 Y:05 P:2E SP:26 PPU:209,234 CYC:23583
CB0D  2A        ROL A                           A:00 X:01 Y:05 P:2E SP:27 PPU:217,234 CYC:23587
CB0E  88        DEY                             A:00 X:01 Y:05 P:2E SP:27 PPU:225,234 CYC:23589
CB0F  D0 F1     BNE $CB02                       A:00 X:01 Y:04 P:2C SP:27 PPU:233,234 CYC:23591
CB02  48        PHA                             A:00 X:01 Y:04 P:2C SP:27 PPU:241,234 CYC:23594
CB03  BD 16 40  LDA $4016,X @ 4017 = 00         A:00 X:01 Y:04 P:2C SP:26 PPU:249,234 CYC:23597
CB06  85 00     STA $00 = 00                    A:00 X:01 Y:04 P:2E SP:26 PPU:257,234 CYC:23601
CB08  4A        LSR A                           A:00 X:01 Y:04 P:2E SP:26 PPU:273,234 CYC:23604
CB09  05 00     ORA $00 = 00                    A:00 X:01 Y:04 P:2E SP:26 PPU:273,234 CYC:23606
CB0B  4A        LSR A                           A:00 X:01 Y:04 P:2E SP:26 PPU:281,234 CYC:23609
CB0C  68        PLA                             A:00 X:01 Y:04 P:2E SP:26 PPU:289,234 CYC:23611
CB0D  2A        ROL A                           A:00 X:01 Y:04 P:2E SP:27 PPU:305,234 CYC:23615
CB0E  88        DEY                             A:00 X:01 Y:04 P:2E SP:27 PPU:305,234 CYC:23617
CB0F  D0 F1     BNE $CB02                       A:00 X:01 Y:03 P:2C SP:27 PPU:313,234 CYC:23619
CB02  48        PHA                             A:00 X:01 Y:03 P:2C SP:27 PPU:321,234 CYC:23622
CB03  BD 16 40  LDA $4016,X @ 4017 = 00         A:00 X:01 Y:03 P:2C SP:26 PPU:329,234 CYC:23625
CB06  85 00     STA $00 = 00                    A:00 X:01 Y:03 P:2E SP:26 PPU:345,234 CYC:23629
CB08  4A        LSR A                           A:00 X:01 Y:03 P:2E SP:26 PPU:  9,235 CYC:23632
CB09  05 00     ORA $00 = 00                    A:00 X:01 Y:03 P:2E SP:26 PPU: 17,235 CYC:23634
CB0B  4A        LSR A                           A:00 X:01 Y:03 P:2E SP:26 PPU: 25,235 CYC:23637
CB0C  68        PLA                             A:00 X:01 Y:03 P:2E SP:26 PPU: 33,235 CYC:23639
CB0D  2A        ROL A                           A:00 X:01 Y:03 P:2E SP:27 PPU: 41,235 CYC:23643
CB0E  88        DEY                             A:00 X:01 Y:03 P:2E SP:27 PPU: 49,235 CYC:23645
CB0F  D0 F1     BNE $CB02                       A:00 X:01 Y:02 P:2C SP:27 PPU: 57,235 CYC:23647
CB02  48        PHA                             A:00 X:01 Y:02 P:2C SP:27 PPU: 65,235 CYC:23650
CB03  BD 16 40  LDA $4016,X @ 4017 = 00         A:00 X:01 Y:02 P:2C SP:26 PPU: 73,235 CYC:23653
CB06  85 00     STA $00 = 00                    A:00 X:01 Y:02 P:2E SP:26 PPU: 81,235 CYC:23657
CB08  4A        LSR A                           A:00 X:01 Y:02 P:2E SP:26 PPU: 89,235 CYC:23660
CB09  05 00     ORA $00 = 00                    A:00 X:01 Y:02 P:2E SP:26 PPU: 97,235 CYC:23662
CB0B  4A        LSR A                           A:00 X:01 Y:02 P:2E SP:26 PPU:105,235 CYC:23665
CB0C  68        PLA                             A:00 X:01 Y:02 P:2E SP:26 PPU:113,235 CYC:23667
CB0D  2A        ROL A                           A:00 X:01 Y:02 P:2E SP:27 PPU:129,235 CYC:23671
CB0E  88        DEY                             A:00 X:01 Y:02 P:2E SP:27 PPU:129,235 CYC:23673
CB0F  D0 F1     BNE $CB02                       A:00 X:01 Y:01 P:2C SP:27 PPU:137,235 CYC:23675
CB02  48        PHA                             A:00 X:01 Y:01 P:2C SP:27 PPU:145,235 CYC:23678
CB03  BD 16 40  LDA $4016,X @ 4017 = 00         A:00 X:01 Y:01 P:2C SP:26 PPU:153,235 CYC:23681
CB06  85 00     STA $00 = 00                    A:00 X:01 Y:01 P:2E SP:26 PPU:169,235 CYC:23685
CB08  4A        LSR A                           A:00 X:01 Y:01 P:2E SP:26 PPU:177,235 CYC:23688
CB09  05 00     ORA $00 = 00                    A:00 X:01 Y:01 P:2E SP:26 PPU:185,235 CYC:23690
CB0B  4A        LSR A                           A:00 X:01 Y:01 P:2E SP:26 PPU:193,235 CYC:23693
CB0C  68        PLA                             A:00 X:01 Y:01 P:2E SP:26 PPU:201,235 CYC:23695
CB0D  2A        ROL A                           A:00 X:01 Y:01 P:2E SP:27 PPU:209,235 CYC:23699
CB0E  88        DEY                             A:00 X:01 Y:01 P:2E SP:27 PPU:217,235 CYC:23701
CB0F  D0 F1     BNE $CB02                       A:00 X:01 Y:00 P:2E SP:27 PPU:225,235 CYC:23703
CB11  86 00     STX $00 = 00                    A:00 X:01 Y:00 P:2E SP:27 PPU:225,235 CYC:23705
CB13  06 00     ASL $00 = 01                    A:00 X:01 Y:00 P:2E SP:27 PPU:233,235 CYC:23708
CB15  A6 00     LDX $00 = 02                    A:00 X:01 Y:00 P:2C SP:27 PPU:249,235 CYC:23713
CB17  B4 14     LDY $14,X @ 16 = 00             A:00 X:02 Y:00 P:2C SP:27 PPU:257,235 CYC:23716
CB19  84 00     STY $00 = 02                    A:00 X:02 Y:00 P:2E SP:27 PPU:273,235 CYC:23720
CB1B  95 14     STA $14,X @ 16 = 00             A:00 X:02 Y:00 P:2E SP:27 PPU:281,235 CYC:23723
CB1D  95 15     STA $15,X @ 17 = 00             A:00 X:02 Y:00 P:2E SP:27 PPU:297,235 CYC:23727
CB1F  A0 04     LDY #$04                        A:00 X:02 Y:00 P:2E SP:27 PPU:305,235 CYC:23731
CB21  A5 02     LDA $02 = 80                    A:00 X:02 Y:04 P:2C SP:27 PPU:313,235 CYC:23733
CB23  24 00     BIT $00 = 00                    A:80 X:02 Y:04 P:AC SP:27 PPU:321,235 CYC:23736
CB25  F0 06     BEQ $CB2D                       A:80 X:02 Y:04 P:2E SP:27 PPU:326,235 CYC:23739
CB2D  38        SEC                             A:80 X:02 Y:04 P:2E SP:27 PPU:335,235 CYC:23742
CB2E  66 01     ROR $01 = 7F                    A:80 X:02 Y:04 P:2F SP:27 PPU:345,235 CYC:23744
CB30  46 02     LSR $02 = 80                    A:80 X:02 Y:04 P:AD SP:27 PPU: 17,236 CYC:23749
CB32  88        DEY                             A:80 X:02 Y:04 P:2C SP:27 PPU: 33,236 CYC:23754
CB33  D0 EC     BNE $CB21                       A:80 X:02 Y:03 P:2C SP:27 PPU: 33,236 CYC:23756
CB21  A5 02     LDA $02 = 40                    A:80 X:02 Y:03 P:2C SP:27 PPU: 41,236 CYC:23759
CB23  24 00     BIT $00 = 00                    A:40 X:02 Y:03 P:2C SP:27 PPU: 57,236 CYC:23762
CB25  F0 06     BEQ $CB2D                       A:40 X:02 Y:03 P:2E SP:27 PPU: 65,236 CYC:23765
CB2D  38        SEC                             A:40 X:02 Y:03 P:2E SP:27 PPU: 73,236 CYC:23768
CB2E  66 01     ROR $01 = BF                    A:40 X:02 Y:03 P:2F SP:27 PPU: 81,236 CYC:23770
CB30  46 02     LSR $02 = 40                    A:40 X:02 Y:03 P:AD SP:27 PPU: 89,236 CYC:23775
CB32  88        DEY                             A:40 X:02 Y:03 P:2C SP:27 PPU:105,236 CYC:23780
CB33  D0 EC     BNE $CB21                       A:40 X:02 Y:02 P:2C SP:27 PPU:113,236 CYC:23782
CB21  A5 02     LDA $02 = 20                    A:40 X:02 Y:02 P:2C SP:27 PPU:121,236 CYC:23785
CB23  24 00     BIT $00 = 00                    A:20 X:02 Y:02 P:2C SP:27 PPU:129,236 CYC:23788
CB25  F0 06     BEQ $CB2D                       A:20 X:02 Y:02 P:2E SP:27 PPU:137,236 CYC:23791
CB2D  38        SEC                             A:20 X:02 Y:02 P:2E SP:27 PPU:153,236 CYC:23794
CB2E  66 01     ROR $01 = DF                    A:20 X:02 Y:02 P:2F SP:27 PPU:153,236 CYC:23796
CB30  46 02     LSR $02 = 20                    A:20 X:02 Y:02 P:AD SP:27 PPU:169,236 CYC:23801
CB32  88        DEY                             A:20 X:02 Y:02 P:2C SP:27 PPU:185,236 CYC:23806
CB33  D0 EC     BNE $CB21                       A:20 X:02 Y:01 P:2C SP:27 PPU:193,236 CYC:23808
CB21  A5 02     LDA $02 = 10                    A:20 X:02 Y:01 P:2C SP:27 PPU:201,236 CYC:23811
CB23  24 00     BIT $00 = 00                    A:10 X:02 Y:01 P:2C SP:27 PPU:209,236 CYC:23814
CB25  F0 06     BEQ $CB2D                       A:10 X:02 Y:01 P:2E SP:27 PPU:217,236 CYC:23817
CB2D  38        SEC                             A:10 X:02 Y:01 P:2E SP:27 PPU:225,236 CYC:23820
CB2E  66 01     ROR $01 = EF                    A:10 X:02 Y:01 P:2F SP:27 PPU:233,236 CYC:23822
CB30  46 02     LSR $02 = 10                    A:10 X:02 Y:01 P:AD SP:27 PPU:249,236 CYC:23827
CB32  88        DEY                             A:10 X:02 Y:01 P:2C SP:27 PPU:265,236 CYC:23832
CB33  D0 EC     BNE $CB21                       A:10 X:02 Y:00 P:2E SP:27 PPU:273,236 CYC:23834
CB35  A9 7F     LDA #$7F                        A:10 X:02 Y:00 P:2E SP:27 PPU:273,236 CYC:23836
CB37  85 01     STA $01 = F7                    A:7F X:02 Y:00 P:2C SP:27 PPU:281,236 CYC:23838
CB39  A9 80     LDA #$80                        A:7F X:02 Y:00 P:2C SP:27 PPU:289,236 CYC:23841
CB3B  85 02     STA $02 = 08                    A:80 X:02 Y:00 P:AC SP:27 PPU:297,236 CYC:23843
CB3D  60        RTS                             A:80 X:02 Y:00 P:AC SP:27 PPU:305,236 CYC:23846
C0C6  20 1E F9  JSR $F91E                       A:80 X:02 Y:00 P:AC SP:29 PPU:321,236 CYC:23852
F91E  A9 FF     LDA #$FF                        A:80 X:02 Y:00 P:AC SP:27 PPU:345,236 CYC:23858
F920  8D 17 40  STA $4017 = 00                  A:FF X:02 Y:00 P:AC SP:27 PPU:345,236 CYC:23860
F923  20 EB F9  JSR $F9EB                       A:FF X:02 Y:00 P:AC SP:27 PPU: 17,237 CYC:23864
F9EB  A4 FF     LDY $FF = 00                    A:FF X:02 Y:00 P:AC SP:25 PPU: 33,237 CYC:23870
F9ED  A5 F0     LDA $F0 = 00                    A:FF X:02 Y:00 P:2E SP:25 PPU: 41,237 CYC:23873
F9EF  46 FF     LSR $FF = 00                    A:00 X:02 Y:00 P:2E SP:25 PPU: 49,237 CYC:23876
F9F1  B0 B8     BCS $F9AB                       A:00 X:02 Y:00 P:2E SP:25 PPU: 65,237 CYC:23881
F9F3  4A        LSR A                           A:00 X:02 Y:00 P:2E SP:25 PPU: 73,237 CYC:23883
F9F4  B0 BB     BCS $F9B1                       A:00 X:02 Y:00 P:2E SP:25 PPU: 81,237 CYC:23885
F9F6  46 FF     LSR $FF = 00                    A:00 X:02 Y:00 P:2E SP:25 PPU: 81,237 CYC:23887
F9F8  B0 CE     BCS $F9C8                       A:00 X:02 Y:00 P:2E SP:25 PPU: 97,237 CYC:23892
F9FA  4A        LSR A                           A:00 X:02 Y:00 P:2E SP:25 PPU:105,237 CYC:23894
F9FB  B0 D3     BCS $F9D0                       A:00 X:02 Y:00 P:2E SP:25 PPU:113,237 CYC:23896
F9FD  46 FF     LSR $FF = 00                    A:00 X:02 Y:00 P:2E SP:25 PPU:113,237 CYC:23898
F9FF  B0 0B     BCS $FA0C                       A:00 X:02 Y:00 P:2E SP:25 PPU:129,237 CYC:23903
FA01  4A        LSR A                           A:00 X:02 Y:00 P:2E SP:25 PPU:137,237 CYC:23905
FA02  B0 17     BCS $FA1B                       A:00 X:02 Y:00 P:2E SP:25 PPU:145,237 CYC:23907
FA04  46 FF     LSR $FF = 00                    A:00 X:02 Y:00 P:2E SP:25 PPU:153,237 CYC:23909
FA06  B0 38     BCS $FA40                       A:00 X:02 Y:00 P:2E SP:25 PPU:161,237 CYC:23914
FA08  4A        LSR A                           A:00 X:02 Y:00 P:2E SP:25 PPU:169,237 CYC:23916
FA09  B0 3F     BCS $FA4A                       A:00 X:02 Y:00 P:2E SP:25 PPU:177,237 CYC:23918
FA0B  60        RTS                             A:00 X:02 Y:00 P:2E SP:25 PPU:185,237 CYC:23920
F926  20 C4 FA  JSR $FAC4                       A:00 X:02 Y:00 P:2E SP:27 PPU:201,237 CYC:23926
FAC4  A4 FE     LDY $FE = 00                    A:00 X:02 Y:00 P:2E SP:25 PPU:217,237 CYC:23932
FAC6  A5 F1     LDA $F1 = 00                    A:00 X:02 Y:00 P:2E SP:25 PPU:225,237 CYC:23935
FAC8  46 FE     LSR $FE = 00                    A:00 X:02 Y:00 P:2E SP:25 PPU:233,237 CYC:23938
FACA  B0 98     BCS $FA64                       A:00 X:02 Y:00 P:2E SP:25 PPU:249,237 CYC:23943
FACC  4A        LSR A                           A:00 X:02 Y:00 P:2E SP:25 PPU:257,237 CYC:23945
FACD  B0 9C     BCS $FA6B                       A:00 X:02 Y:00 P:2E SP:25 PPU:265,237 CYC:23947
FACF  46 FE     LSR $FE = 00                    A:00 X:02 Y:00 P:2E SP:25 PPU:273,237 CYC:23949
FAD1  B0 B0     BCS $FA83                       A:00 X:02 Y:00 P:2E SP:25 PPU:281,237 CYC:23954
FAD3  4A        LSR A                           A:00 X:02 Y:00 P:2E SP:25 PPU:289,237 CYC:23956
FAD4  B0 BE     BCS $FA94                       A:00 X:02 Y:00 P:2E SP:25 PPU:297,237 CYC:23958
FAD6  46 FE     LSR $FE = 00                    A:00 X:02 Y:00 P:2E SP:25 PPU:305,237 CYC:23960
FAD8  B0 12     BCS $FAEC                       A:00 X:02 Y:00 P:2E SP:25 PPU:321,237 CYC:23965
FADA  4A        LSR A                           A:00 X:02 Y:00 P:2E SP:25 PPU:321,237 CYC:23967
FADB  B0 D8     BCS $FAB5                       A:00 X:02 Y:00 P:2E SP:25 PPU:326,237 CYC:23969
FADD  4A        LSR A                           A:00 X:02 Y:00 P:2E SP:25 PPU:332,237 CYC:23971
FADE  B0 29     BCS $FB09                       A:00 X:02 Y:00 P:2E SP:25 PPU:345,237 CYC:23973
FAE0  46 FE     LSR $FE = 00                    A:00 X:02 Y:00 P:2E SP:25 PPU:345,237 CYC:23975
FAE2  B0 15     BCS $FAF9                       A:00 X:02 Y:00 P:2E SP:25 PPU: 17,238 CYC:23980
FAE4  46 FE     LSR $FE = 00                    A:00 X:02 Y:00 P:2E SP:25 PPU: 25,238 CYC:23982
FAE6  B0 2F     BCS $FB17                       A:00 X:02 Y:00 P:2E SP:25 PPU: 41,238 CYC:23987
FAE8  4A        LSR A                           A:00 X:02 Y:00 P:2E SP:25 PPU: 41,238 CYC:23989
FAE9  B0 CA     BCS $FAB5                       A:00 X:02 Y:00 P:2E SP:25 PPU: 49,238 CYC:23991
FAEB  60        RTS                             A:00 X:02 Y:00 P:2E SP:25 PPU: 57,238 CYC:23993
F929  20 A1 FB  JSR $FBA1                       A:00 X:02 Y:00 P:2E SP:27 PPU: 73,238 CYC:23999
FBA1  A4 FC     LDY $FC = 00                    A:00 X:02 Y:00 P:2E SP:25 PPU: 89,238 CYC:24005
FBA3  A5 F2     LDA $F2 = 00                    A:00 X:02 Y:00 P:2E SP:25 PPU:105,238 CYC:24008
FBA5  46 FC     LSR $FC = 00                    A:00 X:02 Y:00 P:2E SP:25 PPU:113,238 CYC:24011
FBA7  B0 C8     BCS $FB71                       A:00 X:02 Y:00 P:2E SP:25 PPU:129,238 CYC:24016
FBA9  4A        LSR A                           A:00 X:02 Y:00 P:2E SP:25 PPU:129,238 CYC:24018
FBAA  B0 CC     BCS $FB78                       A:00 X:02 Y:00 P:2E SP:25 PPU:137,238 CYC:24020
FBAC  46 FC     LSR $FC = 00                    A:00 X:02 Y:00 P:2E SP:25 PPU:145,238 CYC:24022
FBAE  B0 0B     BCS $FBBB                       A:00 X:02 Y:00 P:2E SP:25 PPU:161,238 CYC:24027
FBB0  4A        LSR A                           A:00 X:02 Y:00 P:2E SP:25 PPU:161,238 CYC:24029
FBB1  B0 18     BCS $FBCB                       A:00 X:02 Y:00 P:2E SP:25 PPU:169,238 CYC:24031
FBB3  46 FC     LSR $FC = 00                    A:00 X:02 Y:00 P:2E SP:25 PPU:177,238 CYC:24033
FBB5  B0 24     BCS $FBDB                       A:00 X:02 Y:00 P:2E SP:25 PPU:193,238 CYC:24038
FBB7  4A        LSR A                           A:00 X:02 Y:00 P:2E SP:25 PPU:201,238 CYC:24040
FBB8  B0 31     BCS $FBEB                       A:00 X:02 Y:00 P:2E SP:25 PPU:201,238 CYC:24042
FBBA  60        RTS                             A:00 X:02 Y:00 P:2E SP:25 PPU:209,238 CYC:24044
F92C  20 FC FB  JSR $FBFC                       A:00 X:02 Y:00 P:2E SP:27 PPU:225,238 CYC:24050
FBFC  A5 FB     LDA $FB = 00                    A:00 X:02 Y:00 P:2E SP:25 PPU:249,238 CYC:24056
FBFE  D0 05     BNE $FC05                       A:00 X:02 Y:00 P:2E SP:25 PPU:257,238 CYC:24059
FC00  A5 F3     LDA $F3 = 00                    A:00 X:02 Y:00 P:2E SP:25 PPU:257,238 CYC:24061
FC02  D0 4D     BNE $FC51                       A:00 X:02 Y:00 P:2E SP:25 PPU:273,238 CYC:24064
FC04  60        RTS                             A:00 X:02 Y:00 P:2E SP:25 PPU:273,238 CYC:24066
F92F  A9 00     LDA #$00                        A:00 X:02 Y:00 P:2E SP:27 PPU:297,238 CYC:24072
F931  85 FF     STA $FF = 00                    A:00 X:02 Y:00 P:2E SP:27 PPU:297,238 CYC:24074
F933  85 FE     STA $FE = 00                    A:00 X:02 Y:00 P:2E SP:27 PPU:305,238 CYC:24077
F935  85 FC     STA $FC = 00                    A:00 X:02 Y:00 P:2E SP:27 PPU:321,238 CYC:24080
F937  85 FB     STA $FB = 00                    A:00 X:02 Y:00 P:2E SP:27 PPU:323,238 CYC:24083
F939  AC 11 07  LDY $0711 = 00                  A:00 X:02 Y:00 P:2E SP:27 PPU:332,238 CYC:24086
F93C  A5 F3     LDA $F3 = 00                    A:00 X:02 Y:00 P:2E SP:27 PPU:345,238 CYC:24090
F93E  29 0C     AND #$0C                        A:00 X:02 Y:00 P:2E SP:27 PPU:  9,239 CYC:24093
F940  F0 07     BEQ $F949                       A:00 X:02 Y:00 P:2E SP:27 PPU: 17,239 CYC:24095
F949  98        TYA                             A:00 X:02 Y:00 P:2E SP:27 PPU: 25,239 CYC:24098
F94A  F0 03     BEQ $F94F                       A:00 X:02 Y:00 P:2E SP:27 PPU: 33,239 CYC:24100
F94F  8C 11 40  STY $4011 = 00                  A:00 X:02 Y:00 P:2E SP:27 PPU: 41,239 CYC:24103
F952  60        RTS                             A:00 X:02 Y:00 P:2E SP:27 PPU: 57,239 CYC:24107
C0C9  A5 53     LDA $53 = 00                    A:00 X:02 Y:00 P:2E SP:29 PPU: 73,239 CYC:24113
C0CB  F0 06     BEQ $C0D3                       A:00 X:02 Y:00 P:2E SP:29 PPU: 81,239 CYC:24116
C0D3  A5 51     LDA $51 = 01                    A:00 X:02 Y:00 P:2E SP:29 PPU: 89,239 CYC:24119
C0D5  F0 4F     BEQ $C126                       A:01 X:02 Y:00 P:2C SP:29 PPU: 97,239 CYC:24122
C0D7  AE 4C 03  LDX $034C = 02                  A:01 X:02 Y:00 P:2C SP:29 PPU:105,239 CYC:24124
C0DA  F0 3E     BEQ $C11A                       A:01 X:02 Y:00 P:2C SP:29 PPU:113,239 CYC:24128
C0DC  CA        DEX                             A:01 X:02 Y:00 P:2C SP:29 PPU:121,239 CYC:24130
C0DD  F0 24     BEQ $C103                       A:01 X:01 Y:00 P:2C SP:29 PPU:129,239 CYC:24132
C0DF  CA        DEX                             A:01 X:01 Y:00 P:2C SP:29 PPU:137,239 CYC:24134
C0E0  D0 1E     BNE $C100                       A:01 X:00 Y:00 P:2E SP:29 PPU:137,239 CYC:24136
C0E2  A5 11     LDA $11 = 1F                    A:01 X:00 Y:00 P:2E SP:29 PPU:145,239 CYC:24138
C0E4  29 EF     AND #$EF                        A:1F X:00 Y:00 P:2C SP:29 PPU:153,239 CYC:24141
C0E6  8D 01 20  STA $2001 = 1F                  A:0F X:00 Y:00 P:2C SP:29 PPU:161,239 CYC:24143
C0E9  85 11     STA $11 = 1F                    A:0F X:00 Y:00 P:2C SP:29 PPU:177,239 CYC:24147
C0EB  A5 15     LDA $15 = 00                    A:0F X:00 Y:00 P:2C SP:29 PPU:185,239 CYC:24150
C0ED  29 10     AND #$10                        A:00 X:00 Y:00 P:2E SP:29 PPU:193,239 CYC:24153
C0EF  F0 47     BEQ $C138                       A:00 X:00 Y:00 P:2E SP:29 PPU:201,239 CYC:24155
C138  20 41 C1  JSR $C141                       A:00 X:00 Y:00 P:2E SP:29 PPU:209,239 CYC:24159
C141  AD 02 20  LDA $2002 = 0F                  A:00 X:00 Y:00 P:2E SP:27 PPU:225,239 CYC:24165
C144  A5 10     LDA $10 = 11                    A:0F X:00 Y:00 P:2C SP:27 PPU:241,239 CYC:24169
C146  09 80     ORA #$80                        A:11 X:00 Y:00 P:2C SP:27 PPU:249,239 CYC:24172
C148  85 10     STA $10 = 11                    A:91 X:00 Y:00 P:AC SP:27 PPU:257,239 CYC:24174
C14A  8D 00 20  STA $2000 = 11                  A:91 X:00 Y:00 P:AC SP:27 PPU:265,239 CYC:24177
C14D  60        RTS                             A:91 X:00 Y:00 P:AC SP:27 PPU:273,239 CYC:24181
C13B  68        PLA                             A:91 X:00 Y:00 P:AC SP:29 PPU:297,239 CYC:24187
C13C  A8        TAY                             A:10 X:00 Y:00 P:2C SP:2A PPU:305,239 CYC:24191
C13D  68        PLA                             A:10 X:00 Y:10 P:2C SP:2A PPU:313,239 CYC:24193
C13E  AA        TAX                             A:2D X:00 Y:10 P:2C SP:2B PPU:321,239 CYC:24197
C13F  68        PLA                             A:2D X:2D Y:10 P:2C SP:2B PPU:326,239 CYC:24199
C140  40        RTI                             A:FF X:2D Y:10 P:AC SP:2C PPU:345,239 CYC:24203
00C5  00        BRK                             A:FF X:2D Y:10 P:A8 SP:2F PPU: 17,240 CYC:24209
C076  48        PHA                             A:FF X:2D Y:10 P:AC SP:2C PPU: 33,240 CYC:24216
C077  8A        TXA                             A:FF X:2D Y:10 P:AC SP:2B PPU: 41,240 CYC:24219
C078  48        PHA                             A:2D X:2D Y:10 P:2C SP:2B PPU: 49,240 CYC:24221
C079  98        TYA                             A:2D X:2D Y:10 P:2C SP:2A PPU: 57,240 CYC:24224
C07A  48        PHA                             A:10 X:2D Y:10 P:2C SP:2A PPU: 65,240 CYC:24226
C07B  A5 10     LDA $10 = 91                    A:10 X:2D Y:10 P:2C SP:29 PPU: 73,240 CYC:24229
C07D  A6 DE     LDX $DE = 00                    A:91 X:2D Y:10 P:AC SP:29 PPU: 81,240 CYC:24232
C07F  F0 02     BEQ $C083                       A:91 X:00 Y:10 P:2E SP:29 PPU: 89,240 CYC:24235
C083  29 7F     AND #$7F                        A:91 X:00 Y:10 P:2E SP:29 PPU:105,240 CYC:24238
C085  20 48 C1  JSR $C148                       A:11 X:00 Y:10 P:2C SP:29 PPU:105,240 CYC:24240
C148  85 10     STA $10 = 91                    A:11 X:00 Y:10 P:2C SP:27 PPU:129,240 CYC:24246
C14A  8D 00 20  STA $2000 = 91                  A:11 X:00 Y:10 P:2C SP:27 PPU:137,240 CYC:24249
C14D  60        RTS                             A:11 X:00 Y:10 P:2C SP:27 PPU:145,240 CYC:24253
C088  A5 52     LDA $52 = 00                    A:11 X:00 Y:10 P:2C SP:29 PPU:161,240 CYC:24259
C08A  D0 09     BNE $C095                       A:00 X:00 Y:10 P:2E SP:29 PPU:177,240 CYC:24262
C08C  A5 11     LDA $11 = 0F                    A:00 X:00 Y:10 P:2E SP:29 PPU:177,240 CYC:24264
C08E  09 1E     ORA #$1E                        A:0F X:00 Y:10 P:2C SP:29 PPU:185,240 CYC:24267
C090  8D 01 20  STA $2001 = 0F                  A:1F X:00 Y:10 P:2C SP:29 PPU:193,240 CYC:24269
C093  85 11     STA $11 = 0F                    A:1F X:00 Y:10 P:2C SP:29 PPU:209,240 CYC:24273
C095  A9 00     LDA #$00                        A:1F X:00 Y:10 P:2C SP:29 PPU:217,240 CYC:24276
C097  8D 03 20  STA $2003 = 00                  A:00 X:00 Y:10 P:2E SP:29 PPU:225,240 CYC:24278
C09A  A9 02     LDA #$02                        A:00 X:00 Y:10 P:2E SP:29 PPU:233,240 CYC:24282
C09C  8D 14 40  STA $4014 = 00                  A:02 X:00 Y:10 P:2C SP:29 PPU:241,240 CYC:24284
C09F  A6 52     LDX $52 = 00                    A:02 X:00 Y:10 P:2C SP:29 PPU: 65,245 CYC:24801
C0A1  20 50 C1  JSR $C150                       A:02 X:00 Y:10 P:2E SP:29 PPU: 73,245 CYC:24804
C150  BD 00 C0  LDA $C000,X @ C000 = 01         A:02 X:00 Y:10 P:2E SP:27 PPU: 89,245 CYC:24810
C153  85 00     STA $00 = 00                    A:01 X:00 Y:10 P:2C SP:27 PPU:105,245 CYC:24814
C155  BD 0A C0  LDA $C00A,X @ C00A = 03         A:01 X:00 Y:10 P:2C SP:27 PPU:113,245 CYC:24817
C158  85 01     STA $01 = 7F                    A:03 X:00 Y:10 P:2C SP:27 PPU:129,245 CYC:24821
C15A  20 78 CB  JSR $CB78                       A:03 X:00 Y:10 P:2C SP:27 PPU:137,245 CYC:24824
CB78  AE 02 20  LDX $2002 = 80                  A:03 X:00 Y:10 P:2C SP:25 PPU:153,245 CYC:24830
CB7B  A0 00     LDY #$00                        A:03 X:80 Y:10 P:AC SP:25 PPU:161,245 CYC:24834
CB7D  B1 00     LDA ($00),Y = 0301 @ 0301 = 00  A:03 X:80 Y:00 P:2E SP:25 PPU:169,245 CYC:24836
CB7F  D0 BD     BNE $CB3E                       A:00 X:80 Y:00 P:2E SP:25 PPU:185,245 CYC:24841
CB81  A5 12     LDA $12 = 01                    A:00 X:80 Y:00 P:2E SP:25 PPU:193,245 CYC:24843
CB83  8D 05 20  STA $2005 = 9F                  A:01 X:80 Y:00 P:2C SP:25 PPU:201,245 CYC:24846
CB86  A5 13     LDA $13 = 9F                    A:01 X:80 Y:00 P:2C SP:25 PPU:209,245 CYC:24850
CB88  8D 05 20  STA $2005 = 01                  A:9F X:80 Y:00 P:AC SP:25 PPU:225,245 CYC:24853
CB8B  60        RTS                             A:9F X:80 Y:00 P:AC SP:25 PPU:233,245 CYC:24857
C15D  A9 00     LDA #$00                        A:9F X:80 Y:00 P:AC SP:27 PPU:249,245 CYC:24863
C15F  8D 00 03  STA $0300 = 00                  A:00 X:80 Y:00 P:2E SP:27 PPU:257,245 CYC:24865
C162  8D 01 03  STA $0301 = 00                  A:00 X:80 Y:00 P:2E SP:27 PPU:273,245 CYC:24869
C165  60        RTS                             A:00 X:80 Y:00 P:2E SP:27 PPU:281,245 CYC:24873
C0A4  85 52     STA $52 = 00                    A:00 X:80 Y:00 P:2E SP:29 PPU:297,245 CYC:24879
C0A6  85 DE     STA $DE = 00                    A:00 X:80 Y:00 P:2E SP:29 PPU:305,245 CYC:24882
C0A8  A9 3F     LDA #$3F                        A:00 X:80 Y:00 P:2E SP:29 PPU:321,245 CYC:24885
C0AA  8D 06 20  STA $2006 = 00                  A:3F X:80 Y:00 P:2C SP:29 PPU:321,245 CYC:24887
C0AD  A9 00     LDA #$00                        A:3F X:80 Y:00 P:2C SP:29 PPU:332,245 CYC:24891
C0AF  8D 06 20  STA $2006 = 3F                  A:00 X:80 Y:00 P:2E SP:29 PPU:345,245 CYC:24893
C0B2  8D 06 20  STA $2006 = 00                  A:00 X:80 Y:00 P:2E SP:29 PPU:  9,246 CYC:24897
C0B5  8D 06 20  STA $2006 = 00                  A:00 X:80 Y:00 P:2E SP:29 PPU: 17,246 CYC:24901
C0B8  AD 02 20  LDA $2002 = 00                  A:00 X:80 Y:00 P:2E SP:29 PPU: 33,246 CYC:24905
C0BB  20 81 CB  JSR $CB81                       A:00 X:80 Y:00 P:2E SP:29 PPU: 41,246 CYC:24909
CB81  A5 12     LDA $12 = 01                    A:00 X:80 Y:00 P:2E SP:27 PPU: 65,246 CYC:24915
CB83  8D 05 20  STA $2005 = 9F                  A:01 X:80 Y:00 P:2C SP:27 PPU: 73,246 CYC:24918
CB86  A5 13     LDA $13 = 9F                    A:01 X:80 Y:00 P:2C SP:27 PPU: 81,246 CYC:24922
CB88  8D 05 20  STA $2005 = 01                  A:9F X:80 Y:00 P:AC SP:27 PPU: 89,246 CYC:24925
CB8B  60        RTS                             A:9F X:80 Y:00 P:AC SP:27 PPU:105,246 CYC:24929
C0BE  A5 10     LDA $10 = 11                    A:9F X:80 Y:00 P:AC SP:29 PPU:121,246 CYC:24935
C0C0  8D 00 20  STA $2000 = 11                  A:11 X:80 Y:00 P:2C SP:29 PPU:129,246 CYC:24938
C0C3  20 ED CA  JSR $CAED                       A:11 X:80 Y:00 P:2C SP:29 PPU:145,246 CYC:24942
CAED  20 35 CB  JSR $CB35                       A:11 X:80 Y:00 P:2C SP:27 PPU:161,246 CYC:24948
CB35  A9 7F     LDA #$7F                        A:11 X:80 Y:00 P:2C SP:25 PPU:177,246 CYC:24954
CB37  85 01     STA $01 = 03                    A:7F X:80 Y:00 P:2C SP:25 PPU:185,246 CYC:24956
CB39  A9 80     LDA #$80                        A:7F X:80 Y:00 P:2C SP:25 PPU:193,246 CYC:24959
CB3B  85 02     STA $02 = 80                    A:80 X:80 Y:00 P:AC SP:25 PPU:201,246 CYC:24961
CB3D  60        RTS                             A:80 X:80 Y:00 P:AC SP:25 PPU:209,246 CYC:24964
CAF0  A9 01     LDA #$01                        A:80 X:80 Y:00 P:AC SP:27 PPU:225,246 CYC:24970
CAF2  8D 16 40  STA $4016 = 00                  A:01 X:80 Y:00 P:2C SP:27 PPU:233,246 CYC:24972
CAF5  A2 00     LDX #$00                        A:01 X:80 Y:00 P:2C SP:27 PPU:249,246 CYC:24976
CAF7  A9 00     LDA #$00                        A:01 X:00 Y:00 P:2E SP:27 PPU:249,246 CYC:24978
CAF9  8D 16 40  STA $4016 = 00                  A:00 X:00 Y:00 P:2E SP:27 PPU:257,246 CYC:24980
CAFC  20 00 CB  JSR $CB00                       A:00 X:00 Y:00 P:2E SP:27 PPU:273,246 CYC:24984
CB00  A0 08     LDY #$08                        A:00 X:00 Y:00 P:2E SP:25 PPU:289,246 CYC:24990
CB02  48        PHA                             A:00 X:00 Y:08 P:2C SP:25 PPU:297,246 CYC:24992
CB03  BD 16 40  LDA $4016,X @ 4016 = 00         A:00 X:00 Y:08 P:2C SP:24 PPU:305,246 CYC:24995
CB06  85 00     STA $00 = 01                    A:00 X:00 Y:08 P:2E SP:24 PPU:313,246 CYC:24999
CB08  4A        LSR A                           A:00 X:00 Y:08 P:2E SP:24 PPU:321,246 CYC:25002
CB09  05 00     ORA $00 = 00                    A:00 X:00 Y:08 P:2E SP:24 PPU:326,246 CYC:25004
CB0B  4A        LSR A                           A:00 X:00 Y:08 P:2E SP:24 PPU:335,246 CYC:25007
CB0C  68        PLA                             A:00 X:00 Y:08 P:2E SP:24 PPU:345,246 CYC:25009
CB0D  2A        ROL A                           A:00 X:00 Y:08 P:2E SP:25 PPU:  9,247 CYC:25013
CB0E  88        DEY                             A:00 X:00 Y:08 P:2E SP:25 PPU: 17,247 CYC:25015
CB0F  D0 F1     BNE $CB02                       A:00 X:00 Y:07 P:2C SP:25 PPU: 25,247 CYC:25017
CB02  48        PHA                             A:00 X:00 Y:07 P:2C SP:25 PPU: 33,247 CYC:25020
CB03  BD 16 40  LDA $4016,X @ 4016 = 00         A:00 X:00 Y:07 P:2C SP:24 PPU: 41,247 CYC:25023
CB06  85 00     STA $00 = 00                    A:00 X:00 Y:07 P:2E SP:24 PPU: 57,247 CYC:25027
CB08  4A        LSR A                           A:00 X:00 Y:07 P:2E SP:24 PPU: 65,247 CYC:25030
CB09  05 00     ORA $00 = 00                    A:00 X:00 Y:07 P:2E SP:24 PPU: 65,247 CYC:25032
CB0B  4A        LSR A                           A:00 X:00 Y:07 P:2E SP:24 PPU: 81,247 CYC:25035
CB0C  68        PLA                             A:00 X:00 Y:07 P:2E SP:24 PPU: 81,247 CYC:25037
CB0D  2A        ROL A                           A:00 X:00 Y:07 P:2E SP:25 PPU: 97,247 CYC:25041
CB0E  88        DEY                             A:00 X:00 Y:07 P:2E SP:25 PPU:105,247 CYC:25043
CB0F  D0 F1     BNE $CB02                       A:00 X:00 Y:06 P:2C SP:25 PPU:105,247 CYC:25045
CB02  48        PHA                             A:00 X:00 Y:06 P:2C SP:25 PPU:113,247 CYC:25048
CB03  BD 16 40  LDA $4016,X @ 4016 = 00         A:00 X:00 Y:06 P:2C SP:24 PPU:129,247 CYC:25051
CB06  85 00     STA $00 = 00                    A:00 X:00 Y:06 P:2E SP:24 PPU:137,247 CYC:25055
CB08  4A        LSR A                           A:00 X:00 Y:06 P:2E SP:24 PPU:145,247 CYC:25058
CB09  05 00     ORA $00 = 00                    A:00 X:00 Y:06 P:2E SP:24 PPU:153,247 CYC:25060
CB0B  4A        LSR A                           A:00 X:00 Y:06 P:2E SP:24 PPU:161,247 CYC:25063
CB0C  68        PLA                             A:00 X:00 Y:06 P:2E SP:24 PPU:169,247 CYC:25065
CB0D  2A        ROL A                           A:00 X:00 Y:06 P:2E SP:25 PPU:177,247 CYC:25069
CB0E  88        DEY                             A:00 X:00 Y:06 P:2E SP:25 PPU:185,247 CYC:25071
CB0F  D0 F1     BNE $CB02                       A:00 X:00 Y:05 P:2C SP:25 PPU:193,247 CYC:25073
CB02  48        PHA                             A:00 X:00 Y:05 P:2C SP:25 PPU:201,247 CYC:25076
CB03  BD 16 40  LDA $4016,X @ 4016 = 00         A:00 X:00 Y:05 P:2C SP:24 PPU:209,247 CYC:25079
CB06  85 00     STA $00 = 00                    A:00 X:00 Y:05 P:2E SP:24 PPU:225,247 CYC:25083
CB08  4A        LSR A                           A:00 X:00 Y:05 P:2E SP:24 PPU:233,247 CYC:25086
CB09  05 00     ORA $00 = 00                    A:00 X:00 Y:05 P:2E SP:24 PPU:233,247 CYC:25088
CB0B  4A        LSR A                           A:00 X:00 Y:05 P:2E SP:24 PPU:249,247 CYC:25091
CB0C  68        PLA                             A:00 X:00 Y:05 P:2E SP:24 PPU:249,247 CYC:25093
CB0D  2A        ROL A                           A:00 X:00 Y:05 P:2E SP:25 PPU:265,247 CYC:25097
CB0E  88        DEY                             A:00 X:00 Y:05 P:2E SP:25 PPU:273,247 CYC:25099
CB0F  D0 F1     BNE $CB02                       A:00 X:00 Y:04 P:2C SP:25 PPU:273,247 CYC:25101
CB02  48        PHA                             A:00 X:00 Y:04 P:2C SP:25 PPU:281,247 CYC:25104
CB03  BD 16 40  LDA $4016,X @ 4016 = 00         A:00 X:00 Y:04 P:2C SP:24 PPU:297,247 CYC:25107
CB06  85 00     STA $00 = 00                    A:00 X:00 Y:04 P:2E SP:24 PPU:305,247 CYC:25111
CB08  4A        LSR A                           A:00 X:00 Y:04 P:2E SP:24 PPU:313,247 CYC:25114
CB09  05 00     ORA $00 = 00                    A:00 X:00 Y:04 P:2E SP:24 PPU:321,247 CYC:25116
CB0B  4A        LSR A                           A:00 X:00 Y:04 P:2E SP:24 PPU:326,247 CYC:25119
CB0C  68        PLA                             A:00 X:00 Y:04 P:2E SP:24 PPU:332,247 CYC:25121
CB0D  2A        ROL A                           A:00 X:00 Y:04 P:2E SP:25 PPU:345,247 CYC:25125
CB0E  88        DEY                             A:00 X:00 Y:04 P:2E SP:25 PPU:  9,248 CYC:25127
CB0F  D0 F1     BNE $CB02                       A:00 X:00 Y:03 P:2C SP:25 PPU: 17,248 CYC:25129
CB02  48        PHA                             A:00 X:00 Y:03 P:2C SP:25 PPU: 25,248 CYC:25132
CB03  BD 16 40  LDA $4016,X @ 4016 = 00         A:00 X:00 Y:03 P:2C SP:24 PPU: 33,248 CYC:25135
CB06  85 00     STA $00 = 00                    A:00 X:00 Y:03 P:2E SP:24 PPU: 41,248 CYC:25139
CB08  4A        LSR A                           A:00 X:00 Y:03 P:2E SP:24 PPU: 57,248 CYC:25142
CB09  05 00     ORA $00 = 00                    A:00 X:00 Y:03 P:2E SP:24 PPU: 57,248 CYC:25144
CB0B  4A        LSR A                           A:00 X:00 Y:03 P:2E SP:24 PPU: 65,248 CYC:25147
CB0C  68        PLA                             A:00 X:00 Y:03 P:2E SP:24 PPU: 73,248 CYC:25149
CB0D  2A        ROL A                           A:00 X:00 Y:03 P:2E SP:25 PPU: 89,248 CYC:25153
CB0E  88        DEY                             A:00 X:00 Y:03 P:2E SP:25 PPU: 89,248 CYC:25155
CB0F  D0 F1     BNE $CB02                       A:00 X:00 Y:02 P:2C SP:25 PPU: 97,248 CYC:25157
CB02  48        PHA                             A:00 X:00 Y:02 P:2C SP:25 PPU:105,248 CYC:25160
CB03  BD 16 40  LDA $4016,X @ 4016 = 00         A:00 X:00 Y:02 P:2C SP:24 PPU:113,248 CYC:25163
CB06  85 00     STA $00 = 00                    A:00 X:00 Y:02 P:2E SP:24 PPU:129,248 CYC:25167
CB08  4A        LSR A                           A:00 X:00 Y:02 P:2E SP:24 PPU:137,248 CYC:25170
CB09  05 00     ORA $00 = 00                    A:00 X:00 Y:02 P:2E SP:24 PPU:145,248 CYC:25172
CB0B  4A        LSR A                           A:00 X:00 Y:02 P:2E SP:24 PPU:153,248 CYC:25175
CB0C  68        PLA                             A:00 X:00 Y:02 P:2E SP:24 PPU:161,248 CYC:25177
CB0D  2A        ROL A                           A:00 X:00 Y:02 P:2E SP:25 PPU:169,248 CYC:25181
CB0E  88        DEY                             A:00 X:00 Y:02 P:2E SP:25 PPU:177,248 CYC:25183
CB0F  D0 F1     BNE $CB02                       A:00 X:00 Y:01 P:2C SP:25 PPU:185,248 CYC:25185
CB02  48        PHA                             A:00 X:00 Y:01 P:2C SP:25 PPU:193,248 CYC:25188
CB03  BD 16 40  LDA $4016,X @ 4016 = 00         A:00 X:00 Y:01 P:2C SP:24 PPU:201,248 CYC:25191
CB06  85 00     STA $00 = 00                    A:00 X:00 Y:01 P:2E SP:24 PPU:209,248 CYC:25195
CB08  4A        LSR A                           A:00 X:00 Y:01 P:2E SP:24 PPU:225,248 CYC:25198
CB09  05 00     ORA $00 = 00                    A:00 X:00 Y:01 P:2E SP:24 PPU:225,248 CYC:25200
CB0B  4A        LSR A                           A:00 X:00 Y:01 P:2E SP:24 PPU:233,248 CYC:25203
CB0C  68        PLA                             A:00 X:00 Y:01 P:2E SP:24 PPU:241,248 CYC:25205
CB0D  2A        ROL A                           A:00 X:00 Y:01 P:2E SP:25 PPU:257,248 CYC:25209
CB0E  88        DEY                             A:00 X:00 Y:01 P:2E SP:25 PPU:257,248 CYC:25211
CB0F  D0 F1     BNE $CB02                       A:00 X:00 Y:00 P:2E SP:25 PPU:265,248 CYC:25213
CB11  86 00     STX $00 = 00                    A:00 X:00 Y:00 P:2E SP:25 PPU:273,248 CYC:25215
CB13  06 00     ASL $00 = 00                    A:00 X:00 Y:00 P:2E SP:25 PPU:281,248 CYC:25218
CB15  A6 00     LDX $00 = 00                    A:00 X:00 Y:00 P:2E SP:25 PPU:297,248 CYC:25223
CB17  B4 14     LDY $14,X @ 14 = 00             A:00 X:00 Y:00 P:2E SP:25 PPU:305,248 CYC:25226
CB19  84 00     STY $00 = 00                    A:00 X:00 Y:00 P:2E SP:25 PPU:321,248 CYC:25230
CB1B  95 14     STA $14,X @ 14 = 00             A:00 X:00 Y:00 P:2E SP:25 PPU:323,248 CYC:25233
CB1D  95 15     STA $15,X @ 15 = 00             A:00 X:00 Y:00 P:2E SP:25 PPU:335,248 CYC:25237
CB1F  A0 04     LDY #$04                        A:00 X:00 Y:00 P:2E SP:25 PPU:  9,249 CYC:25241
CB21  A5 02     LDA $02 = 80                    A:00 X:00 Y:04 P:2C SP:25 PPU:  9,249 CYC:25243
CB23  24 00     BIT $00 = 00                    A:80 X:00 Y:04 P:AC SP:25 PPU: 17,249 CYC:25246
CB25  F0 06     BEQ $CB2D                       A:80 X:00 Y:04 P:2E SP:25 PPU: 33,249 CYC:25249
CB2D  38        SEC                             A:80 X:00 Y:04 P:2E SP:25 PPU: 41,249 CYC:25252
CB2E  66 01     ROR $01 = 7F                    A:80 X:00 Y:04 P:2F SP:25 PPU: 41,249 CYC:25254
CB30  46 02     LSR $02 = 80                    A:80 X:00 Y:04 P:AD SP:25 PPU: 57,249 CYC:25259
CB32  88        DEY                             A:80 X:00 Y:04 P:2C SP:25 PPU: 73,249 CYC:25264
CB33  D0 EC     BNE $CB21                       A:80 X:00 Y:03 P:2C SP:25 PPU: 81,249 CYC:25266
CB21  A5 02     LDA $02 = 40                    A:80 X:00 Y:03 P:2C SP:25 PPU: 89,249 CYC:25269
CB23  24 00     BIT $00 = 00                    A:40 X:00 Y:03 P:2C SP:25 PPU: 97,249 CYC:25272
CB25  F0 06     BEQ $CB2D                       A:40 X:00 Y:03 P:2E SP:25 PPU:105,249 CYC:25275
CB2D  38        SEC                             A:40 X:00 Y:03 P:2E SP:25 PPU:113,249 CYC:25278
CB2E  66 01     ROR $01 = BF                    A:40 X:00 Y:03 P:2F SP:25 PPU:121,249 CYC:25280
CB30  46 02     LSR $02 = 40                    A:40 X:00 Y:03 P:AD SP:25 PPU:137,249 CYC:25285
CB32  88        DEY                             A:40 X:00 Y:03 P:2C SP:25 PPU:153,249 CYC:25290
CB33  D0 EC     BNE $CB21                       A:40 X:00 Y:02 P:2C SP:25 PPU:161,249 CYC:25292
CB21  A5 02     LDA $02 = 20                    A:40 X:00 Y:02 P:2C SP:25 PPU:169,249 CYC:25295
CB23  24 00     BIT $00 = 00                    A:20 X:00 Y:02 P:2C SP:25 PPU:177,249 CYC:25298
CB25  F0 06     BEQ $CB2D                       A:20 X:00 Y:02 P:2E SP:25 PPU:185,249 CYC:25301
CB2D  38        SEC                             A:20 X:00 Y:02 P:2E SP:25 PPU:193,249 CYC:25304
CB2E  66 01     ROR $01 = DF                    A:20 X:00 Y:02 P:2F SP:25 PPU:201,249 CYC:25306
CB30  46 02     LSR $02 = 20                    A:20 X:00 Y:02 P:AD SP:25 PPU:217,249 CYC:25311
CB32  88        DEY                             A:20 X:00 Y:02 P:2C SP:25 PPU:233,249 CYC:25316
CB33  D0 EC     BNE $CB21                       A:20 X:00 Y:01 P:2C SP:25 PPU:233,249 CYC:25318
CB21  A5 02     LDA $02 = 10                    A:20 X:00 Y:01 P:2C SP:25 PPU:249,249 CYC:25321
CB23  24 00     BIT $00 = 00                    A:10 X:00 Y:01 P:2C SP:25 PPU:257,249 CYC:25324
CB25  F0 06     BEQ $CB2D                       A:10 X:00 Y:01 P:2E SP:25 PPU:265,249 CYC:25327
CB2D  38        SEC                             A:10 X:00 Y:01 P:2E SP:25 PPU:273,249 CYC:25330
CB2E  66 01     ROR $01 = EF                    A:10 X:00 Y:01 P:2F SP:25 PPU:281,249 CYC:25332
CB30  46 02     LSR $02 = 10                    A:10 X:00 Y:01 P:AD SP:25 PPU:297,249 CYC:25337
CB32  88        DEY                             A:10 X:00 Y:01 P:2C SP:25 PPU:305,249 CYC:25342
CB33  D0 EC     BNE $CB21                       A:10 X:00 Y:00 P:2E SP:25 PPU:313,249 CYC:25344
CB35  A9 7F     LDA #$7F                        A:10 X:00 Y:00 P:2E SP:25 PPU:321,249 CYC:25346
CB37  85 01     STA $01 = F7                    A:7F X:00 Y:00 P:2C SP:25 PPU:323,249 CYC:25348
CB39  A9 80     LDA #$80                        A:7F X:00 Y:00 P:2C SP:25 PPU:332,249 CYC:25351
CB3B  85 02     STA $02 = 08                    A:80 X:00 Y:00 P:AC SP:25 PPU:345,249 CYC:25353
CB3D  60        RTS                             A:80 X:00 Y:00 P:AC SP:25 PPU:  9,250 CYC:25356
CAFF  E8        INX                             A:80 X:00 Y:00 P:AC SP:27 PPU: 25,250 CYC:25362
CB00  A0 08     LDY #$08                        A:80 X:01 Y:00 P:2C SP:27 PPU: 33,250 CYC:25364
CB02  48        PHA                             A:80 X:01 Y:08 P:2C SP:27 PPU: 33,250 CYC:25366
CB03  BD 16 40  LDA $4016,X @ 4017 = 00         A:80 X:01 Y:08 P:2C SP:26 PPU: 41,250 CYC:25369
CB06  85 00     STA $00 = 00                    A:00 X:01 Y:08 P:2E SP:26 PPU: 57,250 CYC:25373
CB08  4A        LSR A                           A:00 X:01 Y:08 P:2E SP:26 PPU: 65,250 CYC:25376
CB09  05 00     ORA $00 = 00                    A:00 X:01 Y:08 P:2E SP:26 PPU: 73,250 CYC:25378
CB0B  4A        LSR A                           A:00 X:01 Y:08 P:2E SP:26 PPU: 81,250 CYC:25381
CB0C  68        PLA                             A:00 X:01 Y:08 P:2E SP:26 PPU: 89,250 CYC:25383
CB0D  2A        ROL A                           A:80 X:01 Y:08 P:AC SP:27 PPU: 97,250 CYC:25387
CB0E  88        DEY                             A:00 X:01 Y:08 P:2F SP:27 PPU:105,250 CYC:25389
CB0F  D0 F1     BNE $CB02                       A:00 X:01 Y:07 P:2D SP:27 PPU:113,250 CYC:25391
CB02  48        PHA                             A:00 X:01 Y:07 P:2D SP:27 PPU:121,250 CYC:25394
CB03  BD 16 40  LDA $4016,X @ 4017 = 00         A:00 X:01 Y:07 P:2D SP:26 PPU:129,250 CYC:25397
CB06  85 00     STA $00 = 00                    A:00 X:01 Y:07 P:2F SP:26 PPU:137,250 CYC:25401
CB08  4A        LSR A                           A:00 X:01 Y:07 P:2F SP:26 PPU:153,250 CYC:25404
CB09  05 00     ORA $00 = 00                    A:00 X:01 Y:07 P:2E SP:26 PPU:153,250 CYC:25406
CB0B  4A        LSR A                           A:00 X:01 Y:07 P:2E SP:26 PPU:161,250 CYC:25409
CB0C  68        PLA                             A:00 X:01 Y:07 P:2E SP:26 PPU:169,250 CYC:25411
CB0D  2A        ROL A                           A:00 X:01 Y:07 P:2E SP:27 PPU:185,250 CYC:25415
CB0E  88        DEY                             A:00 X:01 Y:07 P:2E SP:27 PPU:185,250 CYC:25417
CB0F  D0 F1     BNE $CB02                       A:00 X:01 Y:06 P:2C SP:27 PPU:193,250 CYC:25419
CB02  48        PHA                             A:00 X:01 Y:06 P:2C SP:27 PPU:201,250 CYC:25422
CB03  BD 16 40  LDA $4016,X @ 4017 = 00         A:00 X:01 Y:06 P:2C SP:26 PPU:209,250 CYC:25425
CB06  85 00     STA $00 = 00                    A:00 X:01 Y:06 P:2E SP:26 PPU:225,250 CYC:25429
CB08  4A        LSR A                           A:00 X:01 Y:06 P:2E SP:26 PPU:233,250 CYC:25432
CB09  05 00     ORA $00 = 00                    A:00 X:01 Y:06 P:2E SP:26 PPU:241,250 CYC:25434
CB0B  4A        LSR A                           A:00 X:01 Y:06 P:2E SP:26 PPU:249,250 CYC:25437
CB0C  68        PLA                             A:00 X:01 Y:06 P:2E SP:26 PPU:257,250 CYC:25439
CB0D  2A        ROL A                           A:00 X:01 Y:06 P:2E SP:27 PPU:265,250 CYC:25443
CB0E  88        DEY                             A:00 X:01 Y:06 P:2E SP:27 PPU:273,250 CYC:25445
CB0F  D0 F1     BNE $CB02                       A:00 X:01 Y:05 P:2C SP:27 PPU:281,250 CYC:25447
CB02  48        PHA                             A:00 X:01 Y:05 P:2C SP:27 PPU:289,250 CYC:25450
CB03  BD 16 40  LDA $4016,X @ 4017 = 00         A:00 X:01 Y:05 P:2C SP:26 PPU:297,250 CYC:25453
CB06  85 00     STA $00 = 00                    A:00 X:01 Y:05 P:2E SP:26 PPU:305,250 CYC:25457
CB08  4A        LSR A                           A:00 X:01 Y:05 P:2E SP:26 PPU:321,250 CYC:25460
CB09  05 00     ORA $00 = 00                    A:00 X:01 Y:05 P:2E SP:26 PPU:321,250 CYC:25462
CB0B  4A        LSR A                           A:00 X:01 Y:05 P:2E SP:26 PPU:329,250 CYC:25465
CB0C  68        PLA                             A:00 X:01 Y:05 P:2E SP:26 PPU:335,250 CYC:25467
CB0D  2A        ROL A                           A:00 X:01 Y:05 P:2E SP:27 PPU:  9,251 CYC:25471
CB0E  88        DEY                             A:00 X:01 Y:05 P:2E SP:27 PPU:  9,251 CYC:25473
CB0F  D0 F1     BNE $CB02                       A:00 X:01 Y:04 P:2C SP:27 PPU: 17,251 CYC:25475
CB02  48        PHA                             A:00 X:01 Y:04 P:2C SP:27 PPU: 25,251 CYC:25478
CB03  BD 16 40  LDA $4016,X @ 4017 = 00         A:00 X:01 Y:04 P:2C SP:26 PPU: 33,251 CYC:25481
CB06  85 00     STA $00 = 00                    A:00 X:01 Y:04 P:2E SP:26 PPU: 49,251 CYC:25485
CB08  4A        LSR A                           A:00 X:01 Y:04 P:2E SP:26 PPU: 57,251 CYC:25488
CB09  05 00     ORA $00 = 00                    A:00 X:01 Y:04 P:2E SP:26 PPU: 65,251 CYC:25490
CB0B  4A        LSR A                           A:00 X:01 Y:04 P:2E SP:26 PPU: 73,251 CYC:25493
CB0C  68        PLA                             A:00 X:01 Y:04 P:2E SP:26 PPU: 81,251 CYC:25495
CB0D  2A        ROL A                           A:00 X:01 Y:04 P:2E SP:27 PPU: 89,251 CYC:25499
CB0E  88        DEY                             A:00 X:01 Y:04 P:2E SP:27 PPU: 97,251 CYC:25501
CB0F  D0 F1     BNE $CB02                       A:00 X:01 Y:03 P:2C SP:27 PPU:105,251 CYC:25503
CB02  48        PHA                             A:00 X:01 Y:03 P:2C SP:27 PPU:113,251 CYC:25506
CB03  BD 16 40  LDA $4016,X @ 4017 = 00         A:00 X:01 Y:03 P:2C SP:26 PPU:121,251 CYC:25509
CB06  85 00     STA $00 = 00                    A:00 X:01 Y:03 P:2E SP:26 PPU:129,251 CYC:25513
CB08  4A        LSR A                           A:00 X:01 Y:03 P:2E SP:26 PPU:137,251 CYC:25516
CB09  05 00     ORA $00 = 00                    A:00 X:01 Y:03 P:2E SP:26 PPU:145,251 CYC:25518
CB0B  4A        LSR A                           A:00 X:01 Y:03 P:2E SP:26 PPU:153,251 CYC:25521
CB0C  68        PLA                             A:00 X:01 Y:03 P:2E SP:26 PPU:161,251 CYC:25523
CB0D  2A        ROL A                           A:00 X:01 Y:03 P:2E SP:27 PPU:177,251 CYC:25527
CB0E  88        DEY                             A:00 X:01 Y:03 P:2E SP:27 PPU:177,251 CYC:25529
CB0F  D0 F1     BNE $CB02                       A:00 X:01 Y:02 P:2C SP:27 PPU:185,251 CYC:25531
CB02  48        PHA                             A:00 X:01 Y:02 P:2C SP:27 PPU:193,251 CYC:25534
CB03  BD 16 40  LDA $4016,X @ 4017 = 00         A:00 X:01 Y:02 P:2C SP:26 PPU:201,251 CYC:25537
CB06  85 00     STA $00 = 00                    A:00 X:01 Y:02 P:2E SP:26 PPU:217,251 CYC:25541
CB08  4A        LSR A                           A:00 X:01 Y:02 P:2E SP:26 PPU:225,251 CYC:25544
CB09  05 00     ORA $00 = 00                    A:00 X:01 Y:02 P:2E SP:26 PPU:233,251 CYC:25546
CB0B  4A        LSR A                           A:00 X:01 Y:02 P:2E SP:26 PPU:241,251 CYC:25549
CB0C  68        PLA                             A:00 X:01 Y:02 P:2E SP:26 PPU:249,251 CYC:25551
CB0D  2A        ROL A                           A:00 X:01 Y:02 P:2E SP:27 PPU:257,251 CYC:25555
CB0E  88        DEY                             A:00 X:01 Y:02 P:2E SP:27 PPU:265,251 CYC:25557
CB0F  D0 F1     BNE $CB02                       A:00 X:01 Y:01 P:2C SP:27 PPU:273,251 CYC:25559
CB02  48        PHA                             A:00 X:01 Y:01 P:2C SP:27 PPU:281,251 CYC:25562
CB03  BD 16 40  LDA $4016,X @ 4017 = 00         A:00 X:01 Y:01 P:2C SP:26 PPU:289,251 CYC:25565
CB06  85 00     STA $00 = 00                    A:00 X:01 Y:01 P:2E SP:26 PPU:297,251 CYC:25569
CB08  4A        LSR A                           A:00 X:01 Y:01 P:2E SP:26 PPU:305,251 CYC:25572
CB09  05 00     ORA $00 = 00                    A:00 X:01 Y:01 P:2E SP:26 PPU:313,251 CYC:25574
CB0B  4A        LSR A                           A:00 X:01 Y:01 P:2E SP:26 PPU:321,251 CYC:25577
CB0C  68        PLA                             A:00 X:01 Y:01 P:2E SP:26 PPU:326,251 CYC:25579
CB0D  2A        ROL A                           A:00 X:01 Y:01 P:2E SP:27 PPU:345,251 CYC:25583
CB0E  88        DEY                             A:00 X:01 Y:01 P:2E SP:27 PPU:345,251 CYC:25585
CB0F  D0 F1     BNE $CB02                       A:00 X:01 Y:00 P:2E SP:27 PPU:  9,252 CYC:25587
CB11  86 00     STX $00 = 00                    A:00 X:01 Y:00 P:2E SP:27 PPU: 17,252 CYC:25589
CB13  06 00     ASL $00 = 01                    A:00 X:01 Y:00 P:2E SP:27 PPU: 25,252 CYC:25592
CB15  A6 00     LDX $00 = 02                    A:00 X:01 Y:00 P:2C SP:27 PPU: 41,252 CYC:25597
CB17  B4 14     LDY $14,X @ 16 = 00             A:00 X:02 Y:00 P:2C SP:27 PPU: 49,252 CYC:25600
CB19  84 00     STY $00 = 02                    A:00 X:02 Y:00 P:2E SP:27 PPU: 57,252 CYC:25604
CB1B  95 14     STA $14,X @ 16 = 00             A:00 X:02 Y:00 P:2E SP:27 PPU: 65,252 CYC:25607
CB1D  95 15     STA $15,X @ 17 = 00             A:00 X:02 Y:00 P:2E SP:27 PPU: 81,252 CYC:25611
CB1F  A0 04     LDY #$04                        A:00 X:02 Y:00 P:2E SP:27 PPU: 89,252 CYC:25615
CB21  A5 02     LDA $02 = 80                    A:00 X:02 Y:04 P:2C SP:27 PPU: 97,252 CYC:25617
CB23  24 00     BIT $00 = 00                    A:80 X:02 Y:04 P:AC SP:27 PPU:105,252 CYC:25620
CB25  F0 06     BEQ $CB2D                       A:80 X:02 Y:04 P:2E SP:27 PPU:113,252 CYC:25623
CB2D  38        SEC                             A:80 X:02 Y:04 P:2E SP:27 PPU:129,252 CYC:25626
CB2E  66 01     ROR $01 = 7F                    A:80 X:02 Y:04 P:2F SP:27 PPU:129,252 CYC:25628
CB30  46 02     LSR $02 = 80                    A:80 X:02 Y:04 P:AD SP:27 PPU:145,252 CYC:25633
CB32  88        DEY                             A:80 X:02 Y:04 P:2C SP:27 PPU:161,252 CYC:25638
CB33  D0 EC     BNE $CB21                       A:80 X:02 Y:03 P:2C SP:27 PPU:169,252 CYC:25640
CB21  A5 02     LDA $02 = 40                    A:80 X:02 Y:03 P:2C SP:27 PPU:177,252 CYC:25643
CB23  24 00     BIT $00 = 00                    A:40 X:02 Y:03 P:2C SP:27 PPU:185,252 CYC:25646
CB25  F0 06     BEQ $CB2D                       A:40 X:02 Y:03 P:2E SP:27 PPU:193,252 CYC:25649
CB2D  38        SEC                             A:40 X:02 Y:03 P:2E SP:27 PPU:201,252 CYC:25652
CB2E  66 01     ROR $01 = BF                    A:40 X:02 Y:03 P:2F SP:27 PPU:209,252 CYC:25654
CB30  46 02     LSR $02 = 40                    A:40 X:02 Y:03 P:AD SP:27 PPU:225,252 CYC:25659
CB32  88        DEY                             A:40 X:02 Y:03 P:2C SP:27 PPU:241,252 CYC:25664
CB33  D0 EC     BNE $CB21                       A:40 X:02 Y:02 P:2C SP:27 PPU:249,252 CYC:25666
CB21  A5 02     LDA $02 = 20                    A:40 X:02 Y:02 P:2C SP:27 PPU:257,252 CYC:25669
CB23  24 00     BIT $00 = 00                    A:20 X:02 Y:02 P:2C SP:27 PPU:265,252 CYC:25672
CB25  F0 06     BEQ $CB2D                       A:20 X:02 Y:02 P:2E SP:27 PPU:273,252 CYC:25675
CB2D  38        SEC                             A:20 X:02 Y:02 P:2E SP:27 PPU:281,252 CYC:25678
CB2E  66 01     ROR $01 = DF                    A:20 X:02 Y:02 P:2F SP:27 PPU:289,252 CYC:25680
CB30  46 02     LSR $02 = 20                    A:20 X:02 Y:02 P:AD SP:27 PPU:305,252 CYC:25685
CB32  88        DEY                             A:20 X:02 Y:02 P:2C SP:27 PPU:321,252 CYC:25690
CB33  D0 EC     BNE $CB21                       A:20 X:02 Y:01 P:2C SP:27 PPU:321,252 CYC:25692
CB21  A5 02     LDA $02 = 10                    A:20 X:02 Y:01 P:2C SP:27 PPU:329,252 CYC:25695
CB23  24 00     BIT $00 = 00                    A:10 X:02 Y:01 P:2C SP:27 PPU:345,252 CYC:25698
CB25  F0 06     BEQ $CB2D                       A:10 X:02 Y:01 P:2E SP:27 PPU:  9,253 CYC:25701
CB2D  38        SEC                             A:10 X:02 Y:01 P:2E SP:27 PPU: 17,253 CYC:25704
CB2E  66 01     ROR $01 = EF                    A:10 X:02 Y:01 P:2F SP:27 PPU: 17,253 CYC:25706
CB30  46 02     LSR $02 = 10                    A:10 X:02 Y:01 P:AD SP:27 PPU: 33,253 CYC:25711
CB32  88        DEY                             A:10 X:02 Y:01 P:2C SP:27 PPU: 49,253 CYC:25716
CB33  D0 EC     BNE $CB21                       A:10 X:02 Y:00 P:2E SP:27 PPU: 57,253 CYC:25718
CB35  A9 7F     LDA #$7F                        A:10 X:02 Y:00 P:2E SP:27 PPU: 65,253 CYC:25720
CB37  85 01     STA $01 = F7                    A:7F X:02 Y:00 P:2C SP:27 PPU: 65,253 CYC:25722
CB39  A9 80     LDA #$80                        A:7F X:02 Y:00 P:2C SP:27 PPU: 81,253 CYC:25725
CB3B  85 02     STA $02 = 08                    A:80 X:02 Y:00 P:AC SP:27 PPU: 81,253 CYC:25727
CB3D  60        RTS                             A:80 X:02 Y:00 P:AC SP:27 PPU: 89,253 CYC:25730
C0C6  20 1E F9  JSR $F91E                       A:80 X:02 Y:00 P:AC SP:29 PPU:113,253 CYC:25736
F91E  A9 FF     LDA #$FF                        A:80 X:02 Y:00 P:AC SP:27 PPU:129,253 CYC:25742
F920  8D 17 40  STA $4017 = 00                  A:FF X:02 Y:00 P:AC SP:27 PPU:137,253 CYC:25744
F923  20 EB F9  JSR $F9EB                       A:FF X:02 Y:00 P:AC SP:27 PPU:145,253 CYC:25748
F9EB  A4 FF     LDY $FF = 00                    A:FF X:02 Y:00 P:AC SP:25 PPU:161,253 CYC:25754
F9ED  A5 F0     LDA $F0 = 00                    A:FF X:02 Y:00 P:2E SP:25 PPU:177,253 CYC:25757
F9EF  46 FF     LSR $FF = 00                    A:00 X:02 Y:00 P:2E SP:25 PPU:185,253 CYC:25760
F9F1  B0 B8     BCS $F9AB                       A:00 X:02 Y:00 P:2E SP:25 PPU:201,253 CYC:25765
F9F3  4A        LSR A                           A:00 X:02 Y:00 P:2E SP:25 PPU:201,253 CYC:25767
F9F4  B0 BB     BCS $F9B1                       A:00 X:02 Y:00 P:2E SP:25 PPU:209,253 CYC:25769
F9F6  46 FF     LSR $FF = 00                    A:00 X:02 Y:00 P:2E SP:25 PPU:217,253 CYC:25771
F9F8  B0 CE     BCS $F9C8                       A:00 X:02 Y:00 P:2E SP:25 PPU:233,253 CYC:25776
F9FA  4A        LSR A                           A:00 X:02 Y:00 P:2E SP:25 PPU:233,253 CYC:25778
F9FB  B0 D3     BCS $F9D0                       A:00 X:02 Y:00 P:2E SP:25 PPU:241,253 CYC:25780
F9FD  46 FF     LSR $FF = 00                    A:00 X:02 Y:00 P:2E SP:25 PPU:249,253 CYC:25782
F9FF  B0 0B     BCS $FA0C                       A:00 X:02 Y:00 P:2E SP:25 PPU:265,253 CYC:25787
FA01  4A        LSR A                           A:00 X:02 Y:00 P:2E SP:25 PPU:273,253 CYC:25789
FA02  B0 17     BCS $FA1B                       A:00 X:02 Y:00 P:2E SP:25 PPU:273,253 CYC:25791
FA04  46 FF     LSR $FF = 00                    A:00 X:02 Y:00 P:2E SP:25 PPU:281,253 CYC:25793
FA06  B0 38     BCS $FA40                       A:00 X:02 Y:00 P:2E SP:25 PPU:297,253 CYC:25798
FA08  4A        LSR A                           A:00 X:02 Y:00 P:2E SP:25 PPU:305,253 CYC:25800
FA09  B0 3F     BCS $FA4A                       A:00 X:02 Y:00 P:2E SP:25 PPU:305,253 CYC:25802
FA0B  60        RTS                             A:00 X:02 Y:00 P:2E SP:25 PPU:313,253 CYC:25804
F926  20 C4 FA  JSR $FAC4                       A:00 X:02 Y:00 P:2E SP:27 PPU:329,253 CYC:25810
FAC4  A4 FE     LDY $FE = 00                    A:00 X:02 Y:00 P:2E SP:25 PPU:  9,254 CYC:25816
FAC6  A5 F1     LDA $F1 = 00                    A:00 X:02 Y:00 P:2E SP:25 PPU: 17,254 CYC:25819
FAC8  46 FE     LSR $FE = 00                    A:00 X:02 Y:00 P:2E SP:25 PPU: 25,254 CYC:25822
FACA  B0 98     BCS $FA64                       A:00 X:02 Y:00 P:2E SP:25 PPU: 41,254 CYC:25827
FACC  4A        LSR A                           A:00 X:02 Y:00 P:2E SP:25 PPU: 41,254 CYC:25829
FACD  B0 9C     BCS $FA6B                       A:00 X:02 Y:00 P:2E SP:25 PPU: 49,254 CYC:25831
FACF  46 FE     LSR $FE = 00                    A:00 X:02 Y:00 P:2E SP:25 PPU: 57,254 CYC:25833
FAD1  B0 B0     BCS $FA83                       A:00 X:02 Y:00 P:2E SP:25 PPU: 73,254 CYC:25838
FAD3  4A        LSR A                           A:00 X:02 Y:00 P:2E SP:25 PPU: 81,254 CYC:25840
FAD4  B0 BE     BCS $FA94                       A:00 X:02 Y:00 P:2E SP:25 PPU: 81,254 CYC:25842
FAD6  46 FE     LSR $FE = 00                    A:00 X:02 Y:00 P:2E SP:25 PPU: 89,254 CYC:25844
FAD8  B0 12     BCS $FAEC                       A:00 X:02 Y:00 P:2E SP:25 PPU:105,254 CYC:25849
FADA  4A        LSR A                           A:00 X:02 Y:00 P:2E SP:25 PPU:113,254 CYC:25851
FADB  B0 D8     BCS $FAB5                       A:00 X:02 Y:00 P:2E SP:25 PPU:113,254 CYC:25853
FADD  4A        LSR A                           A:00 X:02 Y:00 P:2E SP:25 PPU:121,254 CYC:25855
FADE  B0 29     BCS $FB09                       A:00 X:02 Y:00 P:2E SP:25 PPU:129,254 CYC:25857
FAE0  46 FE     LSR $FE = 00                    A:00 X:02 Y:00 P:2E SP:25 PPU:137,254 CYC:25859
FAE2  B0 15     BCS $FAF9                       A:00 X:02 Y:00 P:2E SP:25 PPU:153,254 CYC:25864
FAE4  46 FE     LSR $FE = 00                    A:00 X:02 Y:00 P:2E SP:25 PPU:153,254 CYC:25866
FAE6  B0 2F     BCS $FB17                       A:00 X:02 Y:00 P:2E SP:25 PPU:169,254 CYC:25871
FAE8  4A        LSR A                           A:00 X:02 Y:00 P:2E SP:25 PPU:177,254 CYC:25873
FAE9  B0 CA     BCS $FAB5                       A:00 X:02 Y:00 P:2E SP:25 PPU:185,254 CYC:25875
FAEB  60        RTS                             A:00 X:02 Y:00 P:2E SP:25 PPU:185,254 CYC:25877
F929  20 A1 FB  JSR $FBA1                       A:00 X:02 Y:00 P:2E SP:27 PPU:209,254 CYC:25883
FBA1  A4 FC     LDY $FC = 00                    A:00 X:02 Y:00 P:2E SP:25 PPU:225,254 CYC:25889
FBA3  A5 F2     LDA $F2 = 00                    A:00 X:02 Y:00 P:2E SP:25 PPU:233,254 CYC:25892
FBA5  46 FC     LSR $FC = 00                    A:00 X:02 Y:00 P:2E SP:25 PPU:241,254 CYC:25895
FBA7  B0 C8     BCS $FB71                       A:00 X:02 Y:00 P:2E SP:25 PPU:257,254 CYC:25900
FBA9  4A        LSR A                           A:00 X:02 Y:00 P:2E SP:25 PPU:265,254 CYC:25902
FBAA  B0 CC     BCS $FB78                       A:00 X:02 Y:00 P:2E SP:25 PPU:273,254 CYC:25904
FBAC  46 FC     LSR $FC = 00                    A:00 X:02 Y:00 P:2E SP:25 PPU:273,254 CYC:25906
FBAE  B0 0B     BCS $FBBB                       A:00 X:02 Y:00 P:2E SP:25 PPU:289,254 CYC:25911
FBB0  4A        LSR A                           A:00 X:02 Y:00 P:2E SP:25 PPU:297,254 CYC:25913
FBB1  B0 18     BCS $FBCB                       A:00 X:02 Y:00 P:2E SP:25 PPU:305,254 CYC:25915
FBB3  46 FC     LSR $FC = 00                    A:00 X:02 Y:00 P:2E SP:25 PPU:305,254 CYC:25917
FBB5  B0 24     BCS $FBDB                       A:00 X:02 Y:00 P:2E SP:25 PPU:321,254 CYC:25922
FBB7  4A        LSR A                           A:00 X:02 Y:00 P:2E SP:25 PPU:326,254 CYC:25924
FBB8  B0 31     BCS $FBEB                       A:00 X:02 Y:00 P:2E SP:25 PPU:332,254 CYC:25926
FBBA  60        RTS                             A:00 X:02 Y:00 P:2E SP:25 PPU:345,254 CYC:25928
F92C  20 FC FB  JSR $FBFC                       A:00 X:02 Y:00 P:2E SP:27 PPU: 17,255 CYC:25934
FBFC  A5 FB     LDA $FB = 00                    A:00 X:02 Y:00 P:2E SP:25 PPU: 33,255 CYC:25940
FBFE  D0 05     BNE $FC05                       A:00 X:02 Y:00 P:2E SP:25 PPU: 41,255 CYC:25943
FC00  A5 F3     LDA $F3 = 00                    A:00 X:02 Y:00 P:2E SP:25 PPU: 49,255 CYC:25945
FC02  D0 4D     BNE $FC51                       A:00 X:02 Y:00 P:2E SP:25 PPU: 57,255 CYC:25948
FC04  60        RTS                             A:00 X:02 Y:00 P:2E SP:25 PPU: 65,255 CYC:25950
F92F  A9 00     LDA #$00                        A:00 X:02 Y:00 P:2E SP:27 PPU: 81,255 CYC:25956
F931  85 FF     STA $FF = 00                    A:00 X:02 Y:00 P:2E SP:27 PPU: 89,255 CYC:25958
F933  85 FE     STA $FE = 00                    A:00 X:02 Y:00 P:2E SP:27 PPU: 97,255 CYC:25961
F935  85 FC     STA $FC = 00                    A:00 X:02 Y:00 P:2E SP:27 PPU:105,255 CYC:25964
F937  85 FB     STA $FB = 00                    A:00 X:02 Y:00 P:2E SP:27 PPU:113,255 CYC:25967
F939  AC 11 07  LDY $0711 = 00                  A:00 X:02 Y:00 P:2E SP:27 PPU:121,255 CYC:25970
F93C  A5 F3     LDA $F3 = 00                    A:00 X:02 Y:00 P:2E SP:27 PPU:137,255 CYC:25974
F93E  29 0C     AND #$0C                        A:00 X:02 Y:00 P:2E SP:27 PPU:145,255 CYC:25977
F940  F0 07     BEQ $F949                       A:00 X:02 Y:00 P:2E SP:27 PPU:153,255 CYC:25979
F949  98        TYA                             A:00 X:02 Y:00 P:2E SP:27 PPU:161,255 CYC:25982
F94A  F0 03     BEQ $F94F                       A:00 X:02 Y:00 P:2E SP:27 PPU:161,255 CYC:25984
F94F  8C 11 40  STY $4011 = 00                  A:00 X:02 Y:00 P:2E SP:27 PPU:177,255 CYC:25987
F952  60        RTS                             A:00 X:02 Y:00 P:2E SP:27 PPU:185,255 CYC:25991
C0C9  A5 53     LDA $53 = 00                    A:00 X:02 Y:00 P:2E SP:29 PPU:201,255 CYC:25997
C0CB  F0 06     BEQ $C0D3                       A:00 X:02 Y:00 P:2E SP:29 PPU:209,255 CYC:26000
C0D3  A5 51     LDA $51 = 01                    A:00 X:02 Y:00 P:2E SP:29 PPU:225,255 CYC:26003
C0D5  F0 4F     BEQ $C126                       A:01 X:02 Y:00 P:2C SP:29 PPU:233,255 CYC:26006
C0D7  AE 4C 03  LDX $034C = 02                  A:01 X:02 Y:00 P:2C SP:29 PPU:233,255 CYC:26008
C0DA  F0 3E     BEQ $C11A                       A:01 X:02 Y:00 P:2C SP:29 PPU:249,255 CYC:26012
C0DC  CA        DEX                             A:01 X:02 Y:00 P:2C SP:29 PPU:257,255 CYC:26014
C0DD  F0 24     BEQ $C103                       A:01 X:01 Y:00 P:2C SP:29 PPU:257,255 CYC:26016
C0DF  CA        DEX                             A:01 X:01 Y:00 P:2C SP:29 PPU:265,255 CYC:26018
C0E0  D0 1E     BNE $C100                       A:01 X:00 Y:00 P:2E SP:29 PPU:273,255 CYC:26020
C0E2  A5 11     LDA $11 = 1F                    A:01 X:00 Y:00 P:2E SP:29 PPU:281,255 CYC:26022
C0E4  29 EF     AND #$EF                        A:1F X:00 Y:00 P:2C SP:29 PPU:289,255 CYC:26025
C0E6  8D 01 20  STA $2001 = 1F                  A:0F X:00 Y:00 P:2C SP:29 PPU:297,255 CYC:26027
C0E9  85 11     STA $11 = 1F                    A:0F X:00 Y:00 P:2C SP:29 PPU:305,255 CYC:26031
C0EB  A5 15     LDA $15 = 00                    A:0F X:00 Y:00 P:2C SP:29 PPU:313,255 CYC:26034
C0ED  29 10     AND #$10                        A:00 X:00 Y:00 P:2E SP:29 PPU:321,255 CYC:26037
C0EF  F0 47     BEQ $C138                       A:00 X:00 Y:00 P:2E SP:29 PPU:326,255 CYC:26039
C138  20 41 C1  JSR $C141                       A:00 X:00 Y:00 P:2E SP:29 PPU:345,255 CYC:26043
C141  AD 02 20  LDA $2002 = 0F                  A:00 X:00 Y:00 P:2E SP:27 PPU: 17,256 CYC:26049
C144  A5 10     LDA $10 = 11                    A:0F X:00 Y:00 P:2C SP:27 PPU: 25,256 CYC:26053
C146  09 80     ORA #$80                        A:11 X:00 Y:00 P:2C SP:27 PPU: 33,256 CYC:26056
C148  85 10     STA $10 = 11                    A:91 X:00 Y:00 P:AC SP:27 PPU: 41,256 CYC:26058
C14A  8D 00 20  STA $2000 = 11                  A:91 X:00 Y:00 P:AC SP:27 PPU: 49,256 CYC:26061
C14D  60        RTS                             A:91 X:00 Y:00 P:AC SP:27 PPU: 65,256 CYC:26065
C13B  68        PLA                             A:91 X:00 Y:00 P:AC SP:29 PPU: 81,256 CYC:26071
C13C  A8        TAY                             A:10 X:00 Y:00 P:2C SP:2A PPU: 89,256 CYC:26075
C13D  68        PLA                             A:10 X:00 Y:10 P:2C SP:2A PPU: 97,256 CYC:26077
C13E  AA        TAX                             A:2D X:00 Y:10 P:2C SP:2B PPU:113,256 CYC:26081
C13F  68        PLA                             A:2D X:2D Y:10 P:2C SP:2B PPU:113,256 CYC:26083
C140  40        RTI                             A:FF X:2D Y:10 P:AC SP:2C PPU:129,256 CYC:26087
00C6  00        BRK                             A:FF X:2D Y:10 P:A8 SP:2F PPU:145,256 CYC:26093
C076  48        PHA                             A:FF X:2D Y:10 P:AC SP:2C PPU:169,256 CYC:26100
C077  8A        TXA                             A:FF X:2D Y:10 P:AC SP:2B PPU:177,256 CYC:26103
C078  48        PHA                             A:2D X:2D Y:10 P:2C SP:2B PPU:185,256 CYC:26105
C079  98        TYA                             A:2D X:2D Y:10 P:2C SP:2A PPU:193,256 CYC:26108
C07A  48        PHA                             A:10 X:2D Y:10 P:2C SP:2A PPU:201,256 CYC:26110
C07B  A5 10     LDA $10 = 91                    A:10 X:2D Y:10 P:2C SP:29 PPU:209,256 CYC:26113
C07D  A6 DE     LDX $DE = 00                    A:91 X:2D Y:10 P:AC SP:29 PPU:217,256 CYC:26116
C07F  F0 02     BEQ $C083                       A:91 X:00 Y:10 P:2E SP:29 PPU:225,256 CYC:26119
C083  29 7F     AND #$7F                        A:91 X:00 Y:10 P:2E SP:29 PPU:233,256 CYC:26122
C085  20 48 C1  JSR $C148                       A:11 X:00 Y:10 P:2C SP:29 PPU:241,256 CYC:26124
C148  85 10     STA $10 = 91                    A:11 X:00 Y:10 P:2C SP:27 PPU:257,256 CYC:26130
C14A  8D 00 20  STA $2000 = 91                  A:11 X:00 Y:10 P:2C SP:27 PPU:265,256 CYC:26133
C14D  60        RTS                             A:11 X:00 Y:10 P:2C SP:27 PPU:281,256 CYC:26137
C088  A5 52     LDA $52 = 00                    A:11 X:00 Y:10 P:2C SP:29 PPU:297,256 CYC:26143
C08A  D0 09     BNE $C095                       A:00 X:00 Y:10 P:2E SP:29 PPU:305,256 CYC:26146
C08C  A5 11     LDA $11 = 0F                    A:00 X:00 Y:10 P:2E SP:29 PPU:313,256 CYC:26148
C08E  09 1E     ORA #$1E                        A:0F X:00 Y:10 P:2C SP:29 PPU:321,256 CYC:26151
C090  8D 01 20  STA $2001 = 0F                  A:1F X:00 Y:10 P:2C SP:29 PPU:323,256 CYC:26153
C093  85 11     STA $11 = 0F                    A:1F X:00 Y:10 P:2C SP:29 PPU:335,256 CYC:26157
C095  A9 00     LDA #$00                        A:1F X:00 Y:10 P:2C SP:29 PPU:345,256 CYC:26160
C097  8D 03 20  STA $2003 = 00                  A:00 X:00 Y:10 P:2E SP:29 PPU:  9,257 CYC:26162
C09A  A9 02     LDA #$02                        A:00 X:00 Y:10 P:2E SP:29 PPU: 17,257 CYC:26166
C09C  8D 14 40  STA $4014 = 00                  A:02 X:00 Y:10 P:2C SP:29 PPU: 25,257 CYC:26168
C09F  A6 52     LDX $52 = 00                    A:02 X:00 Y:10 P:2C SP:29 PPU:201,261 CYC:26685
C0A1  20 50 C1  JSR $C150                       A:02 X:00 Y:10 P:2E SP:29 PPU:209,261 CYC:26688
C150  BD 00 C0  LDA $C000,X @ C000 = 01         A:02 X:00 Y:10 P:2E SP:27 PPU:225,261 CYC:26694
C153  85 00     STA $00 = 00                    A:01 X:00 Y:10 P:2C SP:27 PPU:233,261 CYC:26698
C155  BD 0A C0  LDA $C00A,X @ C00A = 03         A:01 X:00 Y:10 P:2C SP:27 PPU:249,261 CYC:26701
C158  85 01     STA $01 = 7F                    A:03 X:00 Y:10 P:2C SP:27 PPU:257,261 CYC:26705
C15A  20 78 CB  JSR $CB78                       A:03 X:00 Y:10 P:2C SP:27 PPU:265,261 CYC:26708
CB78  AE 02 20  LDX $2002 = 00                  A:03 X:00 Y:10 P:2C SP:25 PPU:281,261 CYC:26714
CB7B  A0 00     LDY #$00                        A:03 X:00 Y:10 P:2E SP:25 PPU:297,261 CYC:26718
CB7D  B1 00     LDA ($00),Y = 0301 @ 0301 = 00  A:03 X:00 Y:00 P:2E SP:25 PPU:305,261 CYC:26720
CB7F  D0 BD     BNE $CB3E                       A:00 X:00 Y:00 P:2E SP:25 PPU:321,261 CYC:26725
CB81  A5 12     LDA $12 = 01                    A:00 X:00 Y:00 P:2E SP:25 PPU:321,261 CYC:26727
CB83  8D 05 20  STA $2005 = 9F                  A:01 X:00 Y:00 P:2C SP:25 PPU:329,261 CYC:26730
CB86  A5 13     LDA $13 = 9F                    A:01 X:00 Y:00 P:2C SP:25 PPU:345,261 CYC:26734
CB88  8D 05 20  STA $2005 = 01                  A:9F X:00 Y:00 P:AC SP:25 PPU:  9,  0 CYC:26737
CB8B  60        RTS                             A:9F X:00 Y:00 P:AC SP:25 PPU: 17,  0 CYC:26741
C15D  A9 00     LDA #$00                        A:9F X:00 Y:00 P:AC SP:27 PPU: 41,  0 CYC:26747
C15F  8D 00 03  STA $0300 = 00                  A:00 X:00 Y:00 P:2E SP:27 PPU: 41,  0 CYC:26749
C162  8D 01 03  STA $0301 = 00                  A:00 X:00 Y:00 P:2E SP:27 PPU: 57,  0 CYC:26753
C165  60        RTS                             A:00 X:00 Y:00 P:2E SP:27 PPU: 65,  0 CYC:26757
C0A4  85 52     STA $52 = 00                    A:00 X:00 Y:00 P:2E SP:29 PPU: 89,  0 CYC:26763
C0A6  85 DE     STA $DE = 00                    A:00 X:00 Y:00 P:2E SP:29 PPU: 97,  0 CYC:26766
C0A8  A9 3F     LDA #$3F                        A:00 X:00 Y:00 P:2E SP:29 PPU:105,  0 CYC:26769
C0AA  8D 06 20  STA $2006 = 00                  A:3F X:00 Y:00 P:2C SP:29 PPU:113,  0 CYC:26771
C0AD  A9 00     LDA #$00                        A:3F X:00 Y:00 P:2C SP:29 PPU:121,  0 CYC:26775
C0AF  8D 06 20  STA $2006 = 3F                  A:00 X:00 Y:00 P:2E SP:29 PPU:129,  0 CYC:26777
C0B2  8D 06 20  STA $2006 = 00                  A:00 X:00 Y:00 P:2E SP:29 PPU:137,  0 CYC:26781
C0B5  8D 06 20  STA $2006 = 00                  A:00 X:00 Y:00 P:2E SP:29 PPU:153,  0 CYC:26785
C0B8  AD 02 20  LDA $2002 = 00                  A:00 X:00 Y:00 P:2E SP:29 PPU:161,  0 CYC:26789
C0BB  20 81 CB  JSR $CB81                       A:00 X:00 Y:00 P:2E SP:29 PPU:177,  0 CYC:26793
CB81  A5 12     LDA $12 = 01                    A:00 X:00 Y:00 P:2E SP:27 PPU:193,  0 CYC:26799
CB83  8D 05 20  STA $2005 = 9F                  A:01 X:00 Y:00 P:2C SP:27 PPU:201,  0 CYC:26802
CB86  A5 13     LDA $13 = 9F                    A:01 X:00 Y:00 P:2C SP:27 PPU:217,  0 CYC:26806
CB88  8D 05 20  STA $2005 = 01                  A:9F X:00 Y:00 P:AC SP:27 PPU:225,  0 CYC:26809
CB8B  60        RTS                             A:9F X:00 Y:00 P:AC SP:27 PPU:233,  0 CYC:26813
C0BE  A5 10     LDA $10 = 11                    A:9F X:00 Y:00 P:AC SP:29 PPU:257,  0 CYC:26819
C0C0  8D 00 20  STA $2000 = 11                  A:11 X:00 Y:00 P:2C SP:29 PPU:265,  0 CYC:26822
C0C3  20 ED CA  JSR $CAED                       A:11 X:00 Y:00 P:2C SP:29 PPU:273,  0 CYC:26826
CAED  20 35 CB  JSR $CB35                       A:11 X:00 Y:00 P:2C SP:27 PPU:297,  0 CYC:26832
CB35  A9 7F     LDA #$7F                        A:11 X:00 Y:00 P:2C SP:25 PPU:313,  0 CYC:26838
CB37  85 01     STA $01 = 03                    A:7F X:00 Y:00 P:2C SP:25 PPU:321,  0 CYC:26840
CB39  A9 80     LDA #$80                        A:7F X:00 Y:00 P:2C SP:25 PPU:323,  0 CYC:26843
CB3B  85 02     STA $02 = 80                    A:80 X:00 Y:00 P:AC SP:25 PPU:329,  0 CYC:26845
CB3D  60        RTS                             A:80 X:00 Y:00 P:AC SP:25 PPU:345,  0 CYC:26848
CAF0  A9 01     LDA #$01                        A:80 X:00 Y:00 P:AC SP:27 PPU: 17,  1 CYC:26854
CAF2  8D 16 40  STA $4016 = 00                  A:01 X:00 Y:00 P:2C SP:27 PPU: 17,  1 CYC:26856
CAF5  A2 00     LDX #$00                        A:01 X:00 Y:00 P:2C SP:27 PPU: 33,  1 CYC:26860
CAF7  A9 00     LDA #$00                        A:01 X:00 Y:00 P:2E SP:27 PPU: 41,  1 CYC:26862
CAF9  8D 16 40  STA $4016 = 00                  A:00 X:00 Y:00 P:2E SP:27 PPU: 41,  1 CYC:26864
CAFC  20 00 CB  JSR $CB00                       A:00 X:00 Y:00 P:2E SP:27 PPU: 57,  1 CYC:26868
CB00  A0 08     LDY #$08                        A:00 X:00 Y:00 P:2E SP:25 PPU: 73,  1 CYC:26874
CB02  48        PHA                             A:00 X:00 Y:08 P:2C SP:25 PPU: 81,  1 CYC:26876
CB03  BD 16 40  LDA $4016,X @ 4016 = 00         A:00 X:00 Y:08 P:2C SP:24 PPU: 89,  1 CYC:26879
CB06  85 00     STA $00 = 01                    A:00 X:00 Y:08 P:2E SP:24 PPU:105,  1 CYC:26883
CB08  4A        LSR A                           A:00 X:00 Y:08 P:2E SP:24 PPU:113,  1 CYC:26886
CB09  05 00     ORA $00 = 00                    A:00 X:00 Y:08 P:2E SP:24 PPU:113,  1 CYC:26888
CB0B  4A        LSR A                           A:00 X:00 Y:08 P:2E SP:24 PPU:129,  1 CYC:26891
CB0C  68        PLA                             A:00 X:00 Y:08 P:2E SP:24 PPU:129,  1 CYC:26893
CB0D  2A        ROL A                           A:00 X:00 Y:08 P:2E SP:25 PPU:145,  1 CYC:26897
CB0E  88        DEY                             A:00 X:00 Y:08 P:2E SP:25 PPU:153,  1 CYC:26899
CB0F  D0 F1     BNE $CB02                       A:00 X:00 Y:07 P:2C SP:25 PPU:153,  1 CYC:26901
CB02  48        PHA                             A:00 X:00 Y:07 P:2C SP:25 PPU:161,  1 CYC:26904
CB03  BD 16 40  LDA $4016,X @ 4016 = 00         A:00 X:00 Y:07 P:2C SP:24 PPU:177,  1 CYC:26907
CB06  85 00     STA $00 = 00                    A:00 X:00 Y:07 P:2E SP:24 PPU:185,  1 CYC:26911
CB08  4A        LSR A                           A:00 X:00 Y:07 P:2E SP:24 PPU:193,  1 CYC:26914
CB09  05 00     ORA $00 = 00                    A:00 X:00 Y:07 P:2E SP:24 PPU:201,  1 CYC:26916
CB0B  4A        LSR A                           A:00 X:00 Y:07 P:2E SP:24 PPU:209,  1 CYC:26919
CB0C  68        PLA                             A:00 X:00 Y:07 P:2E SP:24 PPU:217,  1 CYC:26921
CB0D  2A        ROL A                           A:00 X:00 Y:07 P:2E SP:25 PPU:225,  1 CYC:26925
CB0E  88        DEY                             A:00 X:00 Y:07 P:2E SP:25 PPU:233,  1 CYC:26927
CB0F  D0 F1     BNE $CB02                       A:00 X:00 Y:06 P:2C SP:25 PPU:241,  1 CYC:26929
CB02  48        PHA                             A:00 X:00 Y:06 P:2C SP:25 PPU:249,  1 CYC:26932
CB03  BD 16 40  LDA $4016,X @ 4016 = 00         A:00 X:00 Y:06 P:2C SP:24 PPU:257,  1 CYC:26935
CB06  85 00     STA $00 = 00                    A:00 X:00 Y:06 P:2E SP:24 PPU:273,  1 CYC:26939
CB08  4A        LSR A                           A:00 X:00 Y:06 P:2E SP:24 PPU:281,  1 CYC:26942
CB09  05 00     ORA $00 = 00                    A:00 X:00 Y:06 P:2E SP:24 PPU:281,  1 CYC:26944
CB0B  4A        LSR A                           A:00 X:00 Y:06 P:2E SP:24 PPU:297,  1 CYC:26947
CB0C  68        PLA                             A:00 X:00 Y:06 P:2E SP:24 PPU:297,  1 CYC:26949
CB0D  2A        ROL A                           A:00 X:00 Y:06 P:2E SP:25 PPU:313,  1 CYC:26953
CB0E  88        DEY                             A:00 X:00 Y:06 P:2E SP:25 PPU:321,  1 CYC:26955
CB0F  D0 F1     BNE $CB02                       A:00 X:00 Y:05 P:2C SP:25 PPU:321,  1 CYC:26957
CB02  48        PHA                             A:00 X:00 Y:05 P:2C SP:25 PPU:329,  1 CYC:26960
CB03  BD 16 40  LDA $4016,X @ 4016 = 00         A:00 X:00 Y:05 P:2C SP:24 PPU:345,  1 CYC:26963
CB06  85 00     STA $00 = 00                    A:00 X:00 Y:05 P:2E SP:24 PPU:  9,  2 CYC:26967
CB08  4A        LSR A                           A:00 X:00 Y:05 P:2E SP:24 PPU: 17,  2 CYC:26970
CB09  05 00     ORA $00 = 00                    A:00 X:00 Y:05 P:2E SP:24 PPU: 25,  2 CYC:26972
CB0B  4A        LSR A                           A:00 X:00 Y:05 P:2E SP:24 PPU: 33,  2 CYC:26975
CB0C  68        PLA                             A:00 X:00 Y:05 P:2E SP:24 PPU: 41,  2 CYC:26977
CB0D  2A        ROL A                           A:00 X:00 Y:05 P:2E SP:25 PPU: 49,  2 CYC:26981
CB0E  88        DEY                             A:00 X:00 Y:05 P:2E SP:25 PPU: 57,  2 CYC:26983
CB0F  D0 F1     BNE $CB02                       A:00 X:00 Y:04 P:2C SP:25 PPU: 65,  2 CYC:26985
CB02  48        PHA                             A:00 X:00 Y:04 P:2C SP:25 PPU: 73,  2 CYC:26988
CB03  BD 16 40  LDA $4016,X @ 4016 = 00         A:00 X:00 Y:04 P:2C SP:24 PPU: 81,  2 CYC:26991
CB06  85 00     STA $00 = 00                    A:00 X:00 Y:04 P:2E SP:24 PPU: 89,  2 CYC:26995
CB08  4A        LSR A                           A:00 X:00 Y:04 P:2E SP:24 PPU:105,  2 CYC:26998
CB09  05 00     ORA $00 = 00                    A:00 X:00 Y:04 P:2E SP:24 PPU:105,  2 CYC:27000
CB0B  4A        LSR A                           A:00 X:00 Y:04 P:2E SP:24 PPU:113,  2 CYC:27003
CB0C  68        PLA                             A:00 X:00 Y:04 P:2E SP:24 PPU:121,  2 CYC:27005
CB0D  2A        ROL A                           A:00 X:00 Y:04 P:2E SP:25 PPU:137,  2 CYC:27009
CB0E  88        DEY                             A:00 X:00 Y:04 P:2E SP:25 PPU:137,  2 CYC:27011
CB0F  D0 F1     BNE $CB02                       A:00 X:00 Y:03 P:2C SP:25 PPU:145,  2 CYC:27013
CB02  48        PHA                             A:00 X:00 Y:03 P:2C SP:25 PPU:153,  2 CYC:27016
CB03  BD 16 40  LDA $4016,X @ 4016 = 00         A:00 X:00 Y:03 P:2C SP:24 PPU:161,  2 CYC:27019
CB06  85 00     STA $00 = 00                    A:00 X:00 Y:03 P:2E SP:24 PPU:177,  2 CYC:27023
CB08  4A        LSR A                           A:00 X:00 Y:03 P:2E SP:24 PPU:185,  2 CYC:27026
CB09  05 00     ORA $00 = 00                    A:00 X:00 Y:03 P:2E SP:24 PPU:193,  2 CYC:27028
CB0B  4A        LSR A                           A:00 X:00 Y:03 P:2E SP:24 PPU:201,  2 CYC:27031
CB0C  68        PLA                             A:00 X:00 Y:03 P:2E SP:24 PPU:209,  2 CYC:27033
CB0D  2A        ROL A                           A:00 X:00 Y:03 P:2E SP:25 PPU:217,  2 CYC:27037
CB0E  88        DEY                             A:00 X:00 Y:03 P:2E SP:25 PPU:225,  2 CYC:27039
CB0F  D0 F1     BNE $CB02                       A:00 X:00 Y:02 P:2C SP:25 PPU:233,  2 CYC:27041
CB02  48        PHA                             A:00 X:00 Y:02 P:2C SP:25 PPU:241,  2 CYC:27044
CB03  BD 16 40  LDA $4016,X @ 4016 = 00         A:00 X:00 Y:02 P:2C SP:24 PPU:249,  2 CYC:27047
CB06  85 00     STA $00 = 00                    A:00 X:00 Y:02 P:2E SP:24 PPU:257,  2 CYC:27051
CB08  4A        LSR A                           A:00 X:00 Y:02 P:2E SP:24 PPU:273,  2 CYC:27054
CB09  05 00     ORA $00 = 00                    A:00 X:00 Y:02 P:2E SP:24 PPU:273,  2 CYC:27056
CB0B  4A        LSR A                           A:00 X:00 Y:02 P:2E SP:24 PPU:281,  2 CYC:27059
CB0C  68        PLA                             A:00 X:00 Y:02 P:2E SP:24 PPU:289,  2 CYC:27061
CB0D  2A        ROL A                           A:00 X:00 Y:02 P:2E SP:25 PPU:305,  2 CYC:27065
CB0E  88        DEY                             A:00 X:00 Y:02 P:2E SP:25 PPU:305,  2 CYC:27067
CB0F  D0 F1     BNE $CB02                       A:00 X:00 Y:01 P:2C SP:25 PPU:313,  2 CYC:27069
CB02  48        PHA                             A:00 X:00 Y:01 P:2C SP:25 PPU:321,  2 CYC:27072
CB03  BD 16 40  LDA $4016,X @ 4016 = 00         A:00 X:00 Y:01 P:2C SP:24 PPU:329,  2 CYC:27075
CB06  85 00     STA $00 = 00                    A:00 X:00 Y:01 P:2E SP:24 PPU:345,  2 CYC:27079
CB08  4A        LSR A                           A:00 X:00 Y:01 P:2E SP:24 PPU:  9,  3 CYC:27082
CB09  05 00     ORA $00 = 00                    A:00 X:00 Y:01 P:2E SP:24 PPU: 17,  3 CYC:27084
CB0B  4A        LSR A                           A:00 X:00 Y:01 P:2E SP:24 PPU: 25,  3 CYC:27087
CB0C  68        PLA                             A:00 X:00 Y:01 P:2E SP:24 PPU: 33,  3 CYC:27089
CB0D  2A        ROL A                           A:00 X:00 Y:01 P:2E SP:25 PPU: 41,  3 CYC:27093
CB0E  88        DEY                             A:00 X:00 Y:01 P:2E SP:25 PPU: 49,  3 CYC:27095
CB0F  D0 F1     BNE $CB02                       A:00 X:00 Y:00 P:2E SP:25 PPU: 57,  3 CYC:27097
CB11  86 00     STX $00 = 00                    A:00 X:00 Y:00 P:2E SP:25 PPU: 57,  3 CYC:27099
CB13  06 00     ASL $00 = 00                    A:00 X:00 Y:00 P:2E SP:25 PPU: 65,  3 CYC:27102
CB15  A6 00     LDX $00 = 00                    A:00 X:00 Y:00 P:2E SP:25 PPU: 81,  3 CYC:27107
CB17  B4 14     LDY $14,X @ 14 = 00             A:00 X:00 Y:00 P:2E SP:25 PPU: 89,  3 CYC:27110
CB19  84 00     STY $00 = 00                    A:00 X:00 Y:00 P:2E SP:25 PPU:105,  3 CYC:27114
CB1B  95 14     STA $14,X @ 14 = 00             A:00 X:00 Y:00 P:2E SP:25 PPU:113,  3 CYC:27117
CB1D  95 15     STA $15,X @ 15 = 00             A:00 X:00 Y:00 P:2E SP:25 PPU:129,  3 CYC:27121
CB1F  A0 04     LDY #$04                        A:00 X:00 Y:00 P:2E SP:25 PPU:137,  3 CYC:27125
CB21  A5 02     LDA $02 = 80                    A:00 X:00 Y:04 P:2C SP:25 PPU:145,  3 CYC:27127
CB23  24 00     BIT $00 = 00                    A:80 X:00 Y:04 P:AC SP:25 PPU:153,  3 CYC:27130
CB25  F0 06     BEQ $CB2D                       A:80 X:00 Y:04 P:2E SP:25 PPU:161,  3 CYC:27133
CB2D  38        SEC                             A:80 X:00 Y:04 P:2E SP:25 PPU:169,  3 CYC:27136
CB2E  66 01     ROR $01 = 7F                    A:80 X:00 Y:04 P:2F SP:25 PPU:177,  3 CYC:27138
CB30  46 02     LSR $02 = 80                    A:80 X:00 Y:04 P:AD SP:25 PPU:193,  3 CYC:27143
CB32  88        DEY                             A:80 X:00 Y:04 P:2C SP:25 PPU:209,  3 CYC:27148
CB33  D0 EC     BNE $CB21                       A:80 X:00 Y:03 P:2C SP:25 PPU:209,  3 CYC:27150
CB21  A5 02     LDA $02 = 40                    A:80 X:00 Y:03 P:2C SP:25 PPU:225,  3 CYC:27153
CB23  24 00     BIT $00 = 00                    A:40 X:00 Y:03 P:2C SP:25 PPU:233,  3 CYC:27156
CB25  F0 06     BEQ $CB2D                       A:40 X:00 Y:03 P:2E SP:25 PPU:241,  3 CYC:27159
CB2D  38        SEC                             A:40 X:00 Y:03 P:2E SP:25 PPU:249,  3 CYC:27162
CB2E  66 01     ROR $01 = BF                    A:40 X:00 Y:03 P:2F SP:25 PPU:257,  3 CYC:27164
CB30  46 02     LSR $02 = 40                    A:40 X:00 Y:03 P:AD SP:25 PPU:273,  3 CYC:27169
CB32  88        DEY                             A:40 X:00 Y:03 P:2C SP:25 PPU:281,  3 CYC:27174
CB33  D0 EC     BNE $CB21                       A:40 X:00 Y:02 P:2C SP:25 PPU:289,  3 CYC:27176
CB21  A5 02     LDA $02 = 20                    A:40 X:00 Y:02 P:2C SP:25 PPU:297,  3 CYC:27179
CB23  24 00     BIT $00 = 00                    A:20 X:00 Y:02 P:2C SP:25 PPU:305,  3 CYC:27182
CB25  F0 06     BEQ $CB2D                       A:20 X:00 Y:02 P:2E SP:25 PPU:321,  3 CYC:27185
CB2D  38        SEC                             A:20 X:00 Y:02 P:2E SP:25 PPU:323,  3 CYC:27188
CB2E  66 01     ROR $01 = DF                    A:20 X:00 Y:02 P:2F SP:25 PPU:329,  3 CYC:27190
CB30  46 02     LSR $02 = 20                    A:20 X:00 Y:02 P:AD SP:25 PPU:345,  3 CYC:27195
CB32  88        DEY                             A:20 X:00 Y:02 P:2C SP:25 PPU: 17,  4 CYC:27200
CB33  D0 EC     BNE $CB21                       A:20 X:00 Y:01 P:2C SP:25 PPU: 25,  4 CYC:27202
CB21  A5 02     LDA $02 = 10                    A:20 X:00 Y:01 P:2C SP:25 PPU: 33,  4 CYC:27205
CB23  24 00     BIT $00 = 00                    A:10 X:00 Y:01 P:2C SP:25 PPU: 41,  4 CYC:27208
CB25  F0 06     BEQ $CB2D                       A:10 X:00 Y:01 P:2E SP:25 PPU: 49,  4 CYC:27211
CB2D  38        SEC                             A:10 X:00 Y:01 P:2E SP:25 PPU: 57,  4 CYC:27214
CB2E  66 01     ROR $01 = EF                    A:10 X:00 Y:01 P:2F SP:25 PPU: 65,  4 CYC:27216
CB30  46 02     LSR $02 = 10                    A:10 X:00 Y:01 P:AD SP:25 PPU: 81,  4 CYC:27221
CB32  88        DEY                             A:10 X:00 Y:01 P:2C SP:25 PPU: 97,  4 CYC:27226
CB33  D0 EC     BNE $CB21                       A:10 X:00 Y:00 P:2E SP:25 PPU:105,  4 CYC:27228
CB35  A9 7F     LDA #$7F                        A:10 X:00 Y:00 P:2E SP:25 PPU:105,  4 CYC:27230
CB37  85 01     STA $01 = F7                    A:7F X:00 Y:00 P:2C SP:25 PPU:113,  4 CYC:27232
CB39  A9 80     LDA #$80                        A:7F X:00 Y:00 P:2C SP:25 PPU:121,  4 CYC:27235
CB3B  85 02     STA $02 = 08                    A:80 X:00 Y:00 P:AC SP:25 PPU:129,  4 CYC:27237
CB3D  60        RTS                             A:80 X:00 Y:00 P:AC SP:25 PPU:137,  4 CYC:27240
CAFF  E8        INX                             A:80 X:00 Y:00 P:AC SP:27 PPU:153,  4 CYC:27246
CB00  A0 08     LDY #$08                        A:80 X:01 Y:00 P:2C SP:27 PPU:161,  4 CYC:27248
CB02  48        PHA                             A:80 X:01 Y:08 P:2C SP:27 PPU:169,  4 CYC:27250
CB03  BD 16 40  LDA $4016,X @ 4017 = 00         A:80 X:01 Y:08 P:2C SP:26 PPU:177,  4 CYC:27253
CB06  85 00     STA $00 = 00                    A:00 X:01 Y:08 P:2E SP:26 PPU:185,  4 CYC:27257
CB08  4A        LSR A                           A:00 X:01 Y:08 P:2E SP:26 PPU:201,  4 CYC:27260
CB09  05 00     ORA $00 = 00                    A:00 X:01 Y:08 P:2E SP:26 PPU:201,  4 CYC:27262
CB0B  4A        LSR A                           A:00 X:01 Y:08 P:2E SP:26 PPU:209,  4 CYC:27265
CB0C  68        PLA                             A:00 X:01 Y:08 P:2E SP:26 PPU:217,  4 CYC:27267
CB0D  2A        ROL A                           A:80 X:01 Y:08 P:AC SP:27 PPU:233,  4 CYC:27271
CB0E  88        DEY                             A:00 X:01 Y:08 P:2F SP:27 PPU:233,  4 CYC:27273
CB0F  D0 F1     BNE $CB02                       A:00 X:01 Y:07 P:2D SP:27 PPU:241,  4 CYC:27275
CB02  48        PHA                             A:00 X:01 Y:07 P:2D SP:27 PPU:249,  4 CYC:27278
CB03  BD 16 40  LDA $4016,X @ 4017 = 00         A:00 X:01 Y:07 P:2D SP:26 PPU:257,  4 CYC:27281
CB06  85 00     STA $00 = 00                    A:00 X:01 Y:07 P:2F SP:26 PPU:273,  4 CYC:27285
CB08  4A        LSR A                           A:00 X:01 Y:07 P:2F SP:26 PPU:281,  4 CYC:27288
CB09  05 00     ORA $00 = 00                    A:00 X:01 Y:07 P:2E SP:26 PPU:289,  4 CYC:27290
CB0B  4A        LSR A                           A:00 X:01 Y:07 P:2E SP:26 PPU:297,  4 CYC:27293
CB0C  68        PLA                             A:00 X:01 Y:07 P:2E SP:26 PPU:305,  4 CYC:27295
CB0D  2A        ROL A                           A:00 X:01 Y:07 P:2E SP:27 PPU:313,  4 CYC:27299
CB0E  88        DEY                             A:00 X:01 Y:07 P:2E SP:27 PPU:321,  4 CYC:27301
CB0F  D0 F1     BNE $CB02                       A:00 X:01 Y:06 P:2C SP:27 PPU:323,  4 CYC:27303
CB02  48        PHA                             A:00 X:01 Y:06 P:2C SP:27 PPU:332,  4 CYC:27306
CB03  BD 16 40  LDA $4016,X @ 4017 = 00         A:00 X:01 Y:06 P:2C SP:26 PPU:345,  4 CYC:27309
CB06  85 00     STA $00 = 00                    A:00 X:01 Y:06 P:2E SP:26 PPU:  9,  5 CYC:27313
CB08  4A        LSR A                           A:00 X:01 Y:06 P:2E SP:26 PPU: 17,  5 CYC:27316
CB09  05 00     ORA $00 = 00                    A:00 X:01 Y:06 P:2E SP:26 PPU: 25,  5 CYC:27318
CB0B  4A        LSR A                           A:00 X:01 Y:06 P:2E SP:26 PPU: 33,  5 CYC:27321
CB0C  68        PLA                             A:00 X:01 Y:06 P:2E SP:26 PPU: 41,  5 CYC:27323
CB0D  2A        ROL A                           A:00 X:01 Y:06 P:2E SP:27 PPU: 57,  5 CYC:27327
CB0E  88        DEY                             A:00 X:01 Y:06 P:2E SP:27 PPU: 57,  5 CYC:27329
CB0F  D0 F1     BNE $CB02                       A:00 X:01 Y:05 P:2C SP:27 PPU: 65,  5 CYC:27331
CB02  48        PHA                             A:00 X:01 Y:05 P:2C SP:27 PPU: 73,  5 CYC:27334
CB03  BD 16 40  LDA $4016,X @ 4017 = 00         A:00 X:01 Y:05 P:2C SP:26 PPU: 81,  5 CYC:27337
CB06  85 00     STA $00 = 00                    A:00 X:01 Y:05 P:2E SP:26 PPU: 97,  5 CYC:27341
CB08  4A        LSR A                           A:00 X:01 Y:05 P:2E SP:26 PPU:105,  5 CYC:27344
CB09  05 00     ORA $00 = 00                    A:00 X:01 Y:05 P:2E SP:26 PPU:113,  5 CYC:27346
CB0B  4A        LSR A                           A:00 X:01 Y:05 P:2E SP:26 PPU:121,  5 CYC:27349
CB0C  68        PLA                             A:00 X:01 Y:05 P:2E SP:26 PPU:129,  5 CYC:27351
CB0D  2A        ROL A                           A:00 X:01 Y:05 P:2E SP:27 PPU:137,  5 CYC:27355
CB0E  88        DEY                             A:00 X:01 Y:05 P:2E SP:27 PPU:145,  5 CYC:27357
CB0F  D0 F1     BNE $CB02                       A:00 X:01 Y:04 P:2C SP:27 PPU:153,  5 CYC:27359
CB02  48        PHA                             A:00 X:01 Y:04 P:2C SP:27 PPU:161,  5 CYC:27362
CB03  BD 16 40  LDA $4016,X @ 4017 = 00         A:00 X:01 Y:04 P:2C SP:26 PPU:169,  5 CYC:27365
CB06  85 00     STA $00 = 00                    A:00 X:01 Y:04 P:2E SP:26 PPU:177,  5 CYC:27369
CB08  4A        LSR A                           A:00 X:01 Y:04 P:2E SP:26 PPU:185,  5 CYC:27372
CB09  05 00     ORA $00 = 00                    A:00 X:01 Y:04 P:2E SP:26 PPU:193,  5 CYC:27374
CB0B  4A        LSR A                           A:00 X:01 Y:04 P:2E SP:26 PPU:201,  5 CYC:27377
CB0C  68        PLA                             A:00 X:01 Y:04 P:2E SP:26 PPU:209,  5 CYC:27379
CB0D  2A        ROL A                           A:00 X:01 Y:04 P:2E SP:27 PPU:225,  5 CYC:27383
CB0E  88        DEY                             A:00 X:01 Y:04 P:2E SP:27 PPU:225,  5 CYC:27385
CB0F  D0 F1     BNE $CB02                       A:00 X:01 Y:03 P:2C SP:27 PPU:233,  5 CYC:27387
CB02  48        PHA                             A:00 X:01 Y:03 P:2C SP:27 PPU:241,  5 CYC:27390
CB03  BD 16 40  LDA $4016,X @ 4017 = 00         A:00 X:01 Y:03 P:2C SP:26 PPU:249,  5 CYC:27393
CB06  85 00     STA $00 = 00                    A:00 X:01 Y:03 P:2E SP:26 PPU:265,  5 CYC:27397
CB08  4A        LSR A                           A:00 X:01 Y:03 P:2E SP:26 PPU:273,  5 CYC:27400
CB09  05 00     ORA $00 = 00                    A:00 X:01 Y:03 P:2E SP:26 PPU:281,  5 CYC:27402
CB0B  4A        LSR A                           A:00 X:01 Y:03 P:2E SP:26 PPU:289,  5 CYC:27405
CB0C  68        PLA                             A:00 X:01 Y:03 P:2E SP:26 PPU:297,  5 CYC:27407
CB0D  2A        ROL A                           A:00 X:01 Y:03 P:2E SP:27 PPU:305,  5 CYC:27411
CB0E  88        DEY                             A:00 X:01 Y:03 P:2E SP:27 PPU:313,  5 CYC:27413
CB0F  D0 F1     BNE $CB02                       A:00 X:01 Y:02 P:2C SP:27 PPU:321,  5 CYC:27415
CB02  48        PHA                             A:00 X:01 Y:02 P:2C SP:27 PPU:323,  5 CYC:27418
CB03  BD 16 40  LDA $4016,X @ 4017 = 00         A:00 X:01 Y:02 P:2C SP:26 PPU:332,  5 CYC:27421
CB06  85 00     STA $00 = 00                    A:00 X:01 Y:02 P:2E SP:26 PPU:345,  5 CYC:27425
CB08  4A        LSR A                           A:00 X:01 Y:02 P:2E SP:26 PPU:  9,  6 CYC:27428
CB09  05 00     ORA $00 = 00                    A:00 X:01 Y:02 P:2E SP:26 PPU: 17,  6 CYC:27430
CB0B  4A        LSR A                           A:00 X:01 Y:02 P:2E SP:26 PPU: 25,  6 CYC:27433
CB0C  68        PLA                             A:00 X:01 Y:02 P:2E SP:26 PPU: 33,  6 CYC:27435
CB0D  2A        ROL A                           A:00 X:01 Y:02 P:2E SP:27 PPU: 41,  6 CYC:27439
CB0E  88        DEY                             A:00 X:01 Y:02 P:2E SP:27 PPU: 49,  6 CYC:27441
CB0F  D0 F1     BNE $CB02                       A:00 X:01 Y:01 P:2C SP:27 PPU: 57,  6 CYC:27443
CB02  48        PHA                             A:00 X:01 Y:01 P:2C SP:27 PPU: 65,  6 CYC:27446
CB03  BD 16 40  LDA $4016,X @ 4017 = 00         A:00 X:01 Y:01 P:2C SP:26 PPU: 73,  6 CYC:27449
CB06  85 00     STA $00 = 00                    A:00 X:01 Y:01 P:2E SP:26 PPU: 89,  6 CYC:27453
CB08  4A        LSR A                           A:00 X:01 Y:01 P:2E SP:26 PPU: 97,  6 CYC:27456
CB09  05 00     ORA $00 = 00                    A:00 X:01 Y:01 P:2E SP:26 PPU:105,  6 CYC:27458
CB0B  4A        LSR A                           A:00 X:01 Y:01 P:2E SP:26 PPU:113,  6 CYC:27461
CB0C  68        PLA                             A:00 X:01 Y:01 P:2E SP:26 PPU:113,  6 CYC:27463
CB0D  2A        ROL A                           A:00 X:01 Y:01 P:2E SP:27 PPU:129,  6 CYC:27467
CB0E  88        DEY                             A:00 X:01 Y:01 P:2E SP:27 PPU:137,  6 CYC:27469
CB0F  D0 F1     BNE $CB02                       A:00 X:01 Y:00 P:2E SP:27 PPU:137,  6 CYC:27471
CB11  86 00     STX $00 = 00                    A:00 X:01 Y:00 P:2E SP:27 PPU:145,  6 CYC:27473
CB13  06 00     ASL $00 = 01                    A:00 X:01 Y:00 P:2E SP:27 PPU:153,  6 CYC:27476
CB15  A6 00     LDX $00 = 02                    A:00 X:01 Y:00 P:2C SP:27 PPU:169,  6 CYC:27481
CB17  B4 14     LDY $14,X @ 16 = 00             A:00 X:02 Y:00 P:2C SP:27 PPU:177,  6 CYC:27484
CB19  84 00     STY $00 = 02                    A:00 X:02 Y:00 P:2E SP:27 PPU:193,  6 CYC:27488
CB1B  95 14     STA $14,X @ 16 = 00             A:00 X:02 Y:00 P:2E SP:27 PPU:201,  6 CYC:27491
CB1D  95 15     STA $15,X @ 17 = 00             A:00 X:02 Y:00 P:2E SP:27 PPU:209,  6 CYC:27495
CB1F  A0 04     LDY #$04                        A:00 X:02 Y:00 P:2E SP:27 PPU:225,  6 CYC:27499
CB21  A5 02     LDA $02 = 80                    A:00 X:02 Y:04 P:2C SP:27 PPU:233,  6 CYC:27501
CB23  24 00     BIT $00 = 00                    A:80 X:02 Y:04 P:AC SP:27 PPU:241,  6 CYC:27504
CB25  F0 06     BEQ $CB2D                       A:80 X:02 Y:04 P:2E SP:27 PPU:249,  6 CYC:27507
CB2D  38        SEC                             A:80 X:02 Y:04 P:2E SP:27 PPU:257,  6 CYC:27510
CB2E  66 01     ROR $01 = 7F                    A:80 X:02 Y:04 P:2F SP:27 PPU:265,  6 CYC:27512
CB30  46 02     LSR $02 = 80                    A:80 X:02 Y:04 P:AD SP:27 PPU:281,  6 CYC:27517
CB32  88        DEY                             A:80 X:02 Y:04 P:2C SP:27 PPU:297,  6 CYC:27522
CB33  D0 EC     BNE $CB21                       A:80 X:02 Y:03 P:2C SP:27 PPU:297,  6 CYC:27524
CB21  A5 02     LDA $02 = 40                    A:80 X:02 Y:03 P:2C SP:27 PPU:305,  6 CYC:27527
CB23  24 00     BIT $00 = 00                    A:40 X:02 Y:03 P:2C SP:27 PPU:321,  6 CYC:27530
CB25  F0 06     BEQ $CB2D                       A:40 X:02 Y:03 P:2E SP:27 PPU:323,  6 CYC:27533
CB2D  38        SEC                             A:40 X:02 Y:03 P:2E SP:27 PPU:332,  6 CYC:27536
CB2E  66 01     ROR $01 = BF                    A:40 X:02 Y:03 P:2F SP:27 PPU:345,  6 CYC:27538
CB30  46 02     LSR $02 = 40                    A:40 X:02 Y:03 P:AD SP:27 PPU:  9,  7 CYC:27543
CB32  88        DEY                             A:40 X:02 Y:03 P:2C SP:27 PPU: 25,  7 CYC:27548
CB33  D0 EC     BNE $CB21                       A:40 X:02 Y:02 P:2C SP:27 PPU: 33,  7 CYC:27550
CB21  A5 02     LDA $02 = 20                    A:40 X:02 Y:02 P:2C SP:27 PPU: 41,  7 CYC:27553
CB23  24 00     BIT $00 = 00                    A:20 X:02 Y:02 P:2C SP:27 PPU: 49,  7 CYC:27556
CB25  F0 06     BEQ $CB2D                       A:20 X:02 Y:02 P:2E SP:27 PPU: 57,  7 CYC:27559
CB2D  38        SEC                             A:20 X:02 Y:02 P:2E SP:27 PPU: 65,  7 CYC:27562
CB2E  66 01     ROR $01 = DF                    A:20 X:02 Y:02 P:2F SP:27 PPU: 73,  7 CYC:27564
CB30  46 02     LSR $02 = 20                    A:20 X:02 Y:02 P:AD SP:27 PPU: 89,  7 CYC:27569
CB32  88        DEY                             A:20 X:02 Y:02 P:2C SP:27 PPU:105,  7 CYC:27574
CB33  D0 EC     BNE $CB21                       A:20 X:02 Y:01 P:2C SP:27 PPU:113,  7 CYC:27576
CB21  A5 02     LDA $02 = 10                    A:20 X:02 Y:01 P:2C SP:27 PPU:121,  7 CYC:27579
CB23  24 00     BIT $00 = 00                    A:10 X:02 Y:01 P:2C SP:27 PPU:129,  7 CYC:27582
CB25  F0 06     BEQ $CB2D                       A:10 X:02 Y:01 P:2E SP:27 PPU:137,  7 CYC:27585
CB2D  38        SEC                             A:10 X:02 Y:01 P:2E SP:27 PPU:145,  7 CYC:27588
CB2E  66 01     ROR $01 = EF                    A:10 X:02 Y:01 P:2F SP:27 PPU:153,  7 CYC:27590
CB30  46 02     LSR $02 = 10                    A:10 X:02 Y:01 P:AD SP:27 PPU:169,  7 CYC:27595
CB32  88        DEY                             A:10 X:02 Y:01 P:2C SP:27 PPU:185,  7 CYC:27600
CB33  D0 EC     BNE $CB21                       A:10 X:02 Y:00 P:2E SP:27 PPU:185,  7 CYC:27602
CB35  A9 7F     LDA #$7F                        A:10 X:02 Y:00 P:2E SP:27 PPU:193,  7 CYC:27604
CB37  85 01     STA $01 = F7                    A:7F X:02 Y:00 P:2C SP:27 PPU:201,  7 CYC:27606
CB39  A9 80     LDA #$80                        A:7F X:02 Y:00 P:2C SP:27 PPU:209,  7 CYC:27609
CB3B  85 02     STA $02 = 08                    A:80 X:02 Y:00 P:AC SP:27 PPU:217,  7 CYC:27611
CB3D  60        RTS                             A:80 X:02 Y:00 P:AC SP:27 PPU:225,  7 CYC:27614
C0C6  20 1E F9  JSR $F91E                       A:80 X:02 Y:00 P:AC SP:29 PPU:241,  7 CYC:27620
F91E  A9 FF     LDA #$FF                        A:80 X:02 Y:00 P:AC SP:27 PPU:257,  7 CYC:27626
F920  8D 17 40  STA $4017 = 00                  A:FF X:02 Y:00 P:AC SP:27 PPU:265,  7 CYC:27628
F923  20 EB F9  JSR $F9EB                       A:FF X:02 Y:00 P:AC SP:27 PPU:281,  7 CYC:27632
F9EB  A4 FF     LDY $FF = 00                    A:FF X:02 Y:00 P:AC SP:25 PPU:297,  7 CYC:27638
F9ED  A5 F0     LDA $F0 = 00                    A:FF X:02 Y:00 P:2E SP:25 PPU:305,  7 CYC:27641
F9EF  46 FF     LSR $FF = 00                    A:00 X:02 Y:00 P:2E SP:25 PPU:313,  7 CYC:27644
F9F1  B0 B8     BCS $F9AB                       A:00 X:02 Y:00 P:2E SP:25 PPU:326,  7 CYC:27649
F9F3  4A        LSR A                           A:00 X:02 Y:00 P:2E SP:25 PPU:332,  7 CYC:27651
F9F4  B0 BB     BCS $F9B1                       A:00 X:02 Y:00 P:2E SP:25 PPU:345,  7 CYC:27653
F9F6  46 FF     LSR $FF = 00                    A:00 X:02 Y:00 P:2E SP:25 PPU:345,  7 CYC:27655
F9F8  B0 CE     BCS $F9C8                       A:00 X:02 Y:00 P:2E SP:25 PPU: 17,  8 CYC:27660
F9FA  4A        LSR A                           A:00 X:02 Y:00 P:2E SP:25 PPU: 25,  8 CYC:27662
F9FB  B0 D3     BCS $F9D0                       A:00 X:02 Y:00 P:2E SP:25 PPU: 33,  8 CYC:27664
F9FD  46 FF     LSR $FF = 00                    A:00 X:02 Y:00 P:2E SP:25 PPU: 33,  8 CYC:27666
F9FF  B0 0B     BCS $FA0C                       A:00 X:02 Y:00 P:2E SP:25 PPU: 49,  8 CYC:27671
FA01  4A        LSR A                           A:00 X:02 Y:00 P:2E SP:25 PPU: 57,  8 CYC:27673
FA02  B0 17     BCS $FA1B                       A:00 X:02 Y:00 P:2E SP:25 PPU: 65,  8 CYC:27675
FA04  46 FF     LSR $FF = 00                    A:00 X:02 Y:00 P:2E SP:25 PPU: 65,  8 CYC:27677
FA06  B0 38     BCS $FA40                       A:00 X:02 Y:00 P:2E SP:25 PPU: 81,  8 CYC:27682
FA08  4A        LSR A                           A:00 X:02 Y:00 P:2E SP:25 PPU: 89,  8 CYC:27684
FA09  B0 3F     BCS $FA4A                       A:00 X:02 Y:00 P:2E SP:25 PPU: 97,  8 CYC:27686
FA0B  60        RTS                             A:00 X:02 Y:00 P:2E SP:25 PPU:105,  8 CYC:27688
F926  20 C4 FA  JSR $FAC4                       A:00 X:02 Y:00 P:2E SP:27 PPU:121,  8 CYC:27694
FAC4  A4 FE     LDY $FE = 00                    A:00 X:02 Y:00 P:2E SP:25 PPU:137,  8 CYC:27700
FAC6  A5 F1     LDA $F1 = 00                    A:00 X:02 Y:00 P:2E SP:25 PPU:145,  8 CYC:27703
FAC8  46 FE     LSR $FE = 00                    A:00 X:02 Y:00 P:2E SP:25 PPU:153,  8 CYC:27706
FACA  B0 98     BCS $FA64                       A:00 X:02 Y:00 P:2E SP:25 PPU:169,  8 CYC:27711
FACC  4A        LSR A                           A:00 X:02 Y:00 P:2E SP:25 PPU:177,  8 CYC:27713
FACD  B0 9C     BCS $FA6B                       A:00 X:02 Y:00 P:2E SP:25 PPU:185,  8 CYC:27715
FACF  46 FE     LSR $FE = 00                    A:00 X:02 Y:00 P:2E SP:25 PPU:185,  8 CYC:27717
FAD1  B0 B0     BCS $FA83                       A:00 X:02 Y:00 P:2E SP:25 PPU:201,  8 CYC:27722
FAD3  4A        LSR A                           A:00 X:02 Y:00 P:2E SP:25 PPU:209,  8 CYC:27724
FAD4  B0 BE     BCS $FA94                       A:00 X:02 Y:00 P:2E SP:25 PPU:217,  8 CYC:27726
FAD6  46 FE     LSR $FE = 00                    A:00 X:02 Y:00 P:2E SP:25 PPU:225,  8 CYC:27728
FAD8  B0 12     BCS $FAEC                       A:00 X:02 Y:00 P:2E SP:25 PPU:233,  8 CYC:27733
FADA  4A        LSR A                           A:00 X:02 Y:00 P:2E SP:25 PPU:241,  8 CYC:27735
FADB  B0 D8     BCS $FAB5                       A:00 X:02 Y:00 P:2E SP:25 PPU:249,  8 CYC:27737
FADD  4A        LSR A                           A:00 X:02 Y:00 P:2E SP:25 PPU:257,  8 CYC:27739
FADE  B0 29     BCS $FB09                       A:00 X:02 Y:00 P:2E SP:25 PPU:257,  8 CYC:27741
FAE0  46 FE     LSR $FE = 00                    A:00 X:02 Y:00 P:2E SP:25 PPU:265,  8 CYC:27743
FAE2  B0 15     BCS $FAF9                       A:00 X:02 Y:00 P:2E SP:25 PPU:281,  8 CYC:27748
FAE4  46 FE     LSR $FE = 00                    A:00 X:02 Y:00 P:2E SP:25 PPU:289,  8 CYC:27750
FAE6  B0 2F     BCS $FB17                       A:00 X:02 Y:00 P:2E SP:25 PPU:305,  8 CYC:27755
FAE8  4A        LSR A                           A:00 X:02 Y:00 P:2E SP:25 PPU:305,  8 CYC:27757
FAE9  B0 CA     BCS $FAB5                       A:00 X:02 Y:00 P:2E SP:25 PPU:313,  8 CYC:27759
FAEB  60        RTS                             A:00 X:02 Y:00 P:2E SP:25 PPU:321,  8 CYC:27761
F929  20 A1 FB  JSR $FBA1                       A:00 X:02 Y:00 P:2E SP:27 PPU:335,  8 CYC:27767
FBA1  A4 FC     LDY $FC = 00                    A:00 X:02 Y:00 P:2E SP:25 PPU:  9,  9 CYC:27773
FBA3  A5 F2     LDA $F2 = 00                    A:00 X:02 Y:00 P:2E SP:25 PPU: 17,  9 CYC:27776
FBA5  46 FC     LSR $FC = 00                    A:00 X:02 Y:00 P:2E SP:25 PPU: 33,  9 CYC:27779
FBA7  B0 C8     BCS $FB71                       A:00 X:02 Y:00 P:2E SP:25 PPU: 41,  9 CYC:27784
FBA9  4A        LSR A                           A:00 X:02 Y:00 P:2E SP:25 PPU: 49,  9 CYC:27786
FBAA  B0 CC     BCS $FB78                       A:00 X:02 Y:00 P:2E SP:25 PPU: 57,  9 CYC:27788
FBAC  46 FC     LSR $FC = 00                    A:00 X:02 Y:00 P:2E SP:25 PPU: 65,  9 CYC:27790
FBAE  B0 0B     BCS $FBBB                       A:00 X:02 Y:00 P:2E SP:25 PPU: 81,  9 CYC:27795
FBB0  4A        LSR A                           A:00 X:02 Y:00 P:2E SP:25 PPU: 81,  9 CYC:27797
FBB1  B0 18     BCS $FBCB                       A:00 X:02 Y:00 P:2E SP:25 PPU: 89,  9 CYC:27799
FBB3  46 FC     LSR $FC = 00                    A:00 X:02 Y:00 P:2E SP:25 PPU: 97,  9 CYC:27801
FBB5  B0 24     BCS $FBDB                       A:00 X:02 Y:00 P:2E SP:25 PPU:113,  9 CYC:27806
FBB7  4A        LSR A                           A:00 X:02 Y:00 P:2E SP:25 PPU:113,  9 CYC:27808
FBB8  B0 31     BCS $FBEB                       A:00 X:02 Y:00 P:2E SP:25 PPU:121,  9 CYC:27810
FBBA  60        RTS                             A:00 X:02 Y:00 P:2E SP:25 PPU:129,  9 CYC:27812
F92C  20 FC FB  JSR $FBFC                       A:00 X:02 Y:00 P:2E SP:27 PPU:145,  9 CYC:27818
FBFC  A5 FB     LDA $FB = 00                    A:00 X:02 Y:00 P:2E SP:25 PPU:161,  9 CYC:27824
FBFE  D0 05     BNE $FC05                       A:00 X:02 Y:00 P:2E SP:25 PPU:177,  9 CYC:27827
FC00  A5 F3     LDA $F3 = 00                    A:00 X:02 Y:00 P:2E SP:25 PPU:177,  9 CYC:27829
FC02  D0 4D     BNE $FC51                       A:00 X:02 Y:00 P:2E SP:25 PPU:185,  9 CYC:27832
FC04  60        RTS                             A:00 X:02 Y:00 P:2E SP:25 PPU:193,  9 CYC:27834
F92F  A9 00     LDA #$00                        A:00 X:02 Y:00 P:2E SP:27 PPU:209,  9 CYC:27840
F931  85 FF     STA $FF = 00                    A:00 X:02 Y:00 P:2E SP:27 PPU:217,  9 CYC:27842
F933  85 FE     STA $FE = 00                    A:00 X:02 Y:00 P:2E SP:27 PPU:225,  9 CYC:27845
F935  85 FC     STA $FC = 00                    A:00 X:02 Y:00 P:2E SP:27 PPU:233,  9 CYC:27848
F937  85 FB     STA $FB = 00                    A:00 X:02 Y:00 P:2E SP:27 PPU:249,  9 CYC:27851
F939  AC 11 07  LDY $0711 = 00                  A:00 X:02 Y:00 P:2E SP:27 PPU:257,  9 CYC:27854
F93C  A5 F3     LDA $F3 = 00                    A:00 X:02 Y:00 P:2E SP:27 PPU:265,  9 CYC:27858
F93E  29 0C     AND #$0C                        A:00 X:02 Y:00 P:2E SP:27 PPU:273,  9 CYC:27861
F940  F0 07     BEQ $F949                       A:00 X:02 Y:00 P:2E SP:27 PPU:281,  9 CYC:27863
F949  98        TYA                             A:00 X:02 Y:00 P:2E SP:27 PPU:289,  9 CYC:27866
F94A  F0 03     BEQ $F94F                       A:00 X:02 Y:00 P:2E SP:27 PPU:297,  9 CYC:27868
F94F  8C 11 40  STY $4011 = 00                  A:00 X:02 Y:00 P:2E SP:27 PPU:305,  9 CYC:27871
F952  60        RTS                             A:00 X:02 Y:00 P:2E SP:27 PPU:321,  9 CYC:27875
C0C9  A5 53     LDA $53 = 00                    A:00 X:02 Y:00 P:2E SP:29 PPU:332,  9 CYC:27881
C0CB  F0 06     BEQ $C0D3                       A:00 X:02 Y:00 P:2E SP:29 PPU:345,  9 CYC:27884
C0D3  A5 51     LDA $51 = 01                    A:00 X:02 Y:00 P:2E SP:29 PPU:  9, 10 CYC:27887
C0D5  F0 4F     BEQ $C126                       A:01 X:02 Y:00 P:2C SP:29 PPU: 17, 10 CYC:27890
C0D7  AE 4C 03  LDX $034C = 02                  A:01 X:02 Y:00 P:2C SP:29 PPU: 25, 10 CYC:27892
C0DA  F0 3E     BEQ $C11A                       A:01 X:02 Y:00 P:2C SP:29 PPU: 33, 10 CYC:27896
C0DC  CA        DEX                             A:01 X:02 Y:00 P:2C SP:29 PPU: 41, 10 CYC:27898
C0DD  F0 24     BEQ $C103                       A:01 X:01 Y:00 P:2C SP:29 PPU: 49, 10 CYC:27900
C0DF  CA        DEX                             A:01 X:01 Y:00 P:2C SP:29 PPU: 57, 10 CYC:27902
C0E0  D0 1E     BNE $C100                       A:01 X:00 Y:00 P:2E SP:29 PPU: 57, 10 CYC:27904
C0E2  A5 11     LDA $11 = 1F                    A:01 X:00 Y:00 P:2E SP:29 PPU: 65, 10 CYC:27906
C0E4  29 EF     AND #$EF                        A:1F X:00 Y:00 P:2C SP:29 PPU: 73, 10 CYC:27909
C0E6  8D 01 20  STA $2001 = 1F                  A:0F X:00 Y:00 P:2C SP:29 PPU: 81, 10 CYC:27911
C0E9  85 11     STA $11 = 1F                    A:0F X:00 Y:00 P:2C SP:29 PPU: 89, 10 CYC:27915
C0EB  A5 15     LDA $15 = 00                    A:0F X:00 Y:00 P:2C SP:29 PPU:105, 10 CYC:27918
C0ED  29 10     AND #$10                        A:00 X:00 Y:00 P:2E SP:29 PPU:113, 10 CYC:27921
C0EF  F0 47     BEQ $C138                       A:00 X:00 Y:00 P:2E SP:29 PPU:113, 10 CYC:27923
C138  20 41 C1  JSR $C141                       A:00 X:00 Y:00 P:2E SP:29 PPU:129, 10 CYC:27927
C141  AD 02 20  LDA $2002 = 0F                  A:00 X:00 Y:00 P:2E SP:27 PPU:145, 10 CYC:27933
C144  A5 10     LDA $10 = 11                    A:0F X:00 Y:00 P:2C SP:27 PPU:161, 10 CYC:27937
C146  09 80     ORA #$80                        A:11 X:00 Y:00 P:2C SP:27 PPU:169, 10 CYC:27940
C148  85 10     STA $10 = 11                    A:91 X:00 Y:00 P:AC SP:27 PPU:177, 10 CYC:27942
C14A  8D 00 20  STA $2000 = 11                  A:91 X:00 Y:00 P:AC SP:27 PPU:185, 10 CYC:27945
C14D  60        RTS                             A:91 X:00 Y:00 P:AC SP:27 PPU:193, 10 CYC:27949
C13B  68        PLA                             A:91 X:00 Y:00 P:AC SP:29 PPU:209, 10 CYC:27955
C13C  A8        TAY                             A:10 X:00 Y:00 P:2C SP:2A PPU:225, 10 CYC:27959
C13D  68        PLA                             A:10 X:00 Y:10 P:2C SP:2A PPU:233, 10 CYC:27961
C13E  AA        TAX                             A:2D X:00 Y:10 P:2C SP:2B PPU:241, 10 CYC:27965
C13F  68        PLA                             A:2D X:2D Y:10 P:2C SP:2B PPU:249, 10 CYC:27967
C140  40        RTI                             A:FF X:2D Y:10 P:AC SP:2C PPU:257, 10 CYC:27971
00C7  00        BRK                             A:FF X:2D Y:10 P:A8 SP:2F PPU:281, 10 CYC:27977
C076  48        PHA                             A:FF X:2D Y:10 P:AC SP:2C PPU:297, 10 CYC:27984
C077  8A        TXA                             A:FF X:2D Y:10 P:AC SP:2B PPU:305, 10 CYC:27987
C078  48        PHA                             A:2D X:2D Y:10 P:2C SP:2B PPU:313, 10 CYC:27989
C079  98        TYA                             A:2D X:2D Y:10 P:2C SP:2A PPU:321, 10 CYC:27992
C07A  48        PHA                             A:10 X:2D Y:10 P:2C SP:2A PPU:326, 10 CYC:27994
C07B  A5 10     LDA $10 = 91                    A:10 X:2D Y:10 P:2C SP:29 PPU:335, 10 CYC:27997
C07D  A6 DE     LDX $DE = 00                    A:91 X:2D Y:10 P:AC SP:29 PPU:345, 10 CYC:28000
C07F  F0 02     BEQ $C083                       A:91 X:00 Y:10 P:2E SP:29 PPU:  9, 11 CYC:28003
C083  29 7F     AND #$7F                        A:91 X:00 Y:10 P:2E SP:29 PPU: 17, 11 CYC:28006
C085  20 48 C1  JSR $C148                       A:11 X:00 Y:10 P:2C SP:29 PPU: 25, 11 CYC:28008
C148  85 10     STA $10 = 91                    A:11 X:00 Y:10 P:2C SP:27 PPU: 41, 11 CYC:28014
C14A  8D 00 20  STA $2000 = 91                  A:11 X:00 Y:10 P:2C SP:27 PPU: 57, 11 CYC:28017
C14D  60        RTS                             A:11 X:00 Y:10 P:2C SP:27 PPU: 65, 11 CYC:28021
C088  A5 52     LDA $52 = 00                    A:11 X:00 Y:10 P:2C SP:29 PPU: 81, 11 CYC:28027
C08A  D0 09     BNE $C095                       A:00 X:00 Y:10 P:2E SP:29 PPU: 89, 11 CYC:28030
C08C  A5 11     LDA $11 = 0F                    A:00 X:00 Y:10 P:2E SP:29 PPU: 97, 11 CYC:28032
C08E  09 1E     ORA #$1E                        A:0F X:00 Y:10 P:2C SP:29 PPU:105, 11 CYC:28035
C090  8D 01 20  STA $2001 = 0F                  A:1F X:00 Y:10 P:2C SP:29 PPU:113, 11 CYC:28037
C093  85 11     STA $11 = 0F                    A:1F X:00 Y:10 P:2C SP:29 PPU:129, 11 CYC:28041
C095  A9 00     LDA #$00                        A:1F X:00 Y:10 P:2C SP:29 PPU:137, 11 CYC:28044
C097  8D 03 20  STA $2003 = 00                  A:00 X:00 Y:10 P:2E SP:29 PPU:137, 11 CYC:28046
C09A  A9 02     LDA #$02                        A:00 X:00 Y:10 P:2E SP:29 PPU:153, 11 CYC:28050
C09C  8D 14 40  STA $4014 = 00                  A:02 X:00 Y:10 P:2C SP:29 PPU:161, 11 CYC:28052
C09F  A6 52     LDX $52 = 00                    A:02 X:00 Y:10 P:2C SP:29 PPU:326, 15 CYC:28569
C0A1  20 50 C1  JSR $C150                       A:02 X:00 Y:10 P:2E SP:29 PPU:335, 15 CYC:28572
C150  BD 00 C0  LDA $C000,X @ C000 = 01         A:02 X:00 Y:10 P:2E SP:27 PPU:  9, 16 CYC:28578
C153  85 00     STA $00 = 00                    A:01 X:00 Y:10 P:2C SP:27 PPU: 25, 16 CYC:28582
C155  BD 0A C0  LDA $C00A,X @ C00A = 03         A:01 X:00 Y:10 P:2C SP:27 PPU: 33, 16 CYC:28585
C158  85 01     STA $01 = 7F                    A:03 X:00 Y:10 P:2C SP:27 PPU: 41, 16 CYC:28589
C15A  20 78 CB  JSR $CB78                       A:03 X:00 Y:10 P:2C SP:27 PPU: 57, 16 CYC:28592
CB78  AE 02 20  LDX $2002 = 00                  A:03 X:00 Y:10 P:2C SP:25 PPU: 73, 16 CYC:28598
CB7B  A0 00     LDY #$00                        A:03 X:00 Y:10 P:2E SP:25 PPU: 81, 16 CYC:28602
CB7D  B1 00     LDA ($00),Y = 0301 @ 0301 = 00  A:03 X:00 Y:00 P:2E SP:25 PPU: 89, 16 CYC:28604
CB7F  D0 BD     BNE $CB3E                       A:00 X:00 Y:00 P:2E SP:25 PPU:105, 16 CYC:28609
CB81  A5 12     LDA $12 = 01                    A:00 X:00 Y:00 P:2E SP:25 PPU:113, 16 CYC:28611
CB83  8D 05 20  STA $2005 = 9F                  A:01 X:00 Y:00 P:2C SP:25 PPU:121, 16 CYC:28614
CB86  A5 13     LDA $13 = 9F                    A:01 X:00 Y:00 P:2C SP:25 PPU:129, 16 CYC:28618
CB88  8D 05 20  STA $2005 = 01                  A:9F X:00 Y:00 P:AC SP:25 PPU:137, 16 CYC:28621
CB8B  60        RTS                             A:9F X:00 Y:00 P:AC SP:25 PPU:153, 16 CYC:28625
C15D  A9 00     LDA #$00                        A:9F X:00 Y:00 P:AC SP:27 PPU:169, 16 CYC:28631
C15F  8D 00 03  STA $0300 = 00                  A:00 X:00 Y:00 P:2E SP:27 PPU:177, 16 CYC:28633
C162  8D 01 03  STA $0301 = 00                  A:00 X:00 Y:00 P:2E SP:27 PPU:185, 16 CYC:28637
C165  60        RTS                             A:00 X:00 Y:00 P:2E SP:27 PPU:201, 16 CYC:28641
C0A4  85 52     STA $52 = 00                    A:00 X:00 Y:00 P:2E SP:29 PPU:217, 16 CYC:28647
C0A6  85 DE     STA $DE = 00                    A:00 X:00 Y:00 P:2E SP:29 PPU:225, 16 CYC:28650
C0A8  A9 3F     LDA #$3F                        A:00 X:00 Y:00 P:2E SP:29 PPU:233, 16 CYC:28653
C0AA  8D 06 20  STA $2006 = 00                  A:3F X:00 Y:00 P:2C SP:29 PPU:241, 16 CYC:28655
C0AD  A9 00     LDA #$00                        A:3F X:00 Y:00 P:2C SP:29 PPU:257, 16 CYC:28659
C0AF  8D 06 20  STA $2006 = 3F                  A:00 X:00 Y:00 P:2E SP:29 PPU:257, 16 CYC:28661
C0B2  8D 06 20  STA $2006 = 00                  A:00 X:00 Y:00 P:2E SP:29 PPU:273, 16 CYC:28665
C0B5  8D 06 20  STA $2006 = 00                  A:00 X:00 Y:00 P:2E SP:29 PPU:281, 16 CYC:28669
C0B8  AD 02 20  LDA $2002 = 00                  A:00 X:00 Y:00 P:2E SP:29 PPU:297, 16 CYC:28673
C0BB  20 81 CB  JSR $CB81                       A:00 X:00 Y:00 P:2E SP:29 PPU:305, 16 CYC:28677
CB81  A5 12     LDA $12 = 01                    A:00 X:00 Y:00 P:2E SP:27 PPU:323, 16 CYC:28683
CB83  8D 05 20  STA $2005 = 9F                  A:01 X:00 Y:00 P:2C SP:27 PPU:332, 16 CYC:28686
CB86  A5 13     LDA $13 = 9F                    A:01 X:00 Y:00 P:2C SP:27 PPU:345, 16 CYC:28690
CB88  8D 05 20  STA $2005 = 01                  A:9F X:00 Y:00 P:AC SP:27 PPU:  9, 17 CYC:28693
CB8B  60        RTS                             A:9F X:00 Y:00 P:AC SP:27 PPU: 25, 17 CYC:28697
C0BE  A5 10     LDA $10 = 11                    A:9F X:00 Y:00 P:AC SP:29 PPU: 41, 17 CYC:28703
C0C0  8D 00 20  STA $2000 = 11                  A:11 X:00 Y:00 P:2C SP:29 PPU: 49, 17 CYC:28706
C0C3  20 ED CA  JSR $CAED                       A:11 X:00 Y:00 P:2C SP:29 PPU: 65, 17 CYC:28710
CAED  20 35 CB  JSR $CB35                       A:11 X:00 Y:00 P:2C SP:27 PPU: 81, 17 CYC:28716
CB35  A9 7F     LDA #$7F                        A:11 X:00 Y:00 P:2C SP:25 PPU: 97, 17 CYC:28722
CB37  85 01     STA $01 = 03                    A:7F X:00 Y:00 P:2C SP:25 PPU:105, 17 CYC:28724
CB39  A9 80     LDA #$80                        A:7F X:00 Y:00 P:2C SP:25 PPU:113, 17 CYC:28727
CB3B  85 02     STA $02 = 80                    A:80 X:00 Y:00 P:AC SP:25 PPU:121, 17 CYC:28729
CB3D  60        RTS                             A:80 X:00 Y:00 P:AC SP:25 PPU:129, 17 CYC:28732
CAF0  A9 01     LDA #$01                        A:80 X:00 Y:00 P:AC SP:27 PPU:145, 17 CYC:28738
CAF2  8D 16 40  STA $4016 = 00                  A:01 X:00 Y:00 P:2C SP:27 PPU:153, 17 CYC:28740
CAF5  A2 00     LDX #$00                        A:01 X:00 Y:00 P:2C SP:27 PPU:161, 17 CYC:28744
CAF7  A9 00     LDA #$00                        A:01 X:00 Y:00 P:2E SP:27 PPU:169, 17 CYC:28746
CAF9  8D 16 40  STA $4016 = 00                  A:00 X:00 Y:00 P:2E SP:27 PPU:177, 17 CYC:28748
CAFC  20 00 CB  JSR $CB00                       A:00 X:00 Y:00 P:2E SP:27 PPU:185, 17 CYC:28752
CB00  A0 08     LDY #$08                        A:00 X:00 Y:00 P:2E SP:25 PPU:209, 17 CYC:28758
CB02  48        PHA                             A:00 X:00 Y:08 P:2C SP:25 PPU:209, 17 CYC:28760
CB03  BD 16 40  LDA $4016,X @ 4016 = 00         A:00 X:00 Y:08 P:2C SP:24 PPU:225, 17 CYC:28763
CB06  85 00     STA $00 = 01                    A:00 X:00 Y:08 P:2E SP:24 PPU:233, 17 CYC:28767
CB08  4A        LSR A                           A:00 X:00 Y:08 P:2E SP:24 PPU:241, 17 CYC:28770
CB09  05 00     ORA $00 = 00                    A:00 X:00 Y:08 P:2E SP:24 PPU:249, 17 CYC:28772
CB0B  4A        LSR A                           A:00 X:00 Y:08 P:2E SP:24 PPU:257, 17 CYC:28775
CB0C  68        PLA                             A:00 X:00 Y:08 P:2E SP:24 PPU:265, 17 CYC:28777
CB0D  2A        ROL A                           A:00 X:00 Y:08 P:2E SP:25 PPU:273, 17 CYC:28781
CB0E  88        DEY                             A:00 X:00 Y:08 P:2E SP:25 PPU:281, 17 CYC:28783
CB0F  D0 F1     BNE $CB02                       A:00 X:00 Y:07 P:2C SP:25 PPU:289, 17 CYC:28785
CB02  48        PHA                             A:00 X:00 Y:07 P:2C SP:25 PPU:297, 17 CYC:28788
CB03  BD 16 40  LDA $4016,X @ 4016 = 00         A:00 X:00 Y:07 P:2C SP:24 PPU:305, 17 CYC:28791
CB06  85 00     STA $00 = 00                    A:00 X:00 Y:07 P:2E SP:24 PPU:321, 17 CYC:28795
CB08  4A        LSR A                           A:00 X:00 Y:07 P:2E SP:24 PPU:323, 17 CYC:28798
CB09  05 00     ORA $00 = 00                    A:00 X:00 Y:07 P:2E SP:24 PPU:329, 17 CYC:28800
CB0B  4A        LSR A                           A:00 X:00 Y:07 P:2E SP:24 PPU:345, 17 CYC:28803
CB0C  68        PLA                             A:00 X:00 Y:07 P:2E SP:24 PPU:345, 17 CYC:28805
CB0D  2A        ROL A                           A:00 X:00 Y:07 P:2E SP:25 PPU: 17, 18 CYC:28809
CB0E  88        DEY                             A:00 X:00 Y:07 P:2E SP:25 PPU: 17, 18 CYC:28811
CB0F  D0 F1     BNE $CB02                       A:00 X:00 Y:06 P:2C SP:25 PPU: 25, 18 CYC:28813
CB02  48        PHA                             A:00 X:00 Y:06 P:2C SP:25 PPU: 33, 18 CYC:28816
CB03  BD 16 40  LDA $4016,X @ 4016 = 00         A:00 X:00 Y:06 P:2C SP:24 PPU: 41, 18 CYC:28819
CB06  85 00     STA $00 = 00                    A:00 X:00 Y:06 P:2E SP:24 PPU: 57, 18 CYC:28823
CB08  4A        LSR A                           A:00 X:00 Y:06 P:2E SP:24 PPU: 65, 18 CYC:28826
CB09  05 00     ORA $00 = 00                    A:00 X:00 Y:06 P:2E SP:24 PPU: 73, 18 CYC:28828
CB0B  4A        LSR A                           A:00 X:00 Y:06 P:2E SP:24 PPU: 81, 18 CYC:28831
CB0C  68        PLA                             A:00 X:00 Y:06 P:2E SP:24 PPU: 89, 18 CYC:28833
CB0D  2A        ROL A                           A:00 X:00 Y:06 P:2E SP:25 PPU: 97, 18 CYC:28837
CB0E  88        DEY                             A:00 X:00 Y:06 P:2E SP:25 PPU:105, 18 CYC:28839
CB0F  D0 F1     BNE $CB02                       A:00 X:00 Y:05 P:2C SP:25 PPU:113, 18 CYC:28841
CB02  48        PHA                             A:00 X:00 Y:05 P:2C SP:25 PPU:121, 18 CYC:28844
CB03  BD 16 40  LDA $4016,X @ 4016 = 00         A:00 X:00 Y:05 P:2C SP:24 PPU:129, 18 CYC:28847
CB06  85 00     STA $00 = 00                    A:00 X:00 Y:05 P:2E SP:24 PPU:137, 18 CYC:28851
CB08  4A        LSR A                           A:00 X:00 Y:05 P:2E SP:24 PPU:153, 18 CYC:28854
CB09  05 00     ORA $00 = 00                    A:00 X:00 Y:05 P:2E SP:24 PPU:153, 18 CYC:28856
CB0B  4A        LSR A                           A:00 X:00 Y:05 P:2E SP:24 PPU:161, 18 CYC:28859
CB0C  68        PLA                             A:00 X:00 Y:05 P:2E SP:24 PPU:169, 18 CYC:28861
CB0D  2A        ROL A                           A:00 X:00 Y:05 P:2E SP:25 PPU:185, 18 CYC:28865
CB0E  88        DEY                             A:00 X:00 Y:05 P:2E SP:25 PPU:185, 18 CYC:28867
CB0F  D0 F1     BNE $CB02                       A:00 X:00 Y:04 P:2C SP:25 PPU:193, 18 CYC:28869
CB02  48        PHA                             A:00 X:00 Y:04 P:2C SP:25 PPU:201, 18 CYC:28872
CB03  BD 16 40  LDA $4016,X @ 4016 = 00         A:00 X:00 Y:04 P:2C SP:24 PPU:209, 18 CYC:28875
CB06  85 00     STA $00 = 00                    A:00 X:00 Y:04 P:2E SP:24 PPU:225, 18 CYC:28879
CB08  4A        LSR A                           A:00 X:00 Y:04 P:2E SP:24 PPU:233, 18 CYC:28882
CB09  05 00     ORA $00 = 00                    A:00 X:00 Y:04 P:2E SP:24 PPU:241, 18 CYC:28884
CB0B  4A        LSR A                           A:00 X:00 Y:04 P:2E SP:24 PPU:249, 18 CYC:28887
CB0C  68        PLA                             A:00 X:00 Y:04 P:2E SP:24 PPU:257, 18 CYC:28889
CB0D  2A        ROL A                           A:00 X:00 Y:04 P:2E SP:25 PPU:265, 18 CYC:28893
CB0E  88        DEY                             A:00 X:00 Y:04 P:2E SP:25 PPU:273, 18 CYC:28895
CB0F  D0 F1     BNE $CB02                       A:00 X:00 Y:03 P:2C SP:25 PPU:281, 18 CYC:28897
CB02  48        PHA                             A:00 X:00 Y:03 P:2C SP:25 PPU:289, 18 CYC:28900
CB03  BD 16 40  LDA $4016,X @ 4016 = 00         A:00 X:00 Y:03 P:2C SP:24 PPU:297, 18 CYC:28903
CB06  85 00     STA $00 = 00                    A:00 X:00 Y:03 P:2E SP:24 PPU:305, 18 CYC:28907
CB08  4A        LSR A                           A:00 X:00 Y:03 P:2E SP:24 PPU:321, 18 CYC:28910
CB09  05 00     ORA $00 = 00                    A:00 X:00 Y:03 P:2E SP:24 PPU:321, 18 CYC:28912
CB0B  4A        LSR A                           A:00 X:00 Y:03 P:2E SP:24 PPU:329, 18 CYC:28915
CB0C  68        PLA                             A:00 X:00 Y:03 P:2E SP:24 PPU:335, 18 CYC:28917
CB0D  2A        ROL A                           A:00 X:00 Y:03 P:2E SP:25 PPU:  9, 19 CYC:28921
CB0E  88        DEY                             A:00 X:00 Y:03 P:2E SP:25 PPU:  9, 19 CYC:28923
CB0F  D0 F1     BNE $CB02                       A:00 X:00 Y:02 P:2C SP:25 PPU: 17, 19 CYC:28925
CB02  48        PHA                             A:00 X:00 Y:02 P:2C SP:25 PPU: 25, 19 CYC:28928
CB03  BD 16 40  LDA $4016,X @ 4016 = 00         A:00 X:00 Y:02 P:2C SP:24 PPU: 33, 19 CYC:28931
CB06  85 00     STA $00 = 00                    A:00 X:00 Y:02 P:2E SP:24 PPU: 49, 19 CYC:28935
CB08  4A        LSR A                           A:00 X:00 Y:02 P:2E SP:24 PPU: 57, 19 CYC:28938
CB09  05 00     ORA $00 = 00                    A:00 X:00 Y:02 P:2E SP:24 PPU: 65, 19 CYC:28940
CB0B  4A        LSR A                           A:00 X:00 Y:02 P:2E SP:24 PPU: 73, 19 CYC:28943
CB0C  68        PLA                             A:00 X:00 Y:02 P:2E SP:24 PPU: 81, 19 CYC:28945
CB0D  2A        ROL A                           A:00 X:00 Y:02 P:2E SP:25 PPU: 89, 19 CYC:28949
CB0E  88        DEY                             A:00 X:00 Y:02 P:2E SP:25 PPU: 97, 19 CYC:28951
CB0F  D0 F1     BNE $CB02                       A:00 X:00 Y:01 P:2C SP:25 PPU:105, 19 CYC:28953
CB02  48        PHA                             A:00 X:00 Y:01 P:2C SP:25 PPU:113, 19 CYC:28956
CB03  BD 16 40  LDA $4016,X @ 4016 = 00         A:00 X:00 Y:01 P:2C SP:24 PPU:121, 19 CYC:28959
CB06  85 00     STA $00 = 00                    A:00 X:00 Y:01 P:2E SP:24 PPU:129, 19 CYC:28963
CB08  4A        LSR A                           A:00 X:00 Y:01 P:2E SP:24 PPU:137, 19 CYC:28966
CB09  05 00     ORA $00 = 00                    A:00 X:00 Y:01 P:2E SP:24 PPU:145, 19 CYC:28968
CB0B  4A        LSR A                           A:00 X:00 Y:01 P:2E SP:24 PPU:153, 19 CYC:28971
CB0C  68        PLA                             A:00 X:00 Y:01 P:2E SP:24 PPU:161, 19 CYC:28973
CB0D  2A        ROL A                           A:00 X:00 Y:01 P:2E SP:25 PPU:177, 19 CYC:28977
CB0E  88        DEY                             A:00 X:00 Y:01 P:2E SP:25 PPU:177, 19 CYC:28979
CB0F  D0 F1     BNE $CB02                       A:00 X:00 Y:00 P:2E SP:25 PPU:185, 19 CYC:28981
CB11  86 00     STX $00 = 00                    A:00 X:00 Y:00 P:2E SP:25 PPU:193, 19 CYC:28983
CB13  06 00     ASL $00 = 00                    A:00 X:00 Y:00 P:2E SP:25 PPU:201, 19 CYC:28986
CB15  A6 00     LDX $00 = 00                    A:00 X:00 Y:00 P:2E SP:25 PPU:217, 19 CYC:28991
CB17  B4 14     LDY $14,X @ 14 = 00             A:00 X:00 Y:00 P:2E SP:25 PPU:225, 19 CYC:28994
CB19  84 00     STY $00 = 00                    A:00 X:00 Y:00 P:2E SP:25 PPU:233, 19 CYC:28998
CB1B  95 14     STA $14,X @ 14 = 00             A:00 X:00 Y:00 P:2E SP:25 PPU:249, 19 CYC:29001
CB1D  95 15     STA $15,X @ 15 = 00             A:00 X:00 Y:00 P:2E SP:25 PPU:257, 19 CYC:29005
CB1F  A0 04     LDY #$04                        A:00 X:00 Y:00 P:2E SP:25 PPU:273, 19 CYC:29009
CB21  A5 02     LDA $02 = 80                    A:00 X:00 Y:04 P:2C SP:25 PPU:273, 19 CYC:29011
CB23  24 00     BIT $00 = 00                    A:80 X:00 Y:04 P:AC SP:25 PPU:281, 19 CYC:29014
CB25  F0 06     BEQ $CB2D                       A:80 X:00 Y:04 P:2E SP:25 PPU:297, 19 CYC:29017
CB2D  38        SEC                             A:80 X:00 Y:04 P:2E SP:25 PPU:305, 19 CYC:29020
CB2E  66 01     ROR $01 = 7F                    A:80 X:00 Y:04 P:2F SP:25 PPU:305, 19 CYC:29022
CB30  46 02     LSR $02 = 80                    A:80 X:00 Y:04 P:AD SP:25 PPU:321, 19 CYC:29027
CB32  88        DEY                             A:80 X:00 Y:04 P:2C SP:25 PPU:335, 19 CYC:29032
CB33  D0 EC     BNE $CB21                       A:80 X:00 Y:03 P:2C SP:25 PPU:345, 19 CYC:29034
CB21  A5 02     LDA $02 = 40                    A:80 X:00 Y:03 P:2C SP:25 PPU:  9, 20 CYC:29037
CB23  24 00     BIT $00 = 00                    A:40 X:00 Y:03 P:2C SP:25 PPU: 17, 20 CYC:29040
CB25  F0 06     BEQ $CB2D                       A:40 X:00 Y:03 P:2E SP:25 PPU: 25, 20 CYC:29043
CB2D  38        SEC                             A:40 X:00 Y:03 P:2E SP:25 PPU: 33, 20 CYC:29046
CB2E  66 01     ROR $01 = BF                    A:40 X:00 Y:03 P:2F SP:25 PPU: 41, 20 CYC:29048
CB30  46 02     LSR $02 = 40                    A:40 X:00 Y:03 P:AD SP:25 PPU: 57, 20 CYC:29053
CB32  88        DEY                             A:40 X:00 Y:03 P:2C SP:25 PPU: 73, 20 CYC:29058
CB33  D0 EC     BNE $CB21                       A:40 X:00 Y:02 P:2C SP:25 PPU: 81, 20 CYC:29060
CB21  A5 02     LDA $02 = 20                    A:40 X:00 Y:02 P:2C SP:25 PPU: 89, 20 CYC:29063
CB23  24 00     BIT $00 = 00                    A:20 X:00 Y:02 P:2C SP:25 PPU: 97, 20 CYC:29066
CB25  F0 06     BEQ $CB2D                       A:20 X:00 Y:02 P:2E SP:25 PPU:105, 20 CYC:29069
CB2D  38        SEC                             A:20 X:00 Y:02 P:2E SP:25 PPU:113, 20 CYC:29072
CB2E  66 01     ROR $01 = DF                    A:20 X:00 Y:02 P:2F SP:25 PPU:121, 20 CYC:29074
CB30  46 02     LSR $02 = 20                    A:20 X:00 Y:02 P:AD SP:25 PPU:137, 20 CYC:29079
CB32  88        DEY                             A:20 X:00 Y:02 P:2C SP:25 PPU:153, 20 CYC:29084
CB33  D0 EC     BNE $CB21                       A:20 X:00 Y:01 P:2C SP:25 PPU:153, 20 CYC:29086
CB21  A5 02     LDA $02 = 10                    A:20 X:00 Y:01 P:2C SP:25 PPU:161, 20 CYC:29089
CB23  24 00     BIT $00 = 00                    A:10 X:00 Y:01 P:2C SP:25 PPU:177, 20 CYC:29092
CB25  F0 06     BEQ $CB2D                       A:10 X:00 Y:01 P:2E SP:25 PPU:185, 20 CYC:29095
CB2D  38        SEC                             A:10 X:00 Y:01 P:2E SP:25 PPU:193, 20 CYC:29098
CB2E  66 01     ROR $01 = EF                    A:10 X:00 Y:01 P:2F SP:25 PPU:201, 20 CYC:29100
CB30  46 02     LSR $02 = 10                    A:10 X:00 Y:01 P:AD SP:25 PPU:209, 20 CYC:29105
CB32  88        DEY                             A:10 X:00 Y:01 P:2C SP:25 PPU:225, 20 CYC:29110
CB33  D0 EC     BNE $CB21                       A:10 X:00 Y:00 P:2E SP:25 PPU:233, 20 CYC:29112
CB35  A9 7F     LDA #$7F                        A:10 X:00 Y:00 P:2E SP:25 PPU:241, 20 CYC:29114
CB37  85 01     STA $01 = F7                    A:7F X:00 Y:00 P:2C SP:25 PPU:249, 20 CYC:29116
CB39  A9 80     LDA #$80                        A:7F X:00 Y:00 P:2C SP:25 PPU:257, 20 CYC:29119
CB3B  85 02     STA $02 = 08                    A:80 X:00 Y:00 P:AC SP:25 PPU:257, 20 CYC:29121
CB3D  60        RTS                             A:80 X:00 Y:00 P:AC SP:25 PPU:273, 20 CYC:29124
CAFF  E8        INX                             A:80 X:00 Y:00 P:AC SP:27 PPU:289, 20 CYC:29130
CB00  A0 08     LDY #$08                        A:80 X:01 Y:00 P:2C SP:27 PPU:297, 20 CYC:29132
CB02  48        PHA                             A:80 X:01 Y:08 P:2C SP:27 PPU:297, 20 CYC:29134
CB03  BD 16 40  LDA $4016,X @ 4017 = 00         A:80 X:01 Y:08 P:2C SP:26 PPU:305, 20 CYC:29137
CB06  85 00     STA $00 = 00                    A:00 X:01 Y:08 P:2E SP:26 PPU:321, 20 CYC:29141
CB08  4A        LSR A                           A:00 X:01 Y:08 P:2E SP:26 PPU:326, 20 CYC:29144
CB09  05 00     ORA $00 = 00                    A:00 X:01 Y:08 P:2E SP:26 PPU:332, 20 CYC:29146
CB0B  4A        LSR A                           A:00 X:01 Y:08 P:2E SP:26 PPU:345, 20 CYC:29149
CB0C  68        PLA                             A:00 X:01 Y:08 P:2E SP:26 PPU:  9, 21 CYC:29151
CB0D  2A        ROL A                           A:80 X:01 Y:08 P:AC SP:27 PPU: 17, 21 CYC:29155
CB0E  88        DEY                             A:00 X:01 Y:08 P:2F SP:27 PPU: 25, 21 CYC:29157
CB0F  D0 F1     BNE $CB02                       A:00 X:01 Y:07 P:2D SP:27 PPU: 33, 21 CYC:29159
CB02  48        PHA                             A:00 X:01 Y:07 P:2D SP:27 PPU: 41, 21 CYC:29162
CB03  BD 16 40  LDA $4016,X @ 4017 = 00         A:00 X:01 Y:07 P:2D SP:26 PPU: 49, 21 CYC:29165
CB06  85 00     STA $00 = 00                    A:00 X:01 Y:07 P:2F SP:26 PPU: 57, 21 CYC:29169
CB08  4A        LSR A                           A:00 X:01 Y:07 P:2F SP:26 PPU: 65, 21 CYC:29172
CB09  05 00     ORA $00 = 00                    A:00 X:01 Y:07 P:2E SP:26 PPU: 73, 21 CYC:29174
CB0B  4A        LSR A                           A:00 X:01 Y:07 P:2E SP:26 PPU: 81, 21 CYC:29177
CB0C  68        PLA                             A:00 X:01 Y:07 P:2E SP:26 PPU: 89, 21 CYC:29179
CB0D  2A        ROL A                           A:00 X:01 Y:07 P:2E SP:27 PPU:105, 21 CYC:29183
CB0E  88        DEY                             A:00 X:01 Y:07 P:2E SP:27 PPU:105, 21 CYC:29185
CB0F  D0 F1     BNE $CB02                       A:00 X:01 Y:06 P:2C SP:27 PPU:113, 21 CYC:29187
CB02  48        PHA                             A:00 X:01 Y:06 P:2C SP:27 PPU:121, 21 CYC:29190
CB03  BD 16 40  LDA $4016,X @ 4017 = 00         A:00 X:01 Y:06 P:2C SP:26 PPU:129, 21 CYC:29193
CB06  85 00     STA $00 = 00                    A:00 X:01 Y:06 P:2E SP:26 PPU:145, 21 CYC:29197
CB08  4A        LSR A                           A:00 X:01 Y:06 P:2E SP:26 PPU:153, 21 CYC:29200
CB09  05 00     ORA $00 = 00                    A:00 X:01 Y:06 P:2E SP:26 PPU:161, 21 CYC:29202
CB0B  4A        LSR A                           A:00 X:01 Y:06 P:2E SP:26 PPU:169, 21 CYC:29205
CB0C  68        PLA                             A:00 X:01 Y:06 P:2E SP:26 PPU:177, 21 CYC:29207
CB0D  2A        ROL A                           A:00 X:01 Y:06 P:2E SP:27 PPU:185, 21 CYC:29211
CB0E  88        DEY                             A:00 X:01 Y:06 P:2E SP:27 PPU:193, 21 CYC:29213
CB0F  D0 F1     BNE $CB02                       A:00 X:01 Y:05 P:2C SP:27 PPU:201, 21 CYC:29215
CB02  48        PHA                             A:00 X:01 Y:05 P:2C SP:27 PPU:209, 21 CYC:29218
CB03  BD 16 40  LDA $4016,X @ 4017 = 00         A:00 X:01 Y:05 P:2C SP:26 PPU:217, 21 CYC:29221
CB06  85 00     STA $00 = 00                    A:00 X:01 Y:05 P:2E SP:26 PPU:225, 21 CYC:29225
CB08  4A        LSR A                           A:00 X:01 Y:05 P:2E SP:26 PPU:233, 21 CYC:29228
CB09  05 00     ORA $00 = 00                    A:00 X:01 Y:05 P:2E SP:26 PPU:241, 21 CYC:29230
CB0B  4A        LSR A                           A:00 X:01 Y:05 P:2E SP:26 PPU:249, 21 CYC:29233
CB0C  68        PLA                             A:00 X:01 Y:05 P:2E SP:26 PPU:257, 21 CYC:29235
CB0D  2A        ROL A                           A:00 X:01 Y:05 P:2E SP:27 PPU:273, 21 CYC:29239
CB0E  88        DEY                             A:00 X:01 Y:05 P:2E SP:27 PPU:273, 21 CYC:29241
CB0F  D0 F1     BNE $CB02                       A:00 X:01 Y:04 P:2C SP:27 PPU:281, 21 CYC:29243
CB02  48        PHA                             A:00 X:01 Y:04 P:2C SP:27 PPU:289, 21 CYC:29246
CB03  BD 16 40  LDA $4016,X @ 4017 = 00         A:00 X:01 Y:04 P:2C SP:26 PPU:297, 21 CYC:29249
CB06  85 00     STA $00 = 00                    A:00 X:01 Y:04 P:2E SP:26 PPU:313, 21 CYC:29253
CB08  4A        LSR A                           A:00 X:01 Y:04 P:2E SP:26 PPU:321, 21 CYC:29256
CB09  05 00     ORA $00 = 00                    A:00 X:01 Y:04 P:2E SP:26 PPU:323, 21 CYC:29258
CB0B  4A        LSR A                           A:00 X:01 Y:04 P:2E SP:26 PPU:332, 21 CYC:29261
CB0C  68        PLA                             A:00 X:01 Y:04 P:2E SP:26 PPU:345, 21 CYC:29263
CB0D  2A        ROL A                           A:00 X:01 Y:04 P:2E SP:27 PPU:  9, 22 CYC:29267
CB0E  88        DEY                             A:00 X:01 Y:04 P:2E SP:27 PPU: 17, 22 CYC:29269
CB0F  D0 F1     BNE $CB02                       A:00 X:01 Y:03 P:2C SP:27 PPU: 17, 22 CYC:29271
CB02  48        PHA                             A:00 X:01 Y:03 P:2C SP:27 PPU: 33, 22 CYC:29274
CB03  BD 16 40  LDA $4016,X @ 4017 = 00         A:00 X:01 Y:03 P:2C SP:26 PPU: 41, 22 CYC:29277
CB06  85 00     STA $00 = 00                    A:00 X:01 Y:03 P:2E SP:26 PPU: 49, 22 CYC:29281
CB08  4A        LSR A                           A:00 X:01 Y:03 P:2E SP:26 PPU: 57, 22 CYC:29284
CB09  05 00     ORA $00 = 00                    A:00 X:01 Y:03 P:2E SP:26 PPU: 65, 22 CYC:29286
CB0B  4A        LSR A                           A:00 X:01 Y:03 P:2E SP:26 PPU: 73, 22 CYC:29289
CB0C  68        PLA                             A:00 X:01 Y:03 P:2E SP:26 PPU: 81, 22 CYC:29291
CB0D  2A        ROL A                           A:00 X:01 Y:03 P:2E SP:27 PPU: 89, 22 CYC:29295
CB0E  88        DEY                             A:00 X:01 Y:03 P:2E SP:27 PPU: 97, 22 CYC:29297
CB0F  D0 F1     BNE $CB02                       A:00 X:01 Y:02 P:2C SP:27 PPU:105, 22 CYC:29299
CB02  48        PHA                             A:00 X:01 Y:02 P:2C SP:27 PPU:113, 22 CYC:29302
CB03  BD 16 40  LDA $4016,X @ 4017 = 00         A:00 X:01 Y:02 P:2C SP:26 PPU:121, 22 CYC:29305
CB06  85 00     STA $00 = 00                    A:00 X:01 Y:02 P:2E SP:26 PPU:137, 22 CYC:29309
CB08  4A        LSR A                           A:00 X:01 Y:02 P:2E SP:26 PPU:145, 22 CYC:29312
CB09  05 00     ORA $00 = 00                    A:00 X:01 Y:02 P:2E SP:26 PPU:153, 22 CYC:29314
CB0B  4A        LSR A                           A:00 X:01 Y:02 P:2E SP:26 PPU:161, 22 CYC:29317
CB0C  68        PLA                             A:00 X:01 Y:02 P:2E SP:26 PPU:161, 22 CYC:29319
CB0D  2A        ROL A                           A:00 X:01 Y:02 P:2E SP:27 PPU:177, 22 CYC:29323
CB0E  88        DEY                             A:00 X:01 Y:02 P:2E SP:27 PPU:185, 22 CYC:29325
CB0F  D0 F1     BNE $CB02                       A:00 X:01 Y:01 P:2C SP:27 PPU:185, 22 CYC:29327
CB02  48        PHA                             A:00 X:01 Y:01 P:2C SP:27 PPU:201, 22 CYC:29330
CB03  BD 16 40  LDA $4016,X @ 4017 = 00         A:00 X:01 Y:01 P:2C SP:26 PPU:209, 22 CYC:29333
CB06  85 00     STA $00 = 00                    A:00 X:01 Y:01 P:2E SP:26 PPU:217, 22 CYC:29337
CB08  4A        LSR A                           A:00 X:01 Y:01 P:2E SP:26 PPU:225, 22 CYC:29340
CB09  05 00     ORA $00 = 00                    A:00 X:01 Y:01 P:2E SP:26 PPU:233, 22 CYC:29342
CB0B  4A        LSR A                           A:00 X:01 Y:01 P:2E SP:26 PPU:241, 22 CYC:29345
CB0C  68        PLA                             A:00 X:01 Y:01 P:2E SP:26 PPU:249, 22 CYC:29347
CB0D  2A        ROL A                           A:00 X:01 Y:01 P:2E SP:27 PPU:257, 22 CYC:29351
CB0E  88        DEY                             A:00 X:01 Y:01 P:2E SP:27 PPU:265, 22 CYC:29353
CB0F  D0 F1     BNE $CB02                       A:00 X:01 Y:00 P:2E SP:27 PPU:273, 22 CYC:29355
CB11  86 00     STX $00 = 00                    A:00 X:01 Y:00 P:2E SP:27 PPU:281, 22 CYC:29357
CB13  06 00     ASL $00 = 01                    A:00 X:01 Y:00 P:2E SP:27 PPU:289, 22 CYC:29360
CB15  A6 00     LDX $00 = 02                    A:00 X:01 Y:00 P:2C SP:27 PPU:305, 22 CYC:29365
CB17  B4 14     LDY $14,X @ 16 = 00             A:00 X:02 Y:00 P:2C SP:27 PPU:313, 22 CYC:29368
CB19  84 00     STY $00 = 02                    A:00 X:02 Y:00 P:2E SP:27 PPU:321, 22 CYC:29372
CB1B  95 14     STA $14,X @ 16 = 00             A:00 X:02 Y:00 P:2E SP:27 PPU:329, 22 CYC:29375
CB1D  95 15     STA $15,X @ 17 = 00             A:00 X:02 Y:00 P:2E SP:27 PPU:345, 22 CYC:29379
CB1F  A0 04     LDY #$04                        A:00 X:02 Y:00 P:2E SP:27 PPU:  9, 23 CYC:29383
CB21  A5 02     LDA $02 = 80                    A:00 X:02 Y:04 P:2C SP:27 PPU: 17, 23 CYC:29385
CB23  24 00     BIT $00 = 00                    A:80 X:02 Y:04 P:AC SP:27 PPU: 25, 23 CYC:29388
CB25  F0 06     BEQ $CB2D                       A:80 X:02 Y:04 P:2E SP:27 PPU: 33, 23 CYC:29391
CB2D  38        SEC                             A:80 X:02 Y:04 P:2E SP:27 PPU: 41, 23 CYC:29394
CB2E  66 01     ROR $01 = 7F                    A:80 X:02 Y:04 P:2F SP:27 PPU: 49, 23 CYC:29396
CB30  46 02     LSR $02 = 80                    A:80 X:02 Y:04 P:AD SP:27 PPU: 65, 23 CYC:29401
CB32  88        DEY                             A:80 X:02 Y:04 P:2C SP:27 PPU: 81, 23 CYC:29406
CB33  D0 EC     BNE $CB21                       A:80 X:02 Y:03 P:2C SP:27 PPU: 89, 23 CYC:29408
CB21  A5 02     LDA $02 = 40                    A:80 X:02 Y:03 P:2C SP:27 PPU: 97, 23 CYC:29411
CB23  24 00     BIT $00 = 00                    A:40 X:02 Y:03 P:2C SP:27 PPU:105, 23 CYC:29414
CB25  F0 06     BEQ $CB2D                       A:40 X:02 Y:03 P:2E SP:27 PPU:113, 23 CYC:29417
CB2D  38        SEC                             A:40 X:02 Y:03 P:2E SP:27 PPU:121, 23 CYC:29420
CB2E  66 01     ROR $01 = BF                    A:40 X:02 Y:03 P:2F SP:27 PPU:129, 23 CYC:29422
CB30  46 02     LSR $02 = 40                    A:40 X:02 Y:03 P:AD SP:27 PPU:145, 23 CYC:29427
CB32  88        DEY                             A:40 X:02 Y:03 P:2C SP:27 PPU:161, 23 CYC:29432
CB33  D0 EC     BNE $CB21                       A:40 X:02 Y:02 P:2C SP:27 PPU:161, 23 CYC:29434
CB21  A5 02     LDA $02 = 20                    A:40 X:02 Y:02 P:2C SP:27 PPU:177, 23 CYC:29437
CB23  24 00     BIT $00 = 00                    A:20 X:02 Y:02 P:2C SP:27 PPU:185, 23 CYC:29440
CB25  F0 06     BEQ $CB2D                       A:20 X:02 Y:02 P:2E SP:27 PPU:193, 23 CYC:29443
CB2D  38        SEC                             A:20 X:02 Y:02 P:2E SP:27 PPU:201, 23 CYC:29446
CB2E  66 01     ROR $01 = DF                    A:20 X:02 Y:02 P:2F SP:27 PPU:209, 23 CYC:29448
CB30  46 02     LSR $02 = 20                    A:20 X:02 Y:02 P:AD SP:27 PPU:225, 23 CYC:29453
CB32  88        DEY                             A:20 X:02 Y:02 P:2C SP:27 PPU:233, 23 CYC:29458
CB33  D0 EC     BNE $CB21                       A:20 X:02 Y:01 P:2C SP:27 PPU:241, 23 CYC:29460
CB21  A5 02     LDA $02 = 10                    A:20 X:02 Y:01 P:2C SP:27 PPU:249, 23 CYC:29463
CB23  24 00     BIT $00 = 00                    A:10 X:02 Y:01 P:2C SP:27 PPU:257, 23 CYC:29466
CB25  F0 06     BEQ $CB2D                       A:10 X:02 Y:01 P:2E SP:27 PPU:273, 23 CYC:29469
CB2D  38        SEC                             A:10 X:02 Y:01 P:2E SP:27 PPU:281, 23 CYC:29472
CB2E  66 01     ROR $01 = EF                    A:10 X:02 Y:01 P:2F SP:27 PPU:281, 23 CYC:29474
CB30  46 02     LSR $02 = 10                    A:10 X:02 Y:01 P:AD SP:27 PPU:297, 23 CYC:29479
CB32  88        DEY                             A:10 X:02 Y:01 P:2C SP:27 PPU:313, 23 CYC:29484
CB33  D0 EC     BNE $CB21                       A:10 X:02 Y:00 P:2E SP:27 PPU:321, 23 CYC:29486
CB35  A9 7F     LDA #$7F                        A:10 X:02 Y:00 P:2E SP:27 PPU:323, 23 CYC:29488
CB37  85 01     STA $01 = F7                    A:7F X:02 Y:00 P:2C SP:27 PPU:329, 23 CYC:29490
CB39  A9 80     LDA #$80                        A:7F X:02 Y:00 P:2C SP:27 PPU:345, 23 CYC:29493
CB3B  85 02     STA $02 = 08                    A:80 X:02 Y:00 P:AC SP:27 PPU:345, 23 CYC:29495
CB3D  60        RTS                             A:80 X:02 Y:00 P:AC SP:27 PPU:  9, 24 CYC:29498
C0C6  20 1E F9  JSR $F91E                       A:80 X:02 Y:00 P:AC SP:29 PPU: 33, 24 CYC:29504
F91E  A9 FF     LDA #$FF                        A:80 X:02 Y:00 P:AC SP:27 PPU: 49, 24 CYC:29510
F920  8D 17 40  STA $4017 = 00                  A:FF X:02 Y:00 P:AC SP:27 PPU: 57, 24 CYC:29512
F923  20 EB F9  JSR $F9EB                       A:FF X:02 Y:00 P:AC SP:27 PPU: 65, 24 CYC:29516
F9EB  A4 FF     LDY $FF = 00                    A:FF X:02 Y:00 P:AC SP:25 PPU: 81, 24 CYC:29522
F9ED  A5 F0     LDA $F0 = 00                    A:FF X:02 Y:00 P:2E SP:25 PPU: 89, 24 CYC:29525
F9EF  46 FF     LSR $FF = 00                    A:00 X:02 Y:00 P:2E SP:25 PPU:105, 24 CYC:29528
F9F1  B0 B8     BCS $F9AB                       A:00 X:02 Y:00 P:2E SP:25 PPU:113, 24 CYC:29533
F9F3  4A        LSR A                           A:00 X:02 Y:00 P:2E SP:25 PPU:121, 24 CYC:29535
F9F4  B0 BB     BCS $F9B1                       A:00 X:02 Y:00 P:2E SP:25 PPU:129, 24 CYC:29537
F9F6  46 FF     LSR $FF = 00                    A:00 X:02 Y:00 P:2E SP:25 PPU:137, 24 CYC:29539
F9F8  B0 CE     BCS $F9C8                       A:00 X:02 Y:00 P:2E SP:25 PPU:153, 24 CYC:29544
F9FA  4A        LSR A                           A:00 X:02 Y:00 P:2E SP:25 PPU:153, 24 CYC:29546
F9FB  B0 D3     BCS $F9D0                       A:00 X:02 Y:00 P:2E SP:25 PPU:161, 24 CYC:29548
F9FD  46 FF     LSR $FF = 00                    A:00 X:02 Y:00 P:2E SP:25 PPU:169, 24 CYC:29550
F9FF  B0 0B     BCS $FA0C                       A:00 X:02 Y:00 P:2E SP:25 PPU:185, 24 CYC:29555
FA01  4A        LSR A                           A:00 X:02 Y:00 P:2E SP:25 PPU:185, 24 CYC:29557
FA02  B0 17     BCS $FA1B                       A:00 X:02 Y:00 P:2E SP:25 PPU:193, 24 CYC:29559
FA04  46 FF     LSR $FF = 00                    A:00 X:02 Y:00 P:2E SP:25 PPU:201, 24 CYC:29561
FA06  B0 38     BCS $FA40                       A:00 X:02 Y:00 P:2E SP:25 PPU:217, 24 CYC:29566
FA08  4A        LSR A                           A:00 X:02 Y:00 P:2E SP:25 PPU:225, 24 CYC:29568
FA09  B0 3F     BCS $FA4A                       A:00 X:02 Y:00 P:2E SP:25 PPU:225, 24 CYC:29570
FA0B  60        RTS                             A:00 X:02 Y:00 P:2E SP:25 PPU:233, 24 CYC:29572
F926  20 C4 FA  JSR $FAC4                       A:00 X:02 Y:00 P:2E SP:27 PPU:249, 24 CYC:29578
FAC4  A4 FE     LDY $FE = 00                    A:00 X:02 Y:00 P:2E SP:25 PPU:273, 24 CYC:29584
FAC6  A5 F1     LDA $F1 = 00                    A:00 X:02 Y:00 P:2E SP:25 PPU:281, 24 CYC:29587
FAC8  46 FE     LSR $FE = 00                    A:00 X:02 Y:00 P:2E SP:25 PPU:289, 24 CYC:29590
FACA  B0 98     BCS $FA64                       A:00 X:02 Y:00 P:2E SP:25 PPU:305, 24 CYC:29595
FACC  4A        LSR A                           A:00 X:02 Y:00 P:2E SP:25 PPU:305, 24 CYC:29597
FACD  B0 9C     BCS $FA6B                       A:00 X:02 Y:00 P:2E SP:25 PPU:313, 24 CYC:29599
FACF  46 FE     LSR $FE = 00                    A:00 X:02 Y:00 P:2E SP:25 PPU:321, 24 CYC:29601
FAD1  B0 B0     BCS $FA83                       A:00 X:02 Y:00 P:2E SP:25 PPU:332, 24 CYC:29606
FAD3  4A        LSR A                           A:00 X:02 Y:00 P:2E SP:25 PPU:345, 24 CYC:29608
FAD4  B0 BE     BCS $FA94                       A:00 X:02 Y:00 P:2E SP:25 PPU:345, 24 CYC:29610
FAD6  46 FE     LSR $FE = 00                    A:00 X:02 Y:00 P:2E SP:25 PPU:  9, 25 CYC:29612
FAD8  B0 12     BCS $FAEC                       A:00 X:02 Y:00 P:2E SP:25 PPU: 25, 25 CYC:29617
FADA  4A        LSR A                           A:00 X:02 Y:00 P:2E SP:25 PPU: 33, 25 CYC:29619
FADB  B0 D8     BCS $FAB5                       A:00 X:02 Y:00 P:2E SP:25 PPU: 33, 25 CYC:29621
FADD  4A        LSR A                           A:00 X:02 Y:00 P:2E SP:25 PPU: 41, 25 CYC:29623
FADE  B0 29     BCS $FB09                       A:00 X:02 Y:00 P:2E SP:25 PPU: 49, 25 CYC:29625
FAE0  46 FE     LSR $FE = 00                    A:00 X:02 Y:00 P:2E SP:25 PPU: 57, 25 CYC:29627
FAE2  B0 15     BCS $FAF9                       A:00 X:02 Y:00 P:2E SP:25 PPU: 65, 25 CYC:29632
FAE4  46 FE     LSR $FE = 00                    A:00 X:02 Y:00 P:2E SP:25 PPU: 73, 25 CYC:29634
FAE6  B0 2F     BCS $FB17                       A:00 X:02 Y:00 P:2E SP:25 PPU: 89, 25 CYC:29639
FAE8  4A        LSR A                           A:00 X:02 Y:00 P:2E SP:25 PPU: 97, 25 CYC:29641
FAE9  B0 CA     BCS $FAB5                       A:00 X:02 Y:00 P:2E SP:25 PPU:105, 25 CYC:29643
FAEB  60        RTS                             A:00 X:02 Y:00 P:2E SP:25 PPU:105, 25 CYC:29645
F929  20 A1 FB  JSR $FBA1                       A:00 X:02 Y:00 P:2E SP:27 PPU:129, 25 CYC:29651
FBA1  A4 FC     LDY $FC = 00                    A:00 X:02 Y:00 P:2E SP:25 PPU:145, 25 CYC:29657
FBA3  A5 F2     LDA $F2 = 00                    A:00 X:02 Y:00 P:2E SP:25 PPU:153, 25 CYC:29660
FBA5  46 FC     LSR $FC = 00                    A:00 X:02 Y:00 P:2E SP:25 PPU:161, 25 CYC:29663
FBA7  B0 C8     BCS $FB71                       A:00 X:02 Y:00 P:2E SP:25 PPU:177, 25 CYC:29668
FBA9  4A        LSR A                           A:00 X:02 Y:00 P:2E SP:25 PPU:185, 25 CYC:29670
FBAA  B0 CC     BCS $FB78                       A:00 X:02 Y:00 P:2E SP:25 PPU:185, 25 CYC:29672
FBAC  46 FC     LSR $FC = 00                    A:00 X:02 Y:00 P:2E SP:25 PPU:193, 25 CYC:29674
FBAE  B0 0B     BCS $FBBB                       A:00 X:02 Y:00 P:2E SP:25 PPU:209, 25 CYC:29679
FBB0  4A        LSR A                           A:00 X:02 Y:00 P:2E SP:25 PPU:217, 25 CYC:29681
FBB1  B0 18     BCS $FBCB                       A:00 X:02 Y:00 P:2E SP:25 PPU:225, 25 CYC:29683
FBB3  46 FC     LSR $FC = 00                    A:00 X:02 Y:00 P:2E SP:25 PPU:225, 25 CYC:29685
FBB5  B0 24     BCS $FBDB                       A:00 X:02 Y:00 P:2E SP:25 PPU:241, 25 CYC:29690
FBB7  4A        LSR A                           A:00 X:02 Y:00 P:2E SP:25 PPU:249, 25 CYC:29692
FBB8  B0 31     BCS $FBEB                       A:00 X:02 Y:00 P:2E SP:25 PPU:257, 25 CYC:29694
FBBA  60        RTS                             A:00 X:02 Y:00 P:2E SP:25 PPU:257, 25 CYC:29696
F92C  20 FC FB  JSR $FBFC                       A:00 X:02 Y:00 P:2E SP:27 PPU:281, 25 CYC:29702
FBFC  A5 FB     LDA $FB = 00                    A:00 X:02 Y:00 P:2E SP:25 PPU:297, 25 CYC:29708
FBFE  D0 05     BNE $FC05                       A:00 X:02 Y:00 P:2E SP:25 PPU:305, 25 CYC:29711
FC00  A5 F3     LDA $F3 = 00                    A:00 X:02 Y:00 P:2E SP:25 PPU:313, 25 CYC:29713
FC02  D0 4D     BNE $FC51                       A:00 X:02 Y:00 P:2E SP:25 PPU:321, 25 CYC:29716
FC04  60        RTS                             A:00 X:02 Y:00 P:2E SP:25 PPU:323, 25 CYC:29718
F92F  A9 00     LDA #$00                        A:00 X:02 Y:00 P:2E SP:27 PPU:345, 25 CYC:29724
F931  85 FF     STA $FF = 00                    A:00 X:02 Y:00 P:2E SP:27 PPU:  9, 26 CYC:29726
F933  85 FE     STA $FE = 00                    A:00 X:02 Y:00 P:2E SP:27 PPU: 17, 26 CYC:29729
F935  85 FC     STA $FC = 00                    A:00 X:02 Y:00 P:2E SP:27 PPU: 25, 26 CYC:29732
F937  85 FB     STA $FB = 00                    A:00 X:02 Y:00 P:2E SP:27 PPU: 33, 26 CYC:29735
F939  AC 11 07  LDY $0711 = 00                  A:00 X:02 Y:00 P:2E SP:27 PPU: 41, 26 CYC:29738
F93C  A5 F3     LDA $F3 = 00                    A:00 X:02 Y:00 P:2E SP:27 PPU: 57, 26 CYC:29742
F93E  29 0C     AND #$0C                        A:00 X:02 Y:00 P:2E SP:27 PPU: 65, 26 CYC:29745
F940  F0 07     BEQ $F949                       A:00 X:02 Y:00 P:2E SP:27 PPU: 65, 26 CYC:29747
F949  98        TYA                             A:00 X:02 Y:00 P:2E SP:27 PPU: 81, 26 CYC:29750
F94A  F0 03     BEQ $F94F                       A:00 X:02 Y:00 P:2E SP:27 PPU: 81, 26 CYC:29752
F94F  8C 11 40  STY $4011 = 00                  A:00 X:02 Y:00 P:2E SP:27 PPU: 89, 26 CYC:29755
F952  60        RTS                             A:00 X:02 Y:00 P:2E SP:27 PPU:105, 26 CYC:29759
C0C9  A5 53     LDA $53 = 00                    A:00 X:02 Y:00 P:2E SP:29 PPU:121, 26 CYC:29765
C0CB  F0 06     BEQ $C0D3                       A:00 X:02 Y:00 P:2E SP:29 PPU:129, 26 CYC:29768
C0D3  A5 51     LDA $51 = 01                    A:00 X:02 Y:00 P:2E SP:29 PPU:137, 26 CYC:29771
C0D5  F0 4F     BEQ $C126                       A:01 X:02 Y:00 P:2C SP:29 PPU:153, 26 CYC:29774
C0D7  AE 4C 03  LDX $034C = 02                  A:01 X:02 Y:00 P:2C SP:29 PPU:153, 26 CYC:29776
C0DA  F0 3E     BEQ $C11A                       A:01 X:02 Y:00 P:2C SP:29 PPU:169, 26 CYC:29780
C0DC  CA        DEX                             A:01 X:02 Y:00 P:2C SP:29 PPU:177, 26 CYC:29782
C0DD  F0 24     BEQ $C103                       A:01 X:01 Y:00 P:2C SP:29 PPU:177, 26 CYC:29784
C0DF  CA        DEX                             A:01 X:01 Y:00 P:2C SP:29 PPU:185, 26 CYC:29786
C0E0  D0 1E     BNE $C100                       A:01 X:00 Y:00 P:2E SP:29 PPU:193, 26 CYC:29788
C0E2  A5 11     LDA $11 = 1F                    A:01 X:00 Y:00 P:2E SP:29 PPU:201, 26 CYC:29790
C0E4  29 EF     AND #$EF                        A:1F X:00 Y:00 P:2C SP:29 PPU:209, 26 CYC:29793
C0E6  8D 01 20  STA $2001 = 1F                  A:0F X:00 Y:00 P:2C SP:29 PPU:209, 26 CYC:29795
C0E9  85 11     STA $11 = 1F                    A:0F X:00 Y:00 P:2C SP:29 PPU:225, 26 CYC:29799
C0EB  A5 15     LDA $15 = 00                    A:0F X:00 Y:00 P:2C SP:29 PPU:233, 26 CYC:29802
C0ED  29 10     AND #$10                        A:00 X:00 Y:00 P:2E SP:29 PPU:241, 26 CYC:29805
C0EF  F0 47     BEQ $C138                       A:00 X:00 Y:00 P:2E SP:29 PPU:249, 26 CYC:29807
C138  20 41 C1  JSR $C141                       A:00 X:00 Y:00 P:2E SP:29 PPU:257, 26 CYC:29811
C141  AD 02 20  LDA $2002 = 0F                  A:00 X:00 Y:00 P:2E SP:27 PPU:281, 26 CYC:29817
C144  A5 10     LDA $10 = 11                    A:0F X:00 Y:00 P:2C SP:27 PPU:289, 26 CYC:29821
C146  09 80     ORA #$80                        A:11 X:00 Y:00 P:2C SP:27 PPU:297, 26 CYC:29824
C148  85 10     STA $10 = 11                    A:91 X:00 Y:00 P:AC SP:27 PPU:305, 26 CYC:29826
C14A  8D 00 20  STA $2000 = 11                  A:91 X:00 Y:00 P:AC SP:27 PPU:313, 26 CYC:29829
C14D  60        RTS                             A:91 X:00 Y:00 P:AC SP:27 PPU:323, 26 CYC:29833
